TN:
SF:C:/Projects/GoogleTestProject/acc.c
FN:19,acc_mode_selection
FNDA:60,acc_mode_selection
FN:59,calculate_accel_for_distance_pid
FNDA:185,calculate_accel_for_distance_pid
FN:117,calculate_accel_for_speed_pid
FNDA:110,calculate_accel_for_speed_pid
FN:163,acc_output_selection
FNDA:32,acc_output_selection
FNF:4
FNH:4
DA:19,60
DA:25,60
DA:26,60
DA:28,57
DA:29,57
DA:31,7
DA:33,50
DA:35,7
DA:36,1
DA:38,1
DA:40,6
DA:44,43
DA:45,11
DA:47,5
DA:49,38
DA:50,1
DA:53,37
DA:59,185
DA:67,185
DA:69,5
DA:73,180
DA:75,2
DA:79,178
DA:80,178
DA:81,178
DA:84,178
DA:85,178
DA:88,178
DA:90,178
DA:91,178
DA:92,178
DA:94,178
DA:96,178
DA:97,178
DA:100,178
DA:101,41
DA:102,37
DA:104,36
DA:105,11
DA:107,25
DA:111,178
DA:117,110
DA:123,110
DA:125,11
DA:129,99
DA:132,99
DA:134,13
DA:136,13
DA:141,99
DA:144,99
DA:145,99
DA:146,99
DA:148,99
DA:149,99
DA:150,99
DA:152,99
DA:154,99
DA:163,32
DA:169,32
DA:171,15
DA:173,17
DA:175,11
DA:177,6
DA:180,4
DA:183,2
LF:65
LH:65
end_of_record
TN:
SF:C:/Projects/GoogleTestProject/aeb.c
FN:10,q10
FNDA:27,q10
FN:19,calculate_ttc_for_aeb
FNDA:60,calculate_ttc_for_aeb
FN:90,aeb_mode_selection
FNDA:62,aeb_mode_selection
FN:141,calculate_decel_for_aeb
FNDA:60,calculate_decel_for_aeb
FNF:4
FNH:4
DA:10,27
DA:19,60
DA:23,60
DA:25,2
DA:28,58
DA:31,2
DA:32,2
DA:33,2
DA:34,2
DA:35,2
DA:39,56
DA:40,56
DA:41,56
DA:42,56
DA:45,56
DA:46,55
DA:47,3
DA:50,53
DA:51,53
DA:52,1
DA:53,1
DA:55,52
DA:56,10
DA:58,42
DA:59,42
DA:60,1
DA:62,41
DA:65,41
DA:66,41
DA:67,1
DA:68,1
DA:70,40
DA:73,40
DA:74,40
DA:77,40
DA:78,39
DA:81,40
DA:90,62
DA:94,62
DA:95,2
DA:97,60
DA:98,60
DA:99,60
DA:102,60
DA:103,56
DA:104,44
DA:106,19
DA:108,41
DA:110,2
DA:120,39
DA:122,9
DA:124,30
DA:126,10
DA:128,20
DA:130,18
DA:133,2
DA:141,60
DA:144,60
DA:145,6
DA:147,54
DA:148,54
DA:151,54
DA:152,10
DA:155,44
DA:157,7
DA:158,4
DA:160,3
DA:164,41
DA:167,41
DA:168,10
DA:171,31
DA:172,4
DA:176,27
DA:178,27
DA:181,27
DA:182,27
DA:184,27
LF:77
LH:77
end_of_record
TN:
SF:C:/Projects/GoogleTestProject/arbitration.c
FN:16,Arbitration
FNDA:62,Arbitration
FNF:1
FNH:1
DA:16,62
DA:22,62
DA:23,2
DA:25,60
DA:28,60
DA:31,11
DA:36,49
DA:40,60
DA:41,60
DA:43,60
DA:46,23
DA:47,23
DA:48,23
DA:49,23
DA:50,23
DA:52,37
DA:55,19
DA:56,19
DA:57,19
DA:58,19
DA:59,19
DA:64,18
DA:65,18
DA:69,60
DA:70,60
DA:71,60
DA:74,60
DA:75,60
DA:76,60
LF:29
LH:29
end_of_record
TN:
SF:C:/Projects/GoogleTestProject/ego_vehicle_estimation.c
FN:27,Invert2x2
FNDA:60,Invert2x2
FN:40,CheckSpike
FNDA:809,CheckSpike
FN:50,EgoVehicleEstimation
FNDA:165,EgoVehicleEstimation
FN:252,InitEgoVehicleKFState
FNDA:196,InitEgoVehicleKFState
FNF:4
FNH:4
DA:27,60
DA:29,60
DA:30,60
DA:31,60
DA:32,60
DA:33,60
DA:34,60
DA:35,60
DA:36,60
DA:40,809
DA:42,809
DA:43,809
DA:50,165
DA:64,165
DA:65,165
DA:66,165
DA:72,165
DA:73,165
DA:76,165
DA:77,165
DA:78,35
DA:80,165
DA:86,165
DA:87,165
DA:88,165
DA:90,165
DA:91,165
DA:94,165
DA:95,7
DA:97,165
DA:98,3
DA:100,165
DA:101,5
DA:105,314
DA:106,149
DA:107,17
DA:111,165
DA:112,165
DA:113,165
DA:114,165
DA:115,59
DA:116,59
DA:126,165
DA:127,165
DA:135,165
DA:138,165
DA:139,165
DA:140,165
DA:141,165
DA:142,165
DA:145,165
DA:146,165
DA:149,990
DA:150,4950
DA:151,4125
DA:152,24750
DA:153,20625
DA:155,4125
DA:159,990
DA:160,4950
DA:161,4125
DA:162,24750
DA:163,20625
DA:165,4125
DA:166,4125
DA:177,165
DA:178,59
DA:182,59
DA:183,59
DA:184,59
DA:187,59
DA:188,59
DA:189,59
DA:190,59
DA:193,59
DA:194,0
DA:196,59
DA:197,354
DA:198,295
DA:199,295
DA:202,354
DA:203,295
DA:207,59
DA:208,354
DA:209,295
DA:211,354
DA:212,295
DA:213,295
DA:216,59
DA:217,354
DA:218,1770
DA:219,1475
DA:220,8850
DA:221,7375
DA:223,1475
DA:226,59
DA:231,165
DA:232,106
DA:240,165
DA:242,165
DA:243,165
DA:244,165
DA:245,165
DA:246,165
DA:247,165
DA:252,196
DA:254,196
DA:255,196
DA:257,196
DA:258,196
DA:259,196
DA:260,196
DA:261,196
DA:264,5096
DA:265,4900
DA:267,1176
DA:268,980
DA:272,196
DA:273,196
DA:274,196
DA:275,196
DA:276,196
DA:277,196
LF:123
LH:122
end_of_record
TN:
SF:C:/Projects/GoogleTestProject/lfa.c
FN:38,clamp540
FNDA:92,clamp540
FN:46,lfa_pid_reset
FNDA:76,lfa_pid_reset
FN:52,pid_set_gains
FNDA:69,pid_set_gains
FN:59,lfa_mode_selection
FNDA:33,lfa_mode_selection
FN:70,calculate_steer_in_low_speed_pid
FNDA:69,calculate_steer_in_low_speed_pid
FN:140,calculate_steer_in_high_speed_stanley
FNDA:66,calculate_steer_in_high_speed_stanley
FN:180,lfa_output_selection
FNDA:61,lfa_output_selection
FNF:7
FNH:7
DA:38,92
DA:40,92
DA:41,90
DA:42,90
DA:46,76
DA:48,76
DA:49,76
DA:50,76
DA:52,69
DA:54,69
DA:55,69
DA:56,69
DA:59,33
DA:61,33
DA:62,4
DA:64,29
DA:66,29
DA:70,69
DA:73,69
DA:74,5
DA:77,64
DA:78,64
DA:81,64
DA:84,64
DA:85,63
DA:88,62
DA:89,1
DA:92,1
DA:96,61
DA:97,10
DA:99,10
DA:103,51
DA:104,2
DA:106,2
DA:110,49
DA:113,49
DA:114,6
DA:115,6
DA:116,6
DA:117,1
DA:119,5
DA:123,43
DA:124,43
DA:125,38
DA:127,43
DA:130,43
DA:132,43
DA:133,3
DA:136,43
DA:140,66
DA:143,66
DA:144,2
DA:147,64
DA:148,64
DA:149,64
DA:152,64
DA:153,4
DA:155,60
DA:157,1
DA:161,59
DA:162,10
DA:164,10
DA:168,49
DA:171,49
DA:172,49
DA:173,49
DA:176,49
DA:180,61
DA:186,61
DA:188,1
DA:191,60
DA:192,60
DA:194,42
DA:198,18
DA:202,60
DA:205,10
DA:209,60
DA:212,11
DA:216,60
DA:217,60
DA:219,27
DA:221,27
DA:222,27
DA:223,27
DA:224,16
DA:227,16
DA:230,60
DA:233,60
DA:234,60
DA:236,60
LF:90
LH:90
end_of_record
TN:
SF:C:/Projects/GoogleTestProject/target_selection.c
FN:10,normalize_heading
FNDA:82,normalize_heading
FN:21,select_target_from_object_list
FNDA:90,select_target_from_object_list
FN:165,predict_object_future_path
FNDA:65,predict_object_future_path
FN:264,select_targets_for_acc_aeb
FNDA:64,select_targets_for_acc_aeb
FNF:4
FNH:4
DA:10,82
DA:12,84
DA:13,83
DA:14,82
DA:21,90
DA:28,90
DA:29,84
DA:31,6
DA:34,84
DA:37,84
DA:38,84
DA:39,84
DA:41,84
DA:43,5
DA:46,179
DA:48,97
DA:49,2
DA:51,95
DA:54,95
DA:55,3
DA:59,92
DA:60,92
DA:62,92
DA:63,92
DA:65,92
DA:66,10
DA:68,82
DA:69,0
DA:70,0
DA:74,82
DA:75,82
DA:76,82
DA:77,3
DA:80,82
DA:83,82
DA:84,8
DA:88,74
DA:89,10
DA:94,64
DA:99,82
DA:100,82
DA:101,6
DA:102,6
DA:103,6
DA:104,6
DA:109,82
DA:110,82
DA:111,51
DA:112,51
DA:114,31
DA:115,21
DA:116,21
DA:117,21
DA:120,10
DA:121,10
DA:122,10
DA:126,82
DA:127,82
DA:128,63
DA:130,19
DA:131,0
DA:134,19
DA:137,82
DA:138,82
DA:139,82
DA:142,82
DA:143,82
DA:144,82
DA:145,82
DA:146,82
DA:147,82
DA:148,82
DA:149,82
DA:150,82
DA:151,82
DA:152,82
DA:153,82
DA:154,82
DA:155,82
DA:158,84
DA:165,65
DA:172,65
DA:173,63
DA:175,4
DA:177,61
DA:178,61
DA:180,122
DA:182,61
DA:184,61
DA:187,61
DA:188,61
DA:190,61
DA:191,61
DA:192,61
DA:193,61
DA:194,61
DA:197,61
DA:198,61
DA:199,61
DA:200,61
DA:203,61
DA:204,61
DA:207,61
DA:209,51
DA:210,51
DA:214,10
DA:215,10
DA:216,10
DA:217,10
DA:220,61
DA:222,61
DA:223,61
DA:224,61
DA:225,61
DA:228,61
DA:229,61
DA:230,61
DA:231,61
DA:234,61
DA:235,61
DA:238,61
DA:239,61
DA:240,61
DA:243,61
DA:244,18
DA:246,13
DA:249,61
DA:250,22
DA:252,9
DA:257,61
DA:264,64
DA:271,64
DA:272,63
DA:275,1
DA:276,1
DA:277,1
DA:281,63
DA:282,63
DA:285,63
DA:286,63
DA:288,63
DA:289,63
DA:291,63
DA:292,63
DA:295,63
DA:298,132
DA:300,69
DA:303,69
DA:304,10
DA:306,59
DA:307,59
DA:309,59
DA:311,2
DA:316,57
DA:317,46
DA:318,41
DA:319,8
DA:321,35
DA:323,35
DA:324,35
DA:325,3
DA:326,2
DA:328,35
DA:329,34
DA:330,34
DA:335,57
DA:336,57
DA:337,57
DA:339,57
DA:341,46
DA:342,8
DA:343,40
DA:345,6
DA:346,6
DA:347,4
DA:350,11
DA:352,10
DA:355,57
DA:358,52
DA:359,52
DA:360,52
DA:361,10
DA:364,52
DA:365,52
DA:366,13
DA:368,52
DA:369,3
DA:372,52
DA:373,51
DA:374,51
DA:380,63
DA:381,32
DA:382,32
DA:383,32
DA:384,32
DA:385,32
DA:386,32
DA:387,32
DA:388,32
DA:389,32
DA:390,32
DA:391,32
DA:394,32
DA:395,3
DA:396,29
DA:397,3
DA:399,26
DA:403,63
DA:404,49
DA:405,49
DA:406,49
DA:407,49
DA:408,49
DA:409,49
DA:410,49
DA:411,49
DA:412,49
DA:413,49
DA:414,49
DA:416,49
DA:417,13
DA:418,36
DA:419,3
DA:421,33
LF:224
LH:221
end_of_record
TN:
SF:C:/Projects/GoogleTestProject/googletest/googletest/include/gtest/internal/gtest-internal.h
FN:293,_ZN7testing8internal13FloatingPointIfEC1ERKf
FNDA:0,_ZN7testing8internal13FloatingPointIfEC1ERKf
FN:315,_ZNK7testing8internal13FloatingPointIfE13exponent_bitsEv
FNDA:0,_ZNK7testing8internal13FloatingPointIfE13exponent_bitsEv
FN:318,_ZNK7testing8internal13FloatingPointIfE13fraction_bitsEv
FNDA:0,_ZNK7testing8internal13FloatingPointIfE13fraction_bitsEv
FN:324,_ZNK7testing8internal13FloatingPointIfE6is_nanEv
FNDA:0,_ZNK7testing8internal13FloatingPointIfE6is_nanEv
FN:336,_ZNK7testing8internal13FloatingPointIfE12AlmostEqualsERKS2_
FNDA:0,_ZNK7testing8internal13FloatingPointIfE12AlmostEqualsERKS2_
FN:367,_ZN7testing8internal13FloatingPointIfE24SignAndMagnitudeToBiasedERKj
FNDA:0,_ZN7testing8internal13FloatingPointIfE24SignAndMagnitudeToBiasedERKj
FN:379,_ZN7testing8internal13FloatingPointIfE38DistanceBetweenSignAndMagnitudeNumbersERKjS4_
FNDA:0,_ZN7testing8internal13FloatingPointIfE38DistanceBetweenSignAndMagnitudeNumbersERKjS4_
FN:418,_ZN7testing8internal9GetTypeIdI20AccDistancePidBVTestEEPKvv
FNDA:100,_ZN7testing8internal9GetTypeIdI20AccDistancePidBVTestEEPKvv
FN:437,_ZN7testing8internal15TestFactoryBaseD2Ev
FNDA:0,_ZN7testing8internal15TestFactoryBaseD2Ev
FN:444,_ZN7testing8internal15TestFactoryBaseC2Ev
FNDA:0,_ZN7testing8internal15TestFactoryBaseC2Ev
FN:456,_ZN7testing8internal15TestFactoryImplI43AccDistancePidBVTest_TC_ACC_DIST_BV_32_TestE10CreateTestEv
FNDA:1,_ZN7testing8internal15TestFactoryImplI43AccDistancePidBVTest_TC_ACC_DIST_BV_32_TestE10CreateTestEv
FN:456,_ZN7testing8internal15TestFactoryImplI43AccDistancePidBVTest_TC_ACC_DIST_BV_33_TestE10CreateTestEv
FNDA:1,_ZN7testing8internal15TestFactoryImplI43AccDistancePidBVTest_TC_ACC_DIST_BV_33_TestE10CreateTestEv
FN:456,_ZN7testing8internal15TestFactoryImplI43AccDistancePidBVTest_TC_ACC_DIST_BV_01_TestE10CreateTestEv
FNDA:1,_ZN7testing8internal15TestFactoryImplI43AccDistancePidBVTest_TC_ACC_DIST_BV_01_TestE10CreateTestEv
FN:456,_ZN7testing8internal15TestFactoryImplI43AccDistancePidBVTest_TC_ACC_DIST_BV_34_TestE10CreateTestEv
FNDA:1,_ZN7testing8internal15TestFactoryImplI43AccDistancePidBVTest_TC_ACC_DIST_BV_34_TestE10CreateTestEv
FN:456,_ZN7testing8internal15TestFactoryImplI43AccDistancePidBVTest_TC_ACC_DIST_BV_35_TestE10CreateTestEv
FNDA:1,_ZN7testing8internal15TestFactoryImplI43AccDistancePidBVTest_TC_ACC_DIST_BV_35_TestE10CreateTestEv
FN:456,_ZN7testing8internal15TestFactoryImplI43AccDistancePidBVTest_TC_ACC_DIST_BV_36_TestE10CreateTestEv
FNDA:1,_ZN7testing8internal15TestFactoryImplI43AccDistancePidBVTest_TC_ACC_DIST_BV_36_TestE10CreateTestEv
FN:456,_ZN7testing8internal15TestFactoryImplI43AccDistancePidBVTest_TC_ACC_DIST_BV_37_TestE10CreateTestEv
FNDA:1,_ZN7testing8internal15TestFactoryImplI43AccDistancePidBVTest_TC_ACC_DIST_BV_37_TestE10CreateTestEv
FN:456,_ZN7testing8internal15TestFactoryImplI43AccDistancePidBVTest_TC_ACC_DIST_BV_38_TestE10CreateTestEv
FNDA:1,_ZN7testing8internal15TestFactoryImplI43AccDistancePidBVTest_TC_ACC_DIST_BV_38_TestE10CreateTestEv
FN:456,_ZN7testing8internal15TestFactoryImplI43AccDistancePidBVTest_TC_ACC_DIST_BV_39_TestE10CreateTestEv
FNDA:1,_ZN7testing8internal15TestFactoryImplI43AccDistancePidBVTest_TC_ACC_DIST_BV_39_TestE10CreateTestEv
FN:456,_ZN7testing8internal15TestFactoryImplI43AccDistancePidBVTest_TC_ACC_DIST_BV_40_TestE10CreateTestEv
FNDA:1,_ZN7testing8internal15TestFactoryImplI43AccDistancePidBVTest_TC_ACC_DIST_BV_40_TestE10CreateTestEv
FN:456,_ZN7testing8internal15TestFactoryImplI43AccDistancePidBVTest_TC_ACC_DIST_BV_41_TestE10CreateTestEv
FNDA:1,_ZN7testing8internal15TestFactoryImplI43AccDistancePidBVTest_TC_ACC_DIST_BV_41_TestE10CreateTestEv
FN:456,_ZN7testing8internal15TestFactoryImplI43AccDistancePidBVTest_TC_ACC_DIST_BV_42_TestE10CreateTestEv
FNDA:1,_ZN7testing8internal15TestFactoryImplI43AccDistancePidBVTest_TC_ACC_DIST_BV_42_TestE10CreateTestEv
FN:456,_ZN7testing8internal15TestFactoryImplI43AccDistancePidBVTest_TC_ACC_DIST_BV_43_TestE10CreateTestEv
FNDA:1,_ZN7testing8internal15TestFactoryImplI43AccDistancePidBVTest_TC_ACC_DIST_BV_43_TestE10CreateTestEv
FN:456,_ZN7testing8internal15TestFactoryImplI43AccDistancePidBVTest_TC_ACC_DIST_BV_44_TestE10CreateTestEv
FNDA:1,_ZN7testing8internal15TestFactoryImplI43AccDistancePidBVTest_TC_ACC_DIST_BV_44_TestE10CreateTestEv
FN:456,_ZN7testing8internal15TestFactoryImplI43AccDistancePidBVTest_TC_ACC_DIST_BV_45_TestE10CreateTestEv
FNDA:1,_ZN7testing8internal15TestFactoryImplI43AccDistancePidBVTest_TC_ACC_DIST_BV_45_TestE10CreateTestEv
FN:456,_ZN7testing8internal15TestFactoryImplI43AccDistancePidBVTest_TC_ACC_DIST_BV_46_TestE10CreateTestEv
FNDA:1,_ZN7testing8internal15TestFactoryImplI43AccDistancePidBVTest_TC_ACC_DIST_BV_46_TestE10CreateTestEv
FN:456,_ZN7testing8internal15TestFactoryImplI43AccDistancePidBVTest_TC_ACC_DIST_BV_47_TestE10CreateTestEv
FNDA:1,_ZN7testing8internal15TestFactoryImplI43AccDistancePidBVTest_TC_ACC_DIST_BV_47_TestE10CreateTestEv
FN:456,_ZN7testing8internal15TestFactoryImplI43AccDistancePidBVTest_TC_ACC_DIST_BV_48_TestE10CreateTestEv
FNDA:1,_ZN7testing8internal15TestFactoryImplI43AccDistancePidBVTest_TC_ACC_DIST_BV_48_TestE10CreateTestEv
FN:456,_ZN7testing8internal15TestFactoryImplI43AccDistancePidBVTest_TC_ACC_DIST_BV_49_TestE10CreateTestEv
FNDA:1,_ZN7testing8internal15TestFactoryImplI43AccDistancePidBVTest_TC_ACC_DIST_BV_49_TestE10CreateTestEv
FN:456,_ZN7testing8internal15TestFactoryImplI43AccDistancePidBVTest_TC_ACC_DIST_BV_50_TestE10CreateTestEv
FNDA:1,_ZN7testing8internal15TestFactoryImplI43AccDistancePidBVTest_TC_ACC_DIST_BV_50_TestE10CreateTestEv
FN:456,_ZN7testing8internal15TestFactoryImplI43AccDistancePidBVTest_TC_ACC_DIST_BV_14_TestE10CreateTestEv
FNDA:1,_ZN7testing8internal15TestFactoryImplI43AccDistancePidBVTest_TC_ACC_DIST_BV_14_TestE10CreateTestEv
FN:456,_ZN7testing8internal15TestFactoryImplI43AccDistancePidBVTest_TC_ACC_DIST_BV_02_TestE10CreateTestEv
FNDA:1,_ZN7testing8internal15TestFactoryImplI43AccDistancePidBVTest_TC_ACC_DIST_BV_02_TestE10CreateTestEv
FN:456,_ZN7testing8internal15TestFactoryImplI43AccDistancePidBVTest_TC_ACC_DIST_BV_03_TestE10CreateTestEv
FNDA:1,_ZN7testing8internal15TestFactoryImplI43AccDistancePidBVTest_TC_ACC_DIST_BV_03_TestE10CreateTestEv
FN:456,_ZN7testing8internal15TestFactoryImplI43AccDistancePidBVTest_TC_ACC_DIST_BV_04_TestE10CreateTestEv
FNDA:1,_ZN7testing8internal15TestFactoryImplI43AccDistancePidBVTest_TC_ACC_DIST_BV_04_TestE10CreateTestEv
FN:456,_ZN7testing8internal15TestFactoryImplI43AccDistancePidBVTest_TC_ACC_DIST_BV_05_TestE10CreateTestEv
FNDA:1,_ZN7testing8internal15TestFactoryImplI43AccDistancePidBVTest_TC_ACC_DIST_BV_05_TestE10CreateTestEv
FN:456,_ZN7testing8internal15TestFactoryImplI43AccDistancePidBVTest_TC_ACC_DIST_BV_06_TestE10CreateTestEv
FNDA:1,_ZN7testing8internal15TestFactoryImplI43AccDistancePidBVTest_TC_ACC_DIST_BV_06_TestE10CreateTestEv
FN:456,_ZN7testing8internal15TestFactoryImplI43AccDistancePidBVTest_TC_ACC_DIST_BV_07_TestE10CreateTestEv
FNDA:1,_ZN7testing8internal15TestFactoryImplI43AccDistancePidBVTest_TC_ACC_DIST_BV_07_TestE10CreateTestEv
FN:456,_ZN7testing8internal15TestFactoryImplI43AccDistancePidBVTest_TC_ACC_DIST_BV_08_TestE10CreateTestEv
FNDA:1,_ZN7testing8internal15TestFactoryImplI43AccDistancePidBVTest_TC_ACC_DIST_BV_08_TestE10CreateTestEv
FN:456,_ZN7testing8internal15TestFactoryImplI43AccDistancePidBVTest_TC_ACC_DIST_BV_09_TestE10CreateTestEv
FNDA:1,_ZN7testing8internal15TestFactoryImplI43AccDistancePidBVTest_TC_ACC_DIST_BV_09_TestE10CreateTestEv
FN:456,_ZN7testing8internal15TestFactoryImplI43AccDistancePidBVTest_TC_ACC_DIST_BV_10_TestE10CreateTestEv
FNDA:1,_ZN7testing8internal15TestFactoryImplI43AccDistancePidBVTest_TC_ACC_DIST_BV_10_TestE10CreateTestEv
FN:456,_ZN7testing8internal15TestFactoryImplI43AccDistancePidBVTest_TC_ACC_DIST_BV_11_TestE10CreateTestEv
FNDA:1,_ZN7testing8internal15TestFactoryImplI43AccDistancePidBVTest_TC_ACC_DIST_BV_11_TestE10CreateTestEv
FN:456,_ZN7testing8internal15TestFactoryImplI43AccDistancePidBVTest_TC_ACC_DIST_BV_12_TestE10CreateTestEv
FNDA:1,_ZN7testing8internal15TestFactoryImplI43AccDistancePidBVTest_TC_ACC_DIST_BV_12_TestE10CreateTestEv
FN:456,_ZN7testing8internal15TestFactoryImplI43AccDistancePidBVTest_TC_ACC_DIST_BV_13_TestE10CreateTestEv
FNDA:1,_ZN7testing8internal15TestFactoryImplI43AccDistancePidBVTest_TC_ACC_DIST_BV_13_TestE10CreateTestEv
FN:456,_ZN7testing8internal15TestFactoryImplI43AccDistancePidBVTest_TC_ACC_DIST_BV_31_TestE10CreateTestEv
FNDA:1,_ZN7testing8internal15TestFactoryImplI43AccDistancePidBVTest_TC_ACC_DIST_BV_31_TestE10CreateTestEv
FN:456,_ZN7testing8internal15TestFactoryImplI43AccDistancePidBVTest_TC_ACC_DIST_BV_15_TestE10CreateTestEv
FNDA:1,_ZN7testing8internal15TestFactoryImplI43AccDistancePidBVTest_TC_ACC_DIST_BV_15_TestE10CreateTestEv
FN:456,_ZN7testing8internal15TestFactoryImplI43AccDistancePidBVTest_TC_ACC_DIST_BV_25_TestE10CreateTestEv
FNDA:1,_ZN7testing8internal15TestFactoryImplI43AccDistancePidBVTest_TC_ACC_DIST_BV_25_TestE10CreateTestEv
FN:456,_ZN7testing8internal15TestFactoryImplI43AccDistancePidBVTest_TC_ACC_DIST_BV_30_TestE10CreateTestEv
FNDA:1,_ZN7testing8internal15TestFactoryImplI43AccDistancePidBVTest_TC_ACC_DIST_BV_30_TestE10CreateTestEv
FN:456,_ZN7testing8internal15TestFactoryImplI43AccDistancePidBVTest_TC_ACC_DIST_BV_29_TestE10CreateTestEv
FNDA:1,_ZN7testing8internal15TestFactoryImplI43AccDistancePidBVTest_TC_ACC_DIST_BV_29_TestE10CreateTestEv
FN:456,_ZN7testing8internal15TestFactoryImplI43AccDistancePidBVTest_TC_ACC_DIST_BV_28_TestE10CreateTestEv
FNDA:1,_ZN7testing8internal15TestFactoryImplI43AccDistancePidBVTest_TC_ACC_DIST_BV_28_TestE10CreateTestEv
FN:456,_ZN7testing8internal15TestFactoryImplI43AccDistancePidBVTest_TC_ACC_DIST_BV_27_TestE10CreateTestEv
FNDA:1,_ZN7testing8internal15TestFactoryImplI43AccDistancePidBVTest_TC_ACC_DIST_BV_27_TestE10CreateTestEv
FN:456,_ZN7testing8internal15TestFactoryImplI43AccDistancePidBVTest_TC_ACC_DIST_BV_26_TestE10CreateTestEv
FNDA:1,_ZN7testing8internal15TestFactoryImplI43AccDistancePidBVTest_TC_ACC_DIST_BV_26_TestE10CreateTestEv
FN:456,_ZN7testing8internal15TestFactoryImplI43AccDistancePidBVTest_TC_ACC_DIST_BV_16_TestE10CreateTestEv
FNDA:1,_ZN7testing8internal15TestFactoryImplI43AccDistancePidBVTest_TC_ACC_DIST_BV_16_TestE10CreateTestEv
FN:456,_ZN7testing8internal15TestFactoryImplI43AccDistancePidBVTest_TC_ACC_DIST_BV_24_TestE10CreateTestEv
FNDA:1,_ZN7testing8internal15TestFactoryImplI43AccDistancePidBVTest_TC_ACC_DIST_BV_24_TestE10CreateTestEv
FN:456,_ZN7testing8internal15TestFactoryImplI43AccDistancePidBVTest_TC_ACC_DIST_BV_23_TestE10CreateTestEv
FNDA:1,_ZN7testing8internal15TestFactoryImplI43AccDistancePidBVTest_TC_ACC_DIST_BV_23_TestE10CreateTestEv
FN:456,_ZN7testing8internal15TestFactoryImplI43AccDistancePidBVTest_TC_ACC_DIST_BV_22_TestE10CreateTestEv
FNDA:1,_ZN7testing8internal15TestFactoryImplI43AccDistancePidBVTest_TC_ACC_DIST_BV_22_TestE10CreateTestEv
FN:456,_ZN7testing8internal15TestFactoryImplI43AccDistancePidBVTest_TC_ACC_DIST_BV_21_TestE10CreateTestEv
FNDA:1,_ZN7testing8internal15TestFactoryImplI43AccDistancePidBVTest_TC_ACC_DIST_BV_21_TestE10CreateTestEv
FN:456,_ZN7testing8internal15TestFactoryImplI43AccDistancePidBVTest_TC_ACC_DIST_BV_20_TestE10CreateTestEv
FNDA:1,_ZN7testing8internal15TestFactoryImplI43AccDistancePidBVTest_TC_ACC_DIST_BV_20_TestE10CreateTestEv
FN:456,_ZN7testing8internal15TestFactoryImplI43AccDistancePidBVTest_TC_ACC_DIST_BV_19_TestE10CreateTestEv
FNDA:1,_ZN7testing8internal15TestFactoryImplI43AccDistancePidBVTest_TC_ACC_DIST_BV_19_TestE10CreateTestEv
FN:456,_ZN7testing8internal15TestFactoryImplI43AccDistancePidBVTest_TC_ACC_DIST_BV_18_TestE10CreateTestEv
FNDA:1,_ZN7testing8internal15TestFactoryImplI43AccDistancePidBVTest_TC_ACC_DIST_BV_18_TestE10CreateTestEv
FN:456,_ZN7testing8internal15TestFactoryImplI43AccDistancePidBVTest_TC_ACC_DIST_BV_17_TestE10CreateTestEv
FNDA:1,_ZN7testing8internal15TestFactoryImplI43AccDistancePidBVTest_TC_ACC_DIST_BV_17_TestE10CreateTestEv
FN:477,_ZN7testing8internal12CodeLocationC1ENSt7__cxx1112basic_stringIcSt11char_traitsIcESaIcEEEi
FNDA:0,_ZN7testing8internal12CodeLocationC1ENSt7__cxx1112basic_stringIcSt11char_traitsIcESaIcEEEi
FN:490,_ZN7testing8internal19GetNotDefaultOrNullEPFvvES2_
FNDA:0,_ZN7testing8internal19GetNotDefaultOrNullEPFvvES2_
FN:505,_ZN7testing8internal16SuiteApiResolverI20AccDistancePidBVTestE19GetSetUpCaseOrSuiteEPKci
FNDA:100,_ZN7testing8internal16SuiteApiResolverI20AccDistancePidBVTestE19GetSetUpCaseOrSuiteEPKci
FN:526,_ZN7testing8internal16SuiteApiResolverI20AccDistancePidBVTestE22GetTearDownCaseOrSuiteEPKci
FNDA:100,_ZN7testing8internal16SuiteApiResolverI20AccDistancePidBVTestE22GetTearDownCaseOrSuiteEPKci
FNF:64
FNH:53
DA:293,0
DA:315,0
DA:318,0
DA:324,0
DA:327,0
DA:336,0
DA:339,0
DA:341,0
DA:342,0
DA:367,0
DA:368,0
DA:370,0
DA:373,0
DA:379,0
DA:381,0
DA:382,0
DA:383,0
DA:418,100
DA:423,100
DA:437,0
DA:444,0
DA:456,1
DA:456,1
DA:456,1
DA:456,1
DA:456,1
DA:456,1
DA:456,1
DA:456,1
DA:456,1
DA:456,1
DA:456,1
DA:456,1
DA:456,1
DA:456,1
DA:456,1
DA:456,1
DA:456,1
DA:456,1
DA:456,1
DA:456,1
DA:456,1
DA:456,1
DA:456,1
DA:456,1
DA:456,1
DA:456,1
DA:456,1
DA:456,1
DA:456,1
DA:456,1
DA:456,1
DA:456,1
DA:456,1
DA:456,1
DA:456,1
DA:456,1
DA:456,1
DA:456,1
DA:456,1
DA:456,1
DA:456,1
DA:456,1
DA:456,1
DA:456,1
DA:456,1
DA:456,1
DA:456,1
DA:456,1
DA:456,1
DA:456,1
DA:477,0
DA:478,0
DA:490,0
DA:492,0
DA:505,100
DA:509,100
DA:511,100
DA:513,100
DA:516,0
DA:518,100
DA:526,100
DA:530,100
DA:532,100
DA:534,100
DA:537,0
DA:539,100
LF:87
LH:62
end_of_record
SF:C:/msys64/mingw64/include/c++/14.2.0/bits/allocator.h
LF:0
LH:0
end_of_record
SF:C:/msys64/mingw64/include/c++/14.2.0/bits/stl_iterator_base_types.h
DA:240,0
LF:1
LH:0
end_of_record
SF:C:/msys64/mingw64/include/c++/14.2.0/bits/move.h
FN:70,_ZSt7forwardISt14default_deleteINSt7__cxx1112basic_stringIcSt11char_traitsIcESaIcEEEEEOT_RNSt16remove_referenceIS8_E4typeE
FNDA:0,_ZSt7forwardISt14default_deleteINSt7__cxx1112basic_stringIcSt11char_traitsIcESaIcEEEEEOT_RNSt16remove_referenceIS8_E4typeE
FN:126,_ZSt4moveIRPNSt7__cxx1112basic_stringIcSt11char_traitsIcESaIcEEEEONSt16remove_referenceIT_E4typeEOS9_
FNDA:0,_ZSt4moveIRPNSt7__cxx1112basic_stringIcSt11char_traitsIcESaIcEEEEONSt16remove_referenceIT_E4typeEOS9_
FN:126,_ZSt4moveIRPNSt7__cxx1118basic_stringstreamIcSt11char_traitsIcESaIcEEEEONSt16remove_referenceIT_E4typeEOS9_
FNDA:0,_ZSt4moveIRPNSt7__cxx1118basic_stringstreamIcSt11char_traitsIcESaIcEEEEONSt16remove_referenceIT_E4typeEOS9_
FN:126,_ZSt4moveIRSaIcEEONSt16remove_referenceIT_E4typeEOS3_
FNDA:0,_ZSt4moveIRSaIcEEONSt16remove_referenceIT_E4typeEOS3_
FN:126,_ZSt4moveIRNSt7__cxx1112basic_stringIcSt11char_traitsIcESaIcEEEEONSt16remove_referenceIT_E4typeEOS8_
FNDA:0,_ZSt4moveIRNSt7__cxx1112basic_stringIcSt11char_traitsIcESaIcEEEEONSt16remove_referenceIT_E4typeEOS8_
FNF:5
FNH:0
DA:70,0
DA:71,0
DA:126,0
DA:127,0
DA:126,0
DA:127,0
DA:126,0
DA:127,0
DA:126,0
DA:127,0
LF:10
LH:0
end_of_record
SF:C:/msys64/mingw64/include/c++/14.2.0/bits/stl_iterator_base_funcs.h
DA:106,0
DA:151,0
DA:152,0
LF:3
LH:0
end_of_record
SF:C:/msys64/mingw64/include/c++/14.2.0/x86_64-w64-mingw32/bits/c++config.h
DA:550,0
DA:606,0
LF:2
LH:0
end_of_record
SF:C:/Projects/GoogleTestProject/googletest/googletest/include/gtest/gtest.h
FN:255,_ZN7testing4Test14SetUpTestSuiteEv
FNDA:0,_ZN7testing4Test14SetUpTestSuiteEv
FN:263,_ZN7testing4Test17TearDownTestSuiteEv
FNDA:0,_ZN7testing4Test17TearDownTestSuiteEv
FN:268,_ZN7testing4Test16TearDownTestCaseEv
FNDA:0,_ZN7testing4Test16TearDownTestCaseEv
FN:269,_ZN7testing4Test13SetUpTestCaseEv
FNDA:0,_ZN7testing4Test13SetUpTestCaseEv
FN:356,_ZN7testing4Test5SetupEv
FNDA:0,_ZN7testing4Test5SetupEv
FN:1443,_ZN7testing8internal18CmpHelperOpFailureIffEENS_15AssertionResultEPKcS4_RKT_RKT0_S4_
FNDA:0,_ZN7testing8internal18CmpHelperOpFailureIffEENS_15AssertionResultEPKcS4_RKT_RKT0_S4_
FN:1474,_ZN7testing8internal11CmpHelperLEIffEENS_15AssertionResultEPKcS4_RKT_RKT0_
FNDA:0,_ZN7testing8internal11CmpHelperLEIffEENS_15AssertionResultEPKcS4_RKT_RKT0_
FN:1476,_ZN7testing8internal11CmpHelperLTIffEENS_15AssertionResultEPKcS4_RKT_RKT0_
FNDA:0,_ZN7testing8internal11CmpHelperLTIffEENS_15AssertionResultEPKcS4_RKT_RKT0_
FN:1478,_ZN7testing8internal11CmpHelperGEIffEENS_15AssertionResultEPKcS4_RKT_RKT0_
FNDA:0,_ZN7testing8internal11CmpHelperGEIffEENS_15AssertionResultEPKcS4_RKT_RKT0_
FN:1480,_ZN7testing8internal11CmpHelperGTIffEENS_15AssertionResultEPKcS4_RKT_RKT0_
FNDA:0,_ZN7testing8internal11CmpHelperGTIffEENS_15AssertionResultEPKcS4_RKT_RKT0_
FN:1582,_ZN7testing8internal24CmpHelperFloatingPointEQIfEENS_15AssertionResultEPKcS4_T_S5_
FNDA:0,_ZN7testing8internal24CmpHelperFloatingPointEQIfEENS_15AssertionResultEPKcS4_T_S5_
FNF:11
FNH:0
DA:255,0
DA:263,0
DA:268,0
DA:269,0
DA:356,0
DA:1443,0
DA:1446,0
DA:1447,0
DA:1448,0
DA:1449,0
DA:1474,0
DA:1476,0
DA:1478,0
DA:1480,0
DA:1582,0
DA:1585,0
DA:1587,0
DA:1588,0
DA:1591,0
DA:1592,0
DA:1593,0
DA:1595,0
DA:1596,0
DA:1597,0
DA:1600,0
DA:1601,0
DA:1602,0
LF:27
LH:0
end_of_record
SF:C:/msys64/mingw64/include/c++/14.2.0/cmath
FN:1126,_ZSt8isfinitef
FNDA:0,_ZSt8isfinitef
FNF:1
FNH:0
DA:1126,0
DA:1127,0
LF:2
LH:0
end_of_record
SF:C:/Projects/GoogleTestProject/googletest/googletest/include/gtest/gtest-printers.h
FN:383,_ZN7testing8internal19FormatForComparisonIffE6FormatB5cxx11ERKf
FNDA:0,_ZN7testing8internal19FormatForComparisonIffE6FormatB5cxx11ERKf
FN:463,_ZN7testing8internal33FormatForComparisonFailureMessageIffEENSt7__cxx1112basic_stringIcSt11char_traitsIcESaIcEEERKT_RKT0_
FNDA:0,_ZN7testing8internal33FormatForComparisonFailureMessageIffEENSt7__cxx1112basic_stringIcSt11char_traitsIcESaIcEEERKT_RKT0_
FN:555,_ZN7testing8internal21AppropriateResolutionIfEEiT_
FNDA:0,_ZN7testing8internal21AppropriateResolutionIfEEiT_
FN:619,_ZN7testing8internal7PrintToEfPSo
FNDA:0,_ZN7testing8internal7PrintToEfPSo
FN:874,_ZN7testing8internal16UniversalPrinterIfE5PrintERKfPSo
FNDA:0,_ZN7testing8internal16UniversalPrinterIfE5PrintERKfPSo
FN:1064,_ZN7testing8internal21UniversalTersePrinterIfE5PrintERKfPSo
FNDA:0,_ZN7testing8internal21UniversalTersePrinterIfE5PrintERKfPSo
FN:1183,_ZN7testing8internal14UniversalPrintIfEEvRKT_PSo
FNDA:0,_ZN7testing8internal14UniversalPrintIfEEvRKT_PSo
FN:1223,_ZN7testing13PrintToStringIfEENSt7__cxx1112basic_stringIcSt11char_traitsIcESaIcEEERKT_
FNDA:0,_ZN7testing13PrintToStringIfEENSt7__cxx1112basic_stringIcSt11char_traitsIcESaIcEEERKT_
FNF:8
FNH:0
DA:383,0
DA:384,0
DA:463,0
DA:465,0
DA:555,0
DA:556,0
DA:557,0
DA:563,0
DA:564,0
DA:568,0
DA:569,0
DA:570,0
DA:571,0
DA:572,0
DA:573,0
DA:574,0
DA:575,0
DA:576,0
DA:577,0
DA:578,0
DA:579,0
DA:580,0
DA:581,0
DA:582,0
DA:583,0
DA:584,0
DA:585,0
DA:586,0
DA:587,0
DA:589,0
DA:590,0
DA:593,0
DA:594,0
DA:595,0
DA:596,0
DA:597,0
DA:598,0
DA:600,0
DA:601,0
DA:603,0
DA:604,0
DA:605,0
DA:607,0
DA:608,0
DA:611,0
DA:616,0
DA:619,0
DA:620,0
DA:621,0
DA:622,0
DA:623,0
DA:624,0
DA:874,0
DA:883,0
DA:884,0
DA:1064,0
DA:1065,0
DA:1066,0
DA:1183,0
DA:1187,0
DA:1188,0
DA:1223,0
DA:1224,0
DA:1225,0
DA:1226,0
DA:1227,0
LF:66
LH:0
end_of_record
SF:C:/Projects/GoogleTestProject/googletest/googletest/include/gtest/gtest-assertion-result.h
FN:155,_ZN7testing15AssertionResultC1IbEERKT_PNSt9enable_ifIXntsrSt14is_convertibleIS2_S0_E5valueEvE4typeE
FNDA:0,_ZN7testing15AssertionResultC1IbEERKT_PNSt9enable_ifIXntsrSt14is_convertibleIS2_S0_E5valueEvE4typeE
FN:174,_ZNK7testing15AssertionResultcvbEv
FNDA:0,_ZNK7testing15AssertionResultcvbEv
FN:183,_ZNK7testing15AssertionResult7messageEv
FNDA:0,_ZNK7testing15AssertionResult7messageEv
FN:187,_ZNK7testing15AssertionResult15failure_messageEv
FNDA:0,_ZNK7testing15AssertionResult15failure_messageEv
FN:191,_ZN7testing15AssertionResultlsIA5_cEERS0_RKT_
FNDA:0,_ZN7testing15AssertionResultlsIA5_cEERS0_RKT_
FN:191,_ZN7testing15AssertionResultlsINSt7__cxx1112basic_stringIcSt11char_traitsIcESaIcEEEEERS0_RKT_
FNDA:0,_ZN7testing15AssertionResultlsINSt7__cxx1112basic_stringIcSt11char_traitsIcESaIcEEEEERS0_RKT_
FN:191,_ZN7testing15AssertionResultlsIA3_cEERS0_RKT_
FNDA:0,_ZN7testing15AssertionResultlsIA3_cEERS0_RKT_
FN:191,_ZN7testing15AssertionResultlsIPKcEERS0_RKT_
FNDA:0,_ZN7testing15AssertionResultlsIPKcEERS0_RKT_
FN:191,_ZN7testing15AssertionResultlsIA12_cEERS0_RKT_
FNDA:0,_ZN7testing15AssertionResultlsIA12_cEERS0_RKT_
FN:206,_ZN7testing15AssertionResult13AppendMessageERKNS_7MessageE
FNDA:0,_ZN7testing15AssertionResult13AppendMessageERKNS_7MessageE
FNF:10
FNH:0
DA:155,0
DA:161,0
DA:174,0
DA:183,0
DA:184,0
DA:187,0
DA:191,0
DA:192,0
DA:193,0
DA:191,0
DA:192,0
DA:193,0
DA:191,0
DA:192,0
DA:193,0
DA:191,0
DA:192,0
DA:193,0
DA:191,0
DA:192,0
DA:193,0
DA:206,0
DA:207,0
DA:208,0
DA:209,0
LF:25
LH:0
end_of_record
SF:C:/msys64/mingw64/include/c++/14.2.0/bits/basic_string.h
FN:646,_ZNSt7__cxx1112basic_stringIcSt11char_traitsIcESaIcEEC1IS3_EEPKcRKS3_
FNDA:0,_ZNSt7__cxx1112basic_stringIcSt11char_traitsIcESaIcEEC1IS3_EEPKcRKS3_
FNF:1
FNH:0
DA:360,0
DA:646,0
DA:647,0
DA:650,0
DA:651,0
DA:653,0
DA:654,0
DA:655,0
LF:8
LH:0
end_of_record
SF:C:/msys64/mingw64/include/c++/14.2.0/tuple
FN:89,_ZNSt10_Head_baseILy1ESt14default_deleteINSt7__cxx1112basic_stringIcSt11char_traitsIcESaIcEEEELb1EEC2Ev
FNDA:0,_ZNSt10_Head_baseILy1ESt14default_deleteINSt7__cxx1112basic_stringIcSt11char_traitsIcESaIcEEEELb1EEC2Ev
FN:133,_ZNSt10_Head_baseILy1ESt14default_deleteINSt7__cxx1118basic_stringstreamIcSt11char_traitsIcESaIcEEEELb1EE7_M_headERS8_
FNDA:0,_ZNSt10_Head_baseILy1ESt14default_deleteINSt7__cxx1118basic_stringstreamIcSt11char_traitsIcESaIcEEEELb1EE7_M_headERS8_
FN:133,_ZNSt10_Head_baseILy1ESt14default_deleteINSt7__cxx1112basic_stringIcSt11char_traitsIcESaIcEEEELb1EE7_M_headERS8_
FNDA:0,_ZNSt10_Head_baseILy1ESt14default_deleteINSt7__cxx1112basic_stringIcSt11char_traitsIcESaIcEEEELb1EE7_M_headERS8_
FN:198,_ZNSt10_Head_baseILy0EPNSt7__cxx1112basic_stringIcSt11char_traitsIcESaIcEEELb0EEC2Ev
FNDA:0,_ZNSt10_Head_baseILy0EPNSt7__cxx1112basic_stringIcSt11char_traitsIcESaIcEEELb0EEC2Ev
FN:242,_ZNSt10_Head_baseILy0EPNSt7__cxx1112basic_stringIcSt11char_traitsIcESaIcEEELb0EE7_M_headERS7_
FNDA:0,_ZNSt10_Head_baseILy0EPNSt7__cxx1112basic_stringIcSt11char_traitsIcESaIcEEELb0EE7_M_headERS7_
FN:242,_ZNSt10_Head_baseILy0EPNSt7__cxx1118basic_stringstreamIcSt11char_traitsIcESaIcEEELb0EE7_M_headERS7_
FNDA:0,_ZNSt10_Head_baseILy0EPNSt7__cxx1118basic_stringstreamIcSt11char_traitsIcESaIcEEELb0EE7_M_headERS7_
FN:245,_ZNSt10_Head_baseILy0EPNSt7__cxx1118basic_stringstreamIcSt11char_traitsIcESaIcEEELb0EE7_M_headERKS7_
FNDA:0,_ZNSt10_Head_baseILy0EPNSt7__cxx1118basic_stringstreamIcSt11char_traitsIcESaIcEEELb0EE7_M_headERKS7_
FN:245,_ZNSt10_Head_baseILy0EPNSt7__cxx1112basic_stringIcSt11char_traitsIcESaIcEEELb0EE7_M_headERKS7_
FNDA:0,_ZNSt10_Head_baseILy0EPNSt7__cxx1112basic_stringIcSt11char_traitsIcESaIcEEELb0EE7_M_headERKS7_
FN:293,_ZNSt11_Tuple_implILy0EJPNSt7__cxx1118basic_stringstreamIcSt11char_traitsIcESaIcEEESt14default_deleteIS5_EEE7_M_headERS9_
FNDA:0,_ZNSt11_Tuple_implILy0EJPNSt7__cxx1118basic_stringstreamIcSt11char_traitsIcESaIcEEESt14default_deleteIS5_EEE7_M_headERS9_
FN:293,_ZNSt11_Tuple_implILy0EJPNSt7__cxx1112basic_stringIcSt11char_traitsIcESaIcEEESt14default_deleteIS5_EEE7_M_headERS9_
FNDA:0,_ZNSt11_Tuple_implILy0EJPNSt7__cxx1112basic_stringIcSt11char_traitsIcESaIcEEESt14default_deleteIS5_EEE7_M_headERS9_
FN:296,_ZNSt11_Tuple_implILy0EJPNSt7__cxx1112basic_stringIcSt11char_traitsIcESaIcEEESt14default_deleteIS5_EEE7_M_headERKS9_
FNDA:0,_ZNSt11_Tuple_implILy0EJPNSt7__cxx1112basic_stringIcSt11char_traitsIcESaIcEEESt14default_deleteIS5_EEE7_M_headERKS9_
FN:296,_ZNSt11_Tuple_implILy0EJPNSt7__cxx1118basic_stringstreamIcSt11char_traitsIcESaIcEEESt14default_deleteIS5_EEE7_M_headERKS9_
FNDA:0,_ZNSt11_Tuple_implILy0EJPNSt7__cxx1118basic_stringstreamIcSt11char_traitsIcESaIcEEESt14default_deleteIS5_EEE7_M_headERKS9_
FN:304,_ZNSt11_Tuple_implILy0EJPNSt7__cxx1112basic_stringIcSt11char_traitsIcESaIcEEESt14default_deleteIS5_EEEC2Ev
FNDA:0,_ZNSt11_Tuple_implILy0EJPNSt7__cxx1112basic_stringIcSt11char_traitsIcESaIcEEESt14default_deleteIS5_EEEC2Ev
FN:556,_ZNSt11_Tuple_implILy1EJSt14default_deleteINSt7__cxx1112basic_stringIcSt11char_traitsIcESaIcEEEEEE7_M_headERS8_
FNDA:0,_ZNSt11_Tuple_implILy1EJSt14default_deleteINSt7__cxx1112basic_stringIcSt11char_traitsIcESaIcEEEEEE7_M_headERS8_
FN:556,_ZNSt11_Tuple_implILy1EJSt14default_deleteINSt7__cxx1118basic_stringstreamIcSt11char_traitsIcESaIcEEEEEE7_M_headERS8_
FNDA:0,_ZNSt11_Tuple_implILy1EJSt14default_deleteINSt7__cxx1118basic_stringstreamIcSt11char_traitsIcESaIcEEEEEE7_M_headERS8_
FN:562,_ZNSt11_Tuple_implILy1EJSt14default_deleteINSt7__cxx1112basic_stringIcSt11char_traitsIcESaIcEEEEEEC2Ev
FNDA:0,_ZNSt11_Tuple_implILy1EJSt14default_deleteINSt7__cxx1112basic_stringIcSt11char_traitsIcESaIcEEEEEEC2Ev
FN:2089,_ZNSt5tupleIJPNSt7__cxx1112basic_stringIcSt11char_traitsIcESaIcEEESt14default_deleteIS5_EEEC1ILb1ELb1EEEv
FNDA:0,_ZNSt5tupleIJPNSt7__cxx1112basic_stringIcSt11char_traitsIcESaIcEEESt14default_deleteIS5_EEEC1ILb1ELb1EEEv
FN:2427,_ZSt12__get_helperILy1ESt14default_deleteINSt7__cxx1118basic_stringstreamIcSt11char_traitsIcESaIcEEEEJEERT0_RSt11_Tuple_implIXT_EJS8_DpT1_EE
FNDA:0,_ZSt12__get_helperILy1ESt14default_deleteINSt7__cxx1118basic_stringstreamIcSt11char_traitsIcESaIcEEEEJEERT0_RSt11_Tuple_implIXT_EJS8_DpT1_EE
FN:2427,_ZSt12__get_helperILy1ESt14default_deleteINSt7__cxx1112basic_stringIcSt11char_traitsIcESaIcEEEEJEERT0_RSt11_Tuple_implIXT_EJS8_DpT1_EE
FNDA:0,_ZSt12__get_helperILy1ESt14default_deleteINSt7__cxx1112basic_stringIcSt11char_traitsIcESaIcEEEEJEERT0_RSt11_Tuple_implIXT_EJS8_DpT1_EE
FN:2427,_ZSt12__get_helperILy0EPNSt7__cxx1112basic_stringIcSt11char_traitsIcESaIcEEEJSt14default_deleteIS5_EEERT0_RSt11_Tuple_implIXT_EJS9_DpT1_EE
FNDA:0,_ZSt12__get_helperILy0EPNSt7__cxx1112basic_stringIcSt11char_traitsIcESaIcEEEJSt14default_deleteIS5_EEERT0_RSt11_Tuple_implIXT_EJS9_DpT1_EE
FN:2427,_ZSt12__get_helperILy0EPNSt7__cxx1118basic_stringstreamIcSt11char_traitsIcESaIcEEEJSt14default_deleteIS5_EEERT0_RSt11_Tuple_implIXT_EJS9_DpT1_EE
FNDA:0,_ZSt12__get_helperILy0EPNSt7__cxx1118basic_stringstreamIcSt11char_traitsIcESaIcEEEJSt14default_deleteIS5_EEERT0_RSt11_Tuple_implIXT_EJS9_DpT1_EE
FN:2432,_ZSt12__get_helperILy0EPNSt7__cxx1112basic_stringIcSt11char_traitsIcESaIcEEEJSt14default_deleteIS5_EEERKT0_RKSt11_Tuple_implIXT_EJS9_DpT1_EE
FNDA:0,_ZSt12__get_helperILy0EPNSt7__cxx1112basic_stringIcSt11char_traitsIcESaIcEEEJSt14default_deleteIS5_EEERKT0_RKSt11_Tuple_implIXT_EJS9_DpT1_EE
FN:2432,_ZSt12__get_helperILy0EPNSt7__cxx1118basic_stringstreamIcSt11char_traitsIcESaIcEEEJSt14default_deleteIS5_EEERKT0_RKSt11_Tuple_implIXT_EJS9_DpT1_EE
FNDA:0,_ZSt12__get_helperILy0EPNSt7__cxx1118basic_stringstreamIcSt11char_traitsIcESaIcEEEJSt14default_deleteIS5_EEERKT0_RKSt11_Tuple_implIXT_EJS9_DpT1_EE
FN:2443,_ZSt3getILy1EJPNSt7__cxx1112basic_stringIcSt11char_traitsIcESaIcEEESt14default_deleteIS5_EEERNSt13tuple_elementIXT_ESt5tupleIJDpT0_EEE4typeERSD_
FNDA:0,_ZSt3getILy1EJPNSt7__cxx1112basic_stringIcSt11char_traitsIcESaIcEEESt14default_deleteIS5_EEERNSt13tuple_elementIXT_ESt5tupleIJDpT0_EEE4typeERSD_
FN:2443,_ZSt3getILy0EJPNSt7__cxx1112basic_stringIcSt11char_traitsIcESaIcEEESt14default_deleteIS5_EEERNSt13tuple_elementIXT_ESt5tupleIJDpT0_EEE4typeERSD_
FNDA:0,_ZSt3getILy0EJPNSt7__cxx1112basic_stringIcSt11char_traitsIcESaIcEEESt14default_deleteIS5_EEERNSt13tuple_elementIXT_ESt5tupleIJDpT0_EEE4typeERSD_
FN:2443,_ZSt3getILy0EJPNSt7__cxx1118basic_stringstreamIcSt11char_traitsIcESaIcEEESt14default_deleteIS5_EEERNSt13tuple_elementIXT_ESt5tupleIJDpT0_EEE4typeERSD_
FNDA:0,_ZSt3getILy0EJPNSt7__cxx1118basic_stringstreamIcSt11char_traitsIcESaIcEEESt14default_deleteIS5_EEERNSt13tuple_elementIXT_ESt5tupleIJDpT0_EEE4typeERSD_
FN:2443,_ZSt3getILy1EJPNSt7__cxx1118basic_stringstreamIcSt11char_traitsIcESaIcEEESt14default_deleteIS5_EEERNSt13tuple_elementIXT_ESt5tupleIJDpT0_EEE4typeERSD_
FNDA:0,_ZSt3getILy1EJPNSt7__cxx1118basic_stringstreamIcSt11char_traitsIcESaIcEEESt14default_deleteIS5_EEERNSt13tuple_elementIXT_ESt5tupleIJDpT0_EEE4typeERSD_
FN:2449,_ZSt3getILy0EJPNSt7__cxx1118basic_stringstreamIcSt11char_traitsIcESaIcEEESt14default_deleteIS5_EEERKNSt13tuple_elementIXT_ESt5tupleIJDpT0_EEE4typeERKSD_
FNDA:0,_ZSt3getILy0EJPNSt7__cxx1118basic_stringstreamIcSt11char_traitsIcESaIcEEESt14default_deleteIS5_EEERKNSt13tuple_elementIXT_ESt5tupleIJDpT0_EEE4typeERKSD_
FN:2449,_ZSt3getILy0EJPNSt7__cxx1112basic_stringIcSt11char_traitsIcESaIcEEESt14default_deleteIS5_EEERKNSt13tuple_elementIXT_ESt5tupleIJDpT0_EEE4typeERKSD_
FNDA:0,_ZSt3getILy0EJPNSt7__cxx1112basic_stringIcSt11char_traitsIcESaIcEEESt14default_deleteIS5_EEERKNSt13tuple_elementIXT_ESt5tupleIJDpT0_EEE4typeERKSD_
FNF:29
FNH:0
DA:89,0
DA:90,0
DA:133,0
DA:133,0
DA:198,0
DA:199,0
DA:242,0
DA:242,0
DA:245,0
DA:245,0
DA:293,0
DA:293,0
DA:296,0
DA:296,0
DA:304,0
DA:305,0
DA:556,0
DA:556,0
DA:562,0
DA:563,0
DA:2089,0
DA:2091,0
DA:2427,0
DA:2428,0
DA:2427,0
DA:2428,0
DA:2427,0
DA:2428,0
DA:2427,0
DA:2428,0
DA:2432,0
DA:2433,0
DA:2432,0
DA:2433,0
DA:2443,0
DA:2444,0
DA:2443,0
DA:2444,0
DA:2443,0
DA:2444,0
DA:2443,0
DA:2444,0
DA:2449,0
DA:2450,0
DA:2449,0
DA:2450,0
LF:46
LH:0
end_of_record
SF:C:/msys64/mingw64/include/c++/14.2.0/bits/new_allocator.h
FN:104,_ZNSt15__new_allocatorIcED2Ev
FNDA:0,_ZNSt15__new_allocatorIcED2Ev
FNF:1
FNH:0
DA:104,0
LF:1
LH:0
end_of_record
SF:C:/Projects/GoogleTestProject/acc_distance_BV_test.cpp
FN:20,_ZL23resetDistancePidStaticsv
FNDA:50,_ZL23resetDistancePidStaticsv
FN:35,_ZN20AccDistancePidBVTest5SetUpEv
FNDA:50,_ZN20AccDistancePidBVTest5SetUpEv
FN:65,_ZN43AccDistancePidBVTest_TC_ACC_DIST_BV_01_TestC1Ev
FNDA:1,_ZN43AccDistancePidBVTest_TC_ACC_DIST_BV_01_TestC1Ev
FN:65,_ZN43AccDistancePidBVTest_TC_ACC_DIST_BV_01_Test8TestBodyEv
FNDA:1,_ZN43AccDistancePidBVTest_TC_ACC_DIST_BV_01_Test8TestBodyEv
FN:65,_ZN43AccDistancePidBVTest_TC_ACC_DIST_BV_01_TestD1Ev
FNDA:1,_ZN43AccDistancePidBVTest_TC_ACC_DIST_BV_01_TestD1Ev
FN:65,_ZN43AccDistancePidBVTest_TC_ACC_DIST_BV_01_TestD0Ev
FNDA:1,_ZN43AccDistancePidBVTest_TC_ACC_DIST_BV_01_TestD0Ev
FN:76,_ZN43AccDistancePidBVTest_TC_ACC_DIST_BV_02_TestC1Ev
FNDA:1,_ZN43AccDistancePidBVTest_TC_ACC_DIST_BV_02_TestC1Ev
FN:76,_ZN43AccDistancePidBVTest_TC_ACC_DIST_BV_02_Test8TestBodyEv
FNDA:1,_ZN43AccDistancePidBVTest_TC_ACC_DIST_BV_02_Test8TestBodyEv
FN:76,_ZN43AccDistancePidBVTest_TC_ACC_DIST_BV_02_TestD1Ev
FNDA:1,_ZN43AccDistancePidBVTest_TC_ACC_DIST_BV_02_TestD1Ev
FN:76,_ZN43AccDistancePidBVTest_TC_ACC_DIST_BV_02_TestD0Ev
FNDA:1,_ZN43AccDistancePidBVTest_TC_ACC_DIST_BV_02_TestD0Ev
FN:84,_ZN43AccDistancePidBVTest_TC_ACC_DIST_BV_03_TestC1Ev
FNDA:1,_ZN43AccDistancePidBVTest_TC_ACC_DIST_BV_03_TestC1Ev
FN:84,_ZN43AccDistancePidBVTest_TC_ACC_DIST_BV_03_TestD1Ev
FNDA:1,_ZN43AccDistancePidBVTest_TC_ACC_DIST_BV_03_TestD1Ev
FN:84,_ZN43AccDistancePidBVTest_TC_ACC_DIST_BV_03_Test8TestBodyEv
FNDA:1,_ZN43AccDistancePidBVTest_TC_ACC_DIST_BV_03_Test8TestBodyEv
FN:84,_ZN43AccDistancePidBVTest_TC_ACC_DIST_BV_03_TestD0Ev
FNDA:1,_ZN43AccDistancePidBVTest_TC_ACC_DIST_BV_03_TestD0Ev
FN:93,_ZN43AccDistancePidBVTest_TC_ACC_DIST_BV_04_TestD0Ev
FNDA:1,_ZN43AccDistancePidBVTest_TC_ACC_DIST_BV_04_TestD0Ev
FN:93,_ZN43AccDistancePidBVTest_TC_ACC_DIST_BV_04_TestC1Ev
FNDA:1,_ZN43AccDistancePidBVTest_TC_ACC_DIST_BV_04_TestC1Ev
FN:93,_ZN43AccDistancePidBVTest_TC_ACC_DIST_BV_04_Test8TestBodyEv
FNDA:1,_ZN43AccDistancePidBVTest_TC_ACC_DIST_BV_04_Test8TestBodyEv
FN:93,_ZN43AccDistancePidBVTest_TC_ACC_DIST_BV_04_TestD1Ev
FNDA:1,_ZN43AccDistancePidBVTest_TC_ACC_DIST_BV_04_TestD1Ev
FN:101,_ZN43AccDistancePidBVTest_TC_ACC_DIST_BV_05_TestC1Ev
FNDA:1,_ZN43AccDistancePidBVTest_TC_ACC_DIST_BV_05_TestC1Ev
FN:101,_ZN43AccDistancePidBVTest_TC_ACC_DIST_BV_05_Test8TestBodyEv
FNDA:1,_ZN43AccDistancePidBVTest_TC_ACC_DIST_BV_05_Test8TestBodyEv
FN:101,_ZN43AccDistancePidBVTest_TC_ACC_DIST_BV_05_TestD0Ev
FNDA:1,_ZN43AccDistancePidBVTest_TC_ACC_DIST_BV_05_TestD0Ev
FN:101,_ZN43AccDistancePidBVTest_TC_ACC_DIST_BV_05_TestD1Ev
FNDA:1,_ZN43AccDistancePidBVTest_TC_ACC_DIST_BV_05_TestD1Ev
FN:109,_ZN43AccDistancePidBVTest_TC_ACC_DIST_BV_06_Test8TestBodyEv
FNDA:1,_ZN43AccDistancePidBVTest_TC_ACC_DIST_BV_06_Test8TestBodyEv
FN:109,_ZN43AccDistancePidBVTest_TC_ACC_DIST_BV_06_TestD1Ev
FNDA:1,_ZN43AccDistancePidBVTest_TC_ACC_DIST_BV_06_TestD1Ev
FN:109,_ZN43AccDistancePidBVTest_TC_ACC_DIST_BV_06_TestC1Ev
FNDA:1,_ZN43AccDistancePidBVTest_TC_ACC_DIST_BV_06_TestC1Ev
FN:109,_ZN43AccDistancePidBVTest_TC_ACC_DIST_BV_06_TestD0Ev
FNDA:1,_ZN43AccDistancePidBVTest_TC_ACC_DIST_BV_06_TestD0Ev
FN:123,_ZN43AccDistancePidBVTest_TC_ACC_DIST_BV_07_TestD1Ev
FNDA:1,_ZN43AccDistancePidBVTest_TC_ACC_DIST_BV_07_TestD1Ev
FN:123,_ZN43AccDistancePidBVTest_TC_ACC_DIST_BV_07_TestD0Ev
FNDA:1,_ZN43AccDistancePidBVTest_TC_ACC_DIST_BV_07_TestD0Ev
FN:123,_ZN43AccDistancePidBVTest_TC_ACC_DIST_BV_07_TestC1Ev
FNDA:1,_ZN43AccDistancePidBVTest_TC_ACC_DIST_BV_07_TestC1Ev
FN:123,_ZN43AccDistancePidBVTest_TC_ACC_DIST_BV_07_Test8TestBodyEv
FNDA:1,_ZN43AccDistancePidBVTest_TC_ACC_DIST_BV_07_Test8TestBodyEv
FN:132,_ZN43AccDistancePidBVTest_TC_ACC_DIST_BV_08_TestC1Ev
FNDA:1,_ZN43AccDistancePidBVTest_TC_ACC_DIST_BV_08_TestC1Ev
FN:132,_ZN43AccDistancePidBVTest_TC_ACC_DIST_BV_08_TestD1Ev
FNDA:1,_ZN43AccDistancePidBVTest_TC_ACC_DIST_BV_08_TestD1Ev
FN:132,_ZN43AccDistancePidBVTest_TC_ACC_DIST_BV_08_TestD0Ev
FNDA:1,_ZN43AccDistancePidBVTest_TC_ACC_DIST_BV_08_TestD0Ev
FN:132,_ZN43AccDistancePidBVTest_TC_ACC_DIST_BV_08_Test8TestBodyEv
FNDA:1,_ZN43AccDistancePidBVTest_TC_ACC_DIST_BV_08_Test8TestBodyEv
FN:145,_ZN43AccDistancePidBVTest_TC_ACC_DIST_BV_09_TestC1Ev
FNDA:1,_ZN43AccDistancePidBVTest_TC_ACC_DIST_BV_09_TestC1Ev
FN:145,_ZN43AccDistancePidBVTest_TC_ACC_DIST_BV_09_TestD1Ev
FNDA:1,_ZN43AccDistancePidBVTest_TC_ACC_DIST_BV_09_TestD1Ev
FN:145,_ZN43AccDistancePidBVTest_TC_ACC_DIST_BV_09_TestD0Ev
FNDA:1,_ZN43AccDistancePidBVTest_TC_ACC_DIST_BV_09_TestD0Ev
FN:145,_ZN43AccDistancePidBVTest_TC_ACC_DIST_BV_09_Test8TestBodyEv
FNDA:1,_ZN43AccDistancePidBVTest_TC_ACC_DIST_BV_09_Test8TestBodyEv
FN:154,_ZN43AccDistancePidBVTest_TC_ACC_DIST_BV_10_TestD1Ev
FNDA:1,_ZN43AccDistancePidBVTest_TC_ACC_DIST_BV_10_TestD1Ev
FN:154,_ZN43AccDistancePidBVTest_TC_ACC_DIST_BV_10_TestC1Ev
FNDA:1,_ZN43AccDistancePidBVTest_TC_ACC_DIST_BV_10_TestC1Ev
FN:154,_ZN43AccDistancePidBVTest_TC_ACC_DIST_BV_10_TestD0Ev
FNDA:1,_ZN43AccDistancePidBVTest_TC_ACC_DIST_BV_10_TestD0Ev
FN:154,_ZN43AccDistancePidBVTest_TC_ACC_DIST_BV_10_Test8TestBodyEv
FNDA:1,_ZN43AccDistancePidBVTest_TC_ACC_DIST_BV_10_Test8TestBodyEv
FN:162,_ZN43AccDistancePidBVTest_TC_ACC_DIST_BV_11_TestD0Ev
FNDA:1,_ZN43AccDistancePidBVTest_TC_ACC_DIST_BV_11_TestD0Ev
FN:162,_ZN43AccDistancePidBVTest_TC_ACC_DIST_BV_11_TestD1Ev
FNDA:1,_ZN43AccDistancePidBVTest_TC_ACC_DIST_BV_11_TestD1Ev
FN:162,_ZN43AccDistancePidBVTest_TC_ACC_DIST_BV_11_Test8TestBodyEv
FNDA:1,_ZN43AccDistancePidBVTest_TC_ACC_DIST_BV_11_Test8TestBodyEv
FN:162,_ZN43AccDistancePidBVTest_TC_ACC_DIST_BV_11_TestC1Ev
FNDA:1,_ZN43AccDistancePidBVTest_TC_ACC_DIST_BV_11_TestC1Ev
FN:170,_ZN43AccDistancePidBVTest_TC_ACC_DIST_BV_12_TestC1Ev
FNDA:1,_ZN43AccDistancePidBVTest_TC_ACC_DIST_BV_12_TestC1Ev
FN:170,_ZN43AccDistancePidBVTest_TC_ACC_DIST_BV_12_TestD0Ev
FNDA:1,_ZN43AccDistancePidBVTest_TC_ACC_DIST_BV_12_TestD0Ev
FN:170,_ZN43AccDistancePidBVTest_TC_ACC_DIST_BV_12_TestD1Ev
FNDA:1,_ZN43AccDistancePidBVTest_TC_ACC_DIST_BV_12_TestD1Ev
FN:170,_ZN43AccDistancePidBVTest_TC_ACC_DIST_BV_12_Test8TestBodyEv
FNDA:1,_ZN43AccDistancePidBVTest_TC_ACC_DIST_BV_12_Test8TestBodyEv
FN:179,_ZN43AccDistancePidBVTest_TC_ACC_DIST_BV_13_TestC1Ev
FNDA:1,_ZN43AccDistancePidBVTest_TC_ACC_DIST_BV_13_TestC1Ev
FN:179,_ZN43AccDistancePidBVTest_TC_ACC_DIST_BV_13_Test8TestBodyEv
FNDA:1,_ZN43AccDistancePidBVTest_TC_ACC_DIST_BV_13_Test8TestBodyEv
FN:179,_ZN43AccDistancePidBVTest_TC_ACC_DIST_BV_13_TestD1Ev
FNDA:1,_ZN43AccDistancePidBVTest_TC_ACC_DIST_BV_13_TestD1Ev
FN:179,_ZN43AccDistancePidBVTest_TC_ACC_DIST_BV_13_TestD0Ev
FNDA:1,_ZN43AccDistancePidBVTest_TC_ACC_DIST_BV_13_TestD0Ev
FN:191,_ZN43AccDistancePidBVTest_TC_ACC_DIST_BV_14_TestC1Ev
FNDA:1,_ZN43AccDistancePidBVTest_TC_ACC_DIST_BV_14_TestC1Ev
FN:191,_ZN43AccDistancePidBVTest_TC_ACC_DIST_BV_14_Test8TestBodyEv
FNDA:1,_ZN43AccDistancePidBVTest_TC_ACC_DIST_BV_14_Test8TestBodyEv
FN:191,_ZN43AccDistancePidBVTest_TC_ACC_DIST_BV_14_TestD1Ev
FNDA:1,_ZN43AccDistancePidBVTest_TC_ACC_DIST_BV_14_TestD1Ev
FN:191,_ZN43AccDistancePidBVTest_TC_ACC_DIST_BV_14_TestD0Ev
FNDA:1,_ZN43AccDistancePidBVTest_TC_ACC_DIST_BV_14_TestD0Ev
FN:199,_ZN43AccDistancePidBVTest_TC_ACC_DIST_BV_15_TestD1Ev
FNDA:1,_ZN43AccDistancePidBVTest_TC_ACC_DIST_BV_15_TestD1Ev
FN:199,_ZN43AccDistancePidBVTest_TC_ACC_DIST_BV_15_Test8TestBodyEv
FNDA:1,_ZN43AccDistancePidBVTest_TC_ACC_DIST_BV_15_Test8TestBodyEv
FN:199,_ZN43AccDistancePidBVTest_TC_ACC_DIST_BV_15_TestD0Ev
FNDA:1,_ZN43AccDistancePidBVTest_TC_ACC_DIST_BV_15_TestD0Ev
FN:199,_ZN43AccDistancePidBVTest_TC_ACC_DIST_BV_15_TestC1Ev
FNDA:1,_ZN43AccDistancePidBVTest_TC_ACC_DIST_BV_15_TestC1Ev
FN:207,_ZN43AccDistancePidBVTest_TC_ACC_DIST_BV_16_TestC1Ev
FNDA:1,_ZN43AccDistancePidBVTest_TC_ACC_DIST_BV_16_TestC1Ev
FN:207,_ZN43AccDistancePidBVTest_TC_ACC_DIST_BV_16_TestD1Ev
FNDA:1,_ZN43AccDistancePidBVTest_TC_ACC_DIST_BV_16_TestD1Ev
FN:207,_ZN43AccDistancePidBVTest_TC_ACC_DIST_BV_16_TestD0Ev
FNDA:1,_ZN43AccDistancePidBVTest_TC_ACC_DIST_BV_16_TestD0Ev
FN:207,_ZN43AccDistancePidBVTest_TC_ACC_DIST_BV_16_Test8TestBodyEv
FNDA:1,_ZN43AccDistancePidBVTest_TC_ACC_DIST_BV_16_Test8TestBodyEv
FN:216,_ZN43AccDistancePidBVTest_TC_ACC_DIST_BV_17_Test8TestBodyEv
FNDA:1,_ZN43AccDistancePidBVTest_TC_ACC_DIST_BV_17_Test8TestBodyEv
FN:216,_ZN43AccDistancePidBVTest_TC_ACC_DIST_BV_17_TestD1Ev
FNDA:1,_ZN43AccDistancePidBVTest_TC_ACC_DIST_BV_17_TestD1Ev
FN:216,_ZN43AccDistancePidBVTest_TC_ACC_DIST_BV_17_TestD0Ev
FNDA:1,_ZN43AccDistancePidBVTest_TC_ACC_DIST_BV_17_TestD0Ev
FN:216,_ZN43AccDistancePidBVTest_TC_ACC_DIST_BV_17_TestC1Ev
FNDA:1,_ZN43AccDistancePidBVTest_TC_ACC_DIST_BV_17_TestC1Ev
FN:224,_ZN43AccDistancePidBVTest_TC_ACC_DIST_BV_18_Test8TestBodyEv
FNDA:1,_ZN43AccDistancePidBVTest_TC_ACC_DIST_BV_18_Test8TestBodyEv
FN:224,_ZN43AccDistancePidBVTest_TC_ACC_DIST_BV_18_TestD1Ev
FNDA:1,_ZN43AccDistancePidBVTest_TC_ACC_DIST_BV_18_TestD1Ev
FN:224,_ZN43AccDistancePidBVTest_TC_ACC_DIST_BV_18_TestC1Ev
FNDA:1,_ZN43AccDistancePidBVTest_TC_ACC_DIST_BV_18_TestC1Ev
FN:224,_ZN43AccDistancePidBVTest_TC_ACC_DIST_BV_18_TestD0Ev
FNDA:1,_ZN43AccDistancePidBVTest_TC_ACC_DIST_BV_18_TestD0Ev
FN:234,_ZN43AccDistancePidBVTest_TC_ACC_DIST_BV_19_Test8TestBodyEv
FNDA:1,_ZN43AccDistancePidBVTest_TC_ACC_DIST_BV_19_Test8TestBodyEv
FN:234,_ZN43AccDistancePidBVTest_TC_ACC_DIST_BV_19_TestD1Ev
FNDA:1,_ZN43AccDistancePidBVTest_TC_ACC_DIST_BV_19_TestD1Ev
FN:234,_ZN43AccDistancePidBVTest_TC_ACC_DIST_BV_19_TestD0Ev
FNDA:1,_ZN43AccDistancePidBVTest_TC_ACC_DIST_BV_19_TestD0Ev
FN:234,_ZN43AccDistancePidBVTest_TC_ACC_DIST_BV_19_TestC1Ev
FNDA:1,_ZN43AccDistancePidBVTest_TC_ACC_DIST_BV_19_TestC1Ev
FN:244,_ZN43AccDistancePidBVTest_TC_ACC_DIST_BV_20_Test8TestBodyEv
FNDA:1,_ZN43AccDistancePidBVTest_TC_ACC_DIST_BV_20_Test8TestBodyEv
FN:244,_ZN43AccDistancePidBVTest_TC_ACC_DIST_BV_20_TestC1Ev
FNDA:1,_ZN43AccDistancePidBVTest_TC_ACC_DIST_BV_20_TestC1Ev
FN:244,_ZN43AccDistancePidBVTest_TC_ACC_DIST_BV_20_TestD0Ev
FNDA:1,_ZN43AccDistancePidBVTest_TC_ACC_DIST_BV_20_TestD0Ev
FN:244,_ZN43AccDistancePidBVTest_TC_ACC_DIST_BV_20_TestD1Ev
FNDA:1,_ZN43AccDistancePidBVTest_TC_ACC_DIST_BV_20_TestD1Ev
FN:253,_ZN43AccDistancePidBVTest_TC_ACC_DIST_BV_21_TestD1Ev
FNDA:1,_ZN43AccDistancePidBVTest_TC_ACC_DIST_BV_21_TestD1Ev
FN:253,_ZN43AccDistancePidBVTest_TC_ACC_DIST_BV_21_TestD0Ev
FNDA:1,_ZN43AccDistancePidBVTest_TC_ACC_DIST_BV_21_TestD0Ev
FN:253,_ZN43AccDistancePidBVTest_TC_ACC_DIST_BV_21_TestC1Ev
FNDA:1,_ZN43AccDistancePidBVTest_TC_ACC_DIST_BV_21_TestC1Ev
FN:253,_ZN43AccDistancePidBVTest_TC_ACC_DIST_BV_21_Test8TestBodyEv
FNDA:1,_ZN43AccDistancePidBVTest_TC_ACC_DIST_BV_21_Test8TestBodyEv
FN:262,_ZN43AccDistancePidBVTest_TC_ACC_DIST_BV_22_TestD0Ev
FNDA:1,_ZN43AccDistancePidBVTest_TC_ACC_DIST_BV_22_TestD0Ev
FN:262,_ZN43AccDistancePidBVTest_TC_ACC_DIST_BV_22_TestC1Ev
FNDA:1,_ZN43AccDistancePidBVTest_TC_ACC_DIST_BV_22_TestC1Ev
FN:262,_ZN43AccDistancePidBVTest_TC_ACC_DIST_BV_22_Test8TestBodyEv
FNDA:1,_ZN43AccDistancePidBVTest_TC_ACC_DIST_BV_22_Test8TestBodyEv
FN:262,_ZN43AccDistancePidBVTest_TC_ACC_DIST_BV_22_TestD1Ev
FNDA:1,_ZN43AccDistancePidBVTest_TC_ACC_DIST_BV_22_TestD1Ev
FN:271,_ZN43AccDistancePidBVTest_TC_ACC_DIST_BV_23_TestD0Ev
FNDA:1,_ZN43AccDistancePidBVTest_TC_ACC_DIST_BV_23_TestD0Ev
FN:271,_ZN43AccDistancePidBVTest_TC_ACC_DIST_BV_23_TestD1Ev
FNDA:1,_ZN43AccDistancePidBVTest_TC_ACC_DIST_BV_23_TestD1Ev
FN:271,_ZN43AccDistancePidBVTest_TC_ACC_DIST_BV_23_Test8TestBodyEv
FNDA:1,_ZN43AccDistancePidBVTest_TC_ACC_DIST_BV_23_Test8TestBodyEv
FN:271,_ZN43AccDistancePidBVTest_TC_ACC_DIST_BV_23_TestC1Ev
FNDA:1,_ZN43AccDistancePidBVTest_TC_ACC_DIST_BV_23_TestC1Ev
FN:282,_ZN43AccDistancePidBVTest_TC_ACC_DIST_BV_24_TestD1Ev
FNDA:1,_ZN43AccDistancePidBVTest_TC_ACC_DIST_BV_24_TestD1Ev
FN:282,_ZN43AccDistancePidBVTest_TC_ACC_DIST_BV_24_TestC1Ev
FNDA:1,_ZN43AccDistancePidBVTest_TC_ACC_DIST_BV_24_TestC1Ev
FN:282,_ZN43AccDistancePidBVTest_TC_ACC_DIST_BV_24_TestD0Ev
FNDA:1,_ZN43AccDistancePidBVTest_TC_ACC_DIST_BV_24_TestD0Ev
FN:282,_ZN43AccDistancePidBVTest_TC_ACC_DIST_BV_24_Test8TestBodyEv
FNDA:1,_ZN43AccDistancePidBVTest_TC_ACC_DIST_BV_24_Test8TestBodyEv
FN:291,_ZN43AccDistancePidBVTest_TC_ACC_DIST_BV_25_TestD0Ev
FNDA:1,_ZN43AccDistancePidBVTest_TC_ACC_DIST_BV_25_TestD0Ev
FN:291,_ZN43AccDistancePidBVTest_TC_ACC_DIST_BV_25_TestD1Ev
FNDA:1,_ZN43AccDistancePidBVTest_TC_ACC_DIST_BV_25_TestD1Ev
FN:291,_ZN43AccDistancePidBVTest_TC_ACC_DIST_BV_25_Test8TestBodyEv
FNDA:1,_ZN43AccDistancePidBVTest_TC_ACC_DIST_BV_25_Test8TestBodyEv
FN:291,_ZN43AccDistancePidBVTest_TC_ACC_DIST_BV_25_TestC1Ev
FNDA:1,_ZN43AccDistancePidBVTest_TC_ACC_DIST_BV_25_TestC1Ev
FN:300,_ZN43AccDistancePidBVTest_TC_ACC_DIST_BV_26_TestD0Ev
FNDA:1,_ZN43AccDistancePidBVTest_TC_ACC_DIST_BV_26_TestD0Ev
FN:300,_ZN43AccDistancePidBVTest_TC_ACC_DIST_BV_26_TestD1Ev
FNDA:1,_ZN43AccDistancePidBVTest_TC_ACC_DIST_BV_26_TestD1Ev
FN:300,_ZN43AccDistancePidBVTest_TC_ACC_DIST_BV_26_Test8TestBodyEv
FNDA:1,_ZN43AccDistancePidBVTest_TC_ACC_DIST_BV_26_Test8TestBodyEv
FN:300,_ZN43AccDistancePidBVTest_TC_ACC_DIST_BV_26_TestC1Ev
FNDA:1,_ZN43AccDistancePidBVTest_TC_ACC_DIST_BV_26_TestC1Ev
FN:308,_ZN43AccDistancePidBVTest_TC_ACC_DIST_BV_27_TestD1Ev
FNDA:1,_ZN43AccDistancePidBVTest_TC_ACC_DIST_BV_27_TestD1Ev
FN:308,_ZN43AccDistancePidBVTest_TC_ACC_DIST_BV_27_Test8TestBodyEv
FNDA:1,_ZN43AccDistancePidBVTest_TC_ACC_DIST_BV_27_Test8TestBodyEv
FN:308,_ZN43AccDistancePidBVTest_TC_ACC_DIST_BV_27_TestC1Ev
FNDA:1,_ZN43AccDistancePidBVTest_TC_ACC_DIST_BV_27_TestC1Ev
FN:308,_ZN43AccDistancePidBVTest_TC_ACC_DIST_BV_27_TestD0Ev
FNDA:1,_ZN43AccDistancePidBVTest_TC_ACC_DIST_BV_27_TestD0Ev
FN:317,_ZN43AccDistancePidBVTest_TC_ACC_DIST_BV_28_Test8TestBodyEv
FNDA:1,_ZN43AccDistancePidBVTest_TC_ACC_DIST_BV_28_Test8TestBodyEv
FN:317,_ZN43AccDistancePidBVTest_TC_ACC_DIST_BV_28_TestC1Ev
FNDA:1,_ZN43AccDistancePidBVTest_TC_ACC_DIST_BV_28_TestC1Ev
FN:317,_ZN43AccDistancePidBVTest_TC_ACC_DIST_BV_28_TestD0Ev
FNDA:1,_ZN43AccDistancePidBVTest_TC_ACC_DIST_BV_28_TestD0Ev
FN:317,_ZN43AccDistancePidBVTest_TC_ACC_DIST_BV_28_TestD1Ev
FNDA:1,_ZN43AccDistancePidBVTest_TC_ACC_DIST_BV_28_TestD1Ev
FN:329,_ZN43AccDistancePidBVTest_TC_ACC_DIST_BV_29_Test8TestBodyEv
FNDA:1,_ZN43AccDistancePidBVTest_TC_ACC_DIST_BV_29_Test8TestBodyEv
FN:329,_ZN43AccDistancePidBVTest_TC_ACC_DIST_BV_29_TestC1Ev
FNDA:1,_ZN43AccDistancePidBVTest_TC_ACC_DIST_BV_29_TestC1Ev
FN:329,_ZN43AccDistancePidBVTest_TC_ACC_DIST_BV_29_TestD0Ev
FNDA:1,_ZN43AccDistancePidBVTest_TC_ACC_DIST_BV_29_TestD0Ev
FN:329,_ZN43AccDistancePidBVTest_TC_ACC_DIST_BV_29_TestD1Ev
FNDA:1,_ZN43AccDistancePidBVTest_TC_ACC_DIST_BV_29_TestD1Ev
FN:341,_ZN43AccDistancePidBVTest_TC_ACC_DIST_BV_30_TestD1Ev
FNDA:1,_ZN43AccDistancePidBVTest_TC_ACC_DIST_BV_30_TestD1Ev
FN:341,_ZN43AccDistancePidBVTest_TC_ACC_DIST_BV_30_Test8TestBodyEv
FNDA:1,_ZN43AccDistancePidBVTest_TC_ACC_DIST_BV_30_Test8TestBodyEv
FN:341,_ZN43AccDistancePidBVTest_TC_ACC_DIST_BV_30_TestC1Ev
FNDA:1,_ZN43AccDistancePidBVTest_TC_ACC_DIST_BV_30_TestC1Ev
FN:341,_ZN43AccDistancePidBVTest_TC_ACC_DIST_BV_30_TestD0Ev
FNDA:1,_ZN43AccDistancePidBVTest_TC_ACC_DIST_BV_30_TestD0Ev
FN:352,_ZN43AccDistancePidBVTest_TC_ACC_DIST_BV_31_Test8TestBodyEv
FNDA:1,_ZN43AccDistancePidBVTest_TC_ACC_DIST_BV_31_Test8TestBodyEv
FN:352,_ZN43AccDistancePidBVTest_TC_ACC_DIST_BV_31_TestD0Ev
FNDA:1,_ZN43AccDistancePidBVTest_TC_ACC_DIST_BV_31_TestD0Ev
FN:352,_ZN43AccDistancePidBVTest_TC_ACC_DIST_BV_31_TestD1Ev
FNDA:1,_ZN43AccDistancePidBVTest_TC_ACC_DIST_BV_31_TestD1Ev
FN:352,_ZN43AccDistancePidBVTest_TC_ACC_DIST_BV_31_TestC1Ev
FNDA:1,_ZN43AccDistancePidBVTest_TC_ACC_DIST_BV_31_TestC1Ev
FN:362,_ZN43AccDistancePidBVTest_TC_ACC_DIST_BV_32_TestD1Ev
FNDA:1,_ZN43AccDistancePidBVTest_TC_ACC_DIST_BV_32_TestD1Ev
FN:362,_ZN43AccDistancePidBVTest_TC_ACC_DIST_BV_32_Test8TestBodyEv
FNDA:1,_ZN43AccDistancePidBVTest_TC_ACC_DIST_BV_32_Test8TestBodyEv
FN:362,_ZN43AccDistancePidBVTest_TC_ACC_DIST_BV_32_TestC1Ev
FNDA:1,_ZN43AccDistancePidBVTest_TC_ACC_DIST_BV_32_TestC1Ev
FN:362,_ZN43AccDistancePidBVTest_TC_ACC_DIST_BV_32_TestD0Ev
FNDA:1,_ZN43AccDistancePidBVTest_TC_ACC_DIST_BV_32_TestD0Ev
FN:372,_ZN43AccDistancePidBVTest_TC_ACC_DIST_BV_33_Test8TestBodyEv
FNDA:1,_ZN43AccDistancePidBVTest_TC_ACC_DIST_BV_33_Test8TestBodyEv
FN:372,_ZN43AccDistancePidBVTest_TC_ACC_DIST_BV_33_TestD1Ev
FNDA:1,_ZN43AccDistancePidBVTest_TC_ACC_DIST_BV_33_TestD1Ev
FN:372,_ZN43AccDistancePidBVTest_TC_ACC_DIST_BV_33_TestD0Ev
FNDA:1,_ZN43AccDistancePidBVTest_TC_ACC_DIST_BV_33_TestD0Ev
FN:372,_ZN43AccDistancePidBVTest_TC_ACC_DIST_BV_33_TestC1Ev
FNDA:1,_ZN43AccDistancePidBVTest_TC_ACC_DIST_BV_33_TestC1Ev
FN:380,_ZN43AccDistancePidBVTest_TC_ACC_DIST_BV_34_TestD0Ev
FNDA:1,_ZN43AccDistancePidBVTest_TC_ACC_DIST_BV_34_TestD0Ev
FN:380,_ZN43AccDistancePidBVTest_TC_ACC_DIST_BV_34_TestC1Ev
FNDA:1,_ZN43AccDistancePidBVTest_TC_ACC_DIST_BV_34_TestC1Ev
FN:380,_ZN43AccDistancePidBVTest_TC_ACC_DIST_BV_34_TestD1Ev
FNDA:1,_ZN43AccDistancePidBVTest_TC_ACC_DIST_BV_34_TestD1Ev
FN:380,_ZN43AccDistancePidBVTest_TC_ACC_DIST_BV_34_Test8TestBodyEv
FNDA:1,_ZN43AccDistancePidBVTest_TC_ACC_DIST_BV_34_Test8TestBodyEv
FN:388,_ZN43AccDistancePidBVTest_TC_ACC_DIST_BV_35_TestD0Ev
FNDA:1,_ZN43AccDistancePidBVTest_TC_ACC_DIST_BV_35_TestD0Ev
FN:388,_ZN43AccDistancePidBVTest_TC_ACC_DIST_BV_35_TestD1Ev
FNDA:1,_ZN43AccDistancePidBVTest_TC_ACC_DIST_BV_35_TestD1Ev
FN:388,_ZN43AccDistancePidBVTest_TC_ACC_DIST_BV_35_TestC1Ev
FNDA:1,_ZN43AccDistancePidBVTest_TC_ACC_DIST_BV_35_TestC1Ev
FN:388,_ZN43AccDistancePidBVTest_TC_ACC_DIST_BV_35_Test8TestBodyEv
FNDA:1,_ZN43AccDistancePidBVTest_TC_ACC_DIST_BV_35_Test8TestBodyEv
FN:397,_ZN43AccDistancePidBVTest_TC_ACC_DIST_BV_36_TestC1Ev
FNDA:1,_ZN43AccDistancePidBVTest_TC_ACC_DIST_BV_36_TestC1Ev
FN:397,_ZN43AccDistancePidBVTest_TC_ACC_DIST_BV_36_TestD0Ev
FNDA:1,_ZN43AccDistancePidBVTest_TC_ACC_DIST_BV_36_TestD0Ev
FN:397,_ZN43AccDistancePidBVTest_TC_ACC_DIST_BV_36_Test8TestBodyEv
FNDA:1,_ZN43AccDistancePidBVTest_TC_ACC_DIST_BV_36_Test8TestBodyEv
FN:397,_ZN43AccDistancePidBVTest_TC_ACC_DIST_BV_36_TestD1Ev
FNDA:1,_ZN43AccDistancePidBVTest_TC_ACC_DIST_BV_36_TestD1Ev
FN:406,_ZN43AccDistancePidBVTest_TC_ACC_DIST_BV_37_TestD0Ev
FNDA:1,_ZN43AccDistancePidBVTest_TC_ACC_DIST_BV_37_TestD0Ev
FN:406,_ZN43AccDistancePidBVTest_TC_ACC_DIST_BV_37_Test8TestBodyEv
FNDA:1,_ZN43AccDistancePidBVTest_TC_ACC_DIST_BV_37_Test8TestBodyEv
FN:406,_ZN43AccDistancePidBVTest_TC_ACC_DIST_BV_37_TestC1Ev
FNDA:1,_ZN43AccDistancePidBVTest_TC_ACC_DIST_BV_37_TestC1Ev
FN:406,_ZN43AccDistancePidBVTest_TC_ACC_DIST_BV_37_TestD1Ev
FNDA:1,_ZN43AccDistancePidBVTest_TC_ACC_DIST_BV_37_TestD1Ev
FN:419,_ZN43AccDistancePidBVTest_TC_ACC_DIST_BV_38_TestC1Ev
FNDA:1,_ZN43AccDistancePidBVTest_TC_ACC_DIST_BV_38_TestC1Ev
FN:419,_ZN43AccDistancePidBVTest_TC_ACC_DIST_BV_38_TestD1Ev
FNDA:1,_ZN43AccDistancePidBVTest_TC_ACC_DIST_BV_38_TestD1Ev
FN:419,_ZN43AccDistancePidBVTest_TC_ACC_DIST_BV_38_TestD0Ev
FNDA:1,_ZN43AccDistancePidBVTest_TC_ACC_DIST_BV_38_TestD0Ev
FN:419,_ZN43AccDistancePidBVTest_TC_ACC_DIST_BV_38_Test8TestBodyEv
FNDA:1,_ZN43AccDistancePidBVTest_TC_ACC_DIST_BV_38_Test8TestBodyEv
FN:432,_ZN43AccDistancePidBVTest_TC_ACC_DIST_BV_39_TestD0Ev
FNDA:1,_ZN43AccDistancePidBVTest_TC_ACC_DIST_BV_39_TestD0Ev
FN:432,_ZN43AccDistancePidBVTest_TC_ACC_DIST_BV_39_Test8TestBodyEv
FNDA:1,_ZN43AccDistancePidBVTest_TC_ACC_DIST_BV_39_Test8TestBodyEv
FN:432,_ZN43AccDistancePidBVTest_TC_ACC_DIST_BV_39_TestD1Ev
FNDA:1,_ZN43AccDistancePidBVTest_TC_ACC_DIST_BV_39_TestD1Ev
FN:432,_ZN43AccDistancePidBVTest_TC_ACC_DIST_BV_39_TestC1Ev
FNDA:1,_ZN43AccDistancePidBVTest_TC_ACC_DIST_BV_39_TestC1Ev
FN:443,_ZN43AccDistancePidBVTest_TC_ACC_DIST_BV_40_Test8TestBodyEv
FNDA:1,_ZN43AccDistancePidBVTest_TC_ACC_DIST_BV_40_Test8TestBodyEv
FN:443,_ZN43AccDistancePidBVTest_TC_ACC_DIST_BV_40_TestD1Ev
FNDA:1,_ZN43AccDistancePidBVTest_TC_ACC_DIST_BV_40_TestD1Ev
FN:443,_ZN43AccDistancePidBVTest_TC_ACC_DIST_BV_40_TestD0Ev
FNDA:1,_ZN43AccDistancePidBVTest_TC_ACC_DIST_BV_40_TestD0Ev
FN:443,_ZN43AccDistancePidBVTest_TC_ACC_DIST_BV_40_TestC1Ev
FNDA:1,_ZN43AccDistancePidBVTest_TC_ACC_DIST_BV_40_TestC1Ev
FN:456,_ZN43AccDistancePidBVTest_TC_ACC_DIST_BV_41_TestD1Ev
FNDA:1,_ZN43AccDistancePidBVTest_TC_ACC_DIST_BV_41_TestD1Ev
FN:456,_ZN43AccDistancePidBVTest_TC_ACC_DIST_BV_41_TestD0Ev
FNDA:1,_ZN43AccDistancePidBVTest_TC_ACC_DIST_BV_41_TestD0Ev
FN:456,_ZN43AccDistancePidBVTest_TC_ACC_DIST_BV_41_Test8TestBodyEv
FNDA:1,_ZN43AccDistancePidBVTest_TC_ACC_DIST_BV_41_Test8TestBodyEv
FN:456,_ZN43AccDistancePidBVTest_TC_ACC_DIST_BV_41_TestC1Ev
FNDA:1,_ZN43AccDistancePidBVTest_TC_ACC_DIST_BV_41_TestC1Ev
FN:468,_ZN43AccDistancePidBVTest_TC_ACC_DIST_BV_42_TestD0Ev
FNDA:1,_ZN43AccDistancePidBVTest_TC_ACC_DIST_BV_42_TestD0Ev
FN:468,_ZN43AccDistancePidBVTest_TC_ACC_DIST_BV_42_TestC1Ev
FNDA:1,_ZN43AccDistancePidBVTest_TC_ACC_DIST_BV_42_TestC1Ev
FN:468,_ZN43AccDistancePidBVTest_TC_ACC_DIST_BV_42_TestD1Ev
FNDA:1,_ZN43AccDistancePidBVTest_TC_ACC_DIST_BV_42_TestD1Ev
FN:468,_ZN43AccDistancePidBVTest_TC_ACC_DIST_BV_42_Test8TestBodyEv
FNDA:1,_ZN43AccDistancePidBVTest_TC_ACC_DIST_BV_42_Test8TestBodyEv
FN:475,_ZN43AccDistancePidBVTest_TC_ACC_DIST_BV_43_TestD0Ev
FNDA:1,_ZN43AccDistancePidBVTest_TC_ACC_DIST_BV_43_TestD0Ev
FN:475,_ZN43AccDistancePidBVTest_TC_ACC_DIST_BV_43_TestD1Ev
FNDA:1,_ZN43AccDistancePidBVTest_TC_ACC_DIST_BV_43_TestD1Ev
FN:475,_ZN43AccDistancePidBVTest_TC_ACC_DIST_BV_43_Test8TestBodyEv
FNDA:1,_ZN43AccDistancePidBVTest_TC_ACC_DIST_BV_43_Test8TestBodyEv
FN:475,_ZN43AccDistancePidBVTest_TC_ACC_DIST_BV_43_TestC1Ev
FNDA:1,_ZN43AccDistancePidBVTest_TC_ACC_DIST_BV_43_TestC1Ev
FN:483,_ZN43AccDistancePidBVTest_TC_ACC_DIST_BV_44_TestC1Ev
FNDA:1,_ZN43AccDistancePidBVTest_TC_ACC_DIST_BV_44_TestC1Ev
FN:483,_ZN43AccDistancePidBVTest_TC_ACC_DIST_BV_44_TestD1Ev
FNDA:1,_ZN43AccDistancePidBVTest_TC_ACC_DIST_BV_44_TestD1Ev
FN:483,_ZN43AccDistancePidBVTest_TC_ACC_DIST_BV_44_TestD0Ev
FNDA:1,_ZN43AccDistancePidBVTest_TC_ACC_DIST_BV_44_TestD0Ev
FN:483,_ZN43AccDistancePidBVTest_TC_ACC_DIST_BV_44_Test8TestBodyEv
FNDA:1,_ZN43AccDistancePidBVTest_TC_ACC_DIST_BV_44_Test8TestBodyEv
FN:492,_ZN43AccDistancePidBVTest_TC_ACC_DIST_BV_45_TestD1Ev
FNDA:1,_ZN43AccDistancePidBVTest_TC_ACC_DIST_BV_45_TestD1Ev
FN:492,_ZN43AccDistancePidBVTest_TC_ACC_DIST_BV_45_Test8TestBodyEv
FNDA:1,_ZN43AccDistancePidBVTest_TC_ACC_DIST_BV_45_Test8TestBodyEv
FN:492,_ZN43AccDistancePidBVTest_TC_ACC_DIST_BV_45_TestC1Ev
FNDA:1,_ZN43AccDistancePidBVTest_TC_ACC_DIST_BV_45_TestC1Ev
FN:492,_ZN43AccDistancePidBVTest_TC_ACC_DIST_BV_45_TestD0Ev
FNDA:1,_ZN43AccDistancePidBVTest_TC_ACC_DIST_BV_45_TestD0Ev
FN:500,_ZN43AccDistancePidBVTest_TC_ACC_DIST_BV_46_TestD1Ev
FNDA:1,_ZN43AccDistancePidBVTest_TC_ACC_DIST_BV_46_TestD1Ev
FN:500,_ZN43AccDistancePidBVTest_TC_ACC_DIST_BV_46_TestC1Ev
FNDA:1,_ZN43AccDistancePidBVTest_TC_ACC_DIST_BV_46_TestC1Ev
FN:500,_ZN43AccDistancePidBVTest_TC_ACC_DIST_BV_46_TestD0Ev
FNDA:1,_ZN43AccDistancePidBVTest_TC_ACC_DIST_BV_46_TestD0Ev
FN:500,_ZN43AccDistancePidBVTest_TC_ACC_DIST_BV_46_Test8TestBodyEv
FNDA:1,_ZN43AccDistancePidBVTest_TC_ACC_DIST_BV_46_Test8TestBodyEv
FN:515,_ZN43AccDistancePidBVTest_TC_ACC_DIST_BV_47_TestD0Ev
FNDA:1,_ZN43AccDistancePidBVTest_TC_ACC_DIST_BV_47_TestD0Ev
FN:515,_ZN43AccDistancePidBVTest_TC_ACC_DIST_BV_47_TestD1Ev
FNDA:1,_ZN43AccDistancePidBVTest_TC_ACC_DIST_BV_47_TestD1Ev
FN:515,_ZN43AccDistancePidBVTest_TC_ACC_DIST_BV_47_TestC1Ev
FNDA:1,_ZN43AccDistancePidBVTest_TC_ACC_DIST_BV_47_TestC1Ev
FN:515,_ZN43AccDistancePidBVTest_TC_ACC_DIST_BV_47_Test8TestBodyEv
FNDA:1,_ZN43AccDistancePidBVTest_TC_ACC_DIST_BV_47_Test8TestBodyEv
FN:539,_ZN43AccDistancePidBVTest_TC_ACC_DIST_BV_48_TestD0Ev
FNDA:1,_ZN43AccDistancePidBVTest_TC_ACC_DIST_BV_48_TestD0Ev
FN:539,_ZN43AccDistancePidBVTest_TC_ACC_DIST_BV_48_TestD1Ev
FNDA:1,_ZN43AccDistancePidBVTest_TC_ACC_DIST_BV_48_TestD1Ev
FN:539,_ZN43AccDistancePidBVTest_TC_ACC_DIST_BV_48_TestC1Ev
FNDA:1,_ZN43AccDistancePidBVTest_TC_ACC_DIST_BV_48_TestC1Ev
FN:539,_ZN43AccDistancePidBVTest_TC_ACC_DIST_BV_48_Test8TestBodyEv
FNDA:1,_ZN43AccDistancePidBVTest_TC_ACC_DIST_BV_48_Test8TestBodyEv
FN:550,_ZN43AccDistancePidBVTest_TC_ACC_DIST_BV_49_TestC1Ev
FNDA:1,_ZN43AccDistancePidBVTest_TC_ACC_DIST_BV_49_TestC1Ev
FN:550,_ZN43AccDistancePidBVTest_TC_ACC_DIST_BV_49_Test8TestBodyEv
FNDA:1,_ZN43AccDistancePidBVTest_TC_ACC_DIST_BV_49_Test8TestBodyEv
FN:550,_ZN43AccDistancePidBVTest_TC_ACC_DIST_BV_49_TestD1Ev
FNDA:1,_ZN43AccDistancePidBVTest_TC_ACC_DIST_BV_49_TestD1Ev
FN:550,_ZN43AccDistancePidBVTest_TC_ACC_DIST_BV_49_TestD0Ev
FNDA:1,_ZN43AccDistancePidBVTest_TC_ACC_DIST_BV_49_TestD0Ev
FN:562,_ZN43AccDistancePidBVTest_TC_ACC_DIST_BV_50_Test8TestBodyEv
FNDA:1,_ZN43AccDistancePidBVTest_TC_ACC_DIST_BV_50_Test8TestBodyEv
FN:562,_ZN43AccDistancePidBVTest_TC_ACC_DIST_BV_50_TestC1Ev
FNDA:1,_ZN43AccDistancePidBVTest_TC_ACC_DIST_BV_50_TestC1Ev
FN:562,_ZN43AccDistancePidBVTest_TC_ACC_DIST_BV_50_TestD1Ev
FNDA:1,_ZN43AccDistancePidBVTest_TC_ACC_DIST_BV_50_TestD1Ev
FN:562,_ZN43AccDistancePidBVTest_TC_ACC_DIST_BV_50_TestD0Ev
FNDA:1,_ZN43AccDistancePidBVTest_TC_ACC_DIST_BV_50_TestD0Ev
FNF:202
FNH:202
DA:20,50
DA:22,50
DA:23,50
DA:24,50
DA:25,50
DA:35,50
DA:38,50
DA:41,50
DA:44,50
DA:45,50
DA:46,50
DA:47,50
DA:48,50
DA:51,50
DA:52,50
DA:53,50
DA:56,50
DA:57,50
DA:65,1
DA:65,1
DA:65,1
DA:65,1
DA:70,1
DA:71,1
DA:72,1
DA:73,1
DA:76,1
DA:76,1
DA:76,1
DA:76,1
DA:78,1
DA:79,1
DA:80,1
DA:81,1
DA:84,1
DA:84,1
DA:84,1
DA:84,1
DA:87,1
DA:88,1
DA:89,1
DA:90,1
DA:93,1
DA:93,1
DA:93,1
DA:93,1
DA:95,1
DA:96,1
DA:97,1
DA:98,1
DA:101,1
DA:101,1
DA:101,1
DA:101,1
DA:103,1
DA:104,1
DA:105,1
DA:106,1
DA:109,1
DA:109,1
DA:109,1
DA:109,1
DA:111,1
DA:112,1
DA:113,1
DA:115,1
DA:116,1
DA:119,1
DA:120,1
DA:123,1
DA:123,1
DA:123,1
DA:123,1
DA:126,1
DA:128,1
DA:129,1
DA:132,1
DA:132,1
DA:132,1
DA:132,1
DA:134,1
DA:135,1
DA:136,1
DA:138,1
DA:139,1
DA:141,1
DA:142,1
DA:145,1
DA:145,1
DA:145,1
DA:145,1
DA:147,1
DA:149,1
DA:150,1
DA:151,1
DA:154,1
DA:154,1
DA:154,1
DA:154,1
DA:156,1
DA:157,1
DA:158,1
DA:159,1
DA:162,1
DA:162,1
DA:162,1
DA:162,1
DA:164,1
DA:165,1
DA:166,1
DA:167,1
DA:170,1
DA:170,1
DA:170,1
DA:170,1
DA:172,1
DA:173,1
DA:175,1
DA:176,1
DA:179,1
DA:179,1
DA:179,1
DA:179,1
DA:181,1
DA:185,1
DA:187,1
DA:188,1
DA:191,1
DA:191,1
DA:191,1
DA:191,1
DA:193,1
DA:194,1
DA:195,1
DA:196,1
DA:199,1
DA:199,1
DA:199,1
DA:199,1
DA:201,1
DA:202,1
DA:203,1
DA:204,1
DA:207,1
DA:207,1
DA:207,1
DA:207,1
DA:209,1
DA:211,1
DA:212,1
DA:213,1
DA:216,1
DA:216,1
DA:216,1
DA:216,1
DA:218,1
DA:219,1
DA:220,1
DA:221,1
DA:224,1
DA:224,1
DA:224,1
DA:224,1
DA:226,1
DA:227,1
DA:228,1
DA:231,1
DA:234,1
DA:234,1
DA:234,1
DA:234,1
DA:237,1
DA:239,1
DA:240,1
DA:241,1
DA:244,1
DA:244,1
DA:244,1
DA:244,1
DA:246,1
DA:248,1
DA:249,1
DA:250,1
DA:253,1
DA:253,1
DA:253,1
DA:253,1
DA:256,1
DA:257,1
DA:258,1
DA:259,1
DA:262,1
DA:262,1
DA:262,1
DA:262,1
DA:264,1
DA:265,1
DA:266,1
DA:267,1
DA:268,1
DA:271,1
DA:271,1
DA:271,1
DA:271,1
DA:274,1
DA:275,1
DA:276,1
DA:277,1
DA:278,1
DA:279,1
DA:282,1
DA:282,1
DA:282,1
DA:282,1
DA:286,1
DA:287,1
DA:288,1
DA:291,1
DA:291,1
DA:291,1
DA:291,1
DA:294,1
DA:295,1
DA:296,1
DA:297,1
DA:300,1
DA:300,1
DA:300,1
DA:300,1
DA:302,1
DA:303,1
DA:304,1
DA:305,1
DA:308,1
DA:308,1
DA:308,1
DA:308,1
DA:311,1
DA:312,1
DA:313,1
DA:314,1
DA:317,1
DA:317,1
DA:317,1
DA:317,1
DA:319,1
DA:320,1
DA:321,1
DA:322,1
DA:324,1
DA:325,1
DA:326,1
DA:329,1
DA:329,1
DA:329,1
DA:329,1
DA:331,1
DA:332,1
DA:333,1
DA:334,1
DA:335,1
DA:337,1
DA:338,1
DA:341,1
DA:341,1
DA:341,1
DA:341,1
DA:343,1
DA:344,1
DA:345,1
DA:346,1
DA:347,1
DA:348,1
DA:349,1
DA:352,1
DA:352,1
DA:352,1
DA:352,1
DA:355,1
DA:356,1
DA:357,1
DA:358,1
DA:359,1
DA:362,1
DA:362,1
DA:362,1
DA:362,1
DA:365,1
DA:366,1
DA:367,1
DA:368,1
DA:369,1
DA:372,1
DA:372,1
DA:372,1
DA:372,1
DA:374,1
DA:375,1
DA:376,1
DA:377,1
DA:380,1
DA:380,1
DA:380,1
DA:380,1
DA:382,1
DA:383,1
DA:384,1
DA:385,1
DA:388,1
DA:388,1
DA:388,1
DA:388,1
DA:391,1
DA:392,1
DA:393,1
DA:394,1
DA:397,1
DA:397,1
DA:397,1
DA:397,1
DA:400,1
DA:401,1
DA:402,1
DA:403,1
DA:406,1
DA:406,1
DA:406,1
DA:406,1
DA:408,1
DA:409,1
DA:410,1
DA:412,1
DA:413,1
DA:415,1
DA:416,1
DA:419,1
DA:419,1
DA:419,1
DA:419,1
DA:421,1
DA:422,1
DA:423,1
DA:425,1
DA:426,1
DA:428,1
DA:429,1
DA:432,1
DA:432,1
DA:432,1
DA:432,1
DA:435,1
DA:436,1
DA:437,1
DA:438,1
DA:439,1
DA:440,1
DA:443,1
DA:443,1
DA:443,1
DA:443,1
DA:445,1
DA:447,1
DA:448,1
DA:452,1
DA:453,1
DA:456,1
DA:456,1
DA:456,1
DA:456,1
DA:458,1
DA:459,1
DA:461,1
DA:462,1
DA:464,1
DA:465,1
DA:468,1
DA:468,1
DA:468,1
DA:468,1
DA:470,1
DA:471,1
DA:472,1
DA:475,1
DA:475,1
DA:475,1
DA:475,1
DA:477,1
DA:478,1
DA:479,1
DA:480,1
DA:483,1
DA:483,1
DA:483,1
DA:483,1
DA:485,1
DA:486,1
DA:488,1
DA:489,1
DA:492,1
DA:492,1
DA:492,1
DA:492,1
DA:494,1
DA:495,1
DA:496,1
DA:497,1
DA:500,1
DA:500,1
DA:500,1
DA:500,1
DA:502,1
DA:503,1
DA:504,1
DA:505,1
DA:507,1
DA:508,1
DA:510,1
DA:511,1
DA:512,1
DA:515,1
DA:515,1
DA:515,1
DA:515,1
DA:517,1
DA:518,1
DA:519,1
DA:520,1
DA:523,1
DA:524,1
DA:527,1
DA:528,1
DA:529,1
DA:532,1
DA:533,1
DA:534,1
DA:535,1
DA:536,1
DA:539,1
DA:539,1
DA:539,1
DA:539,1
DA:542,1
DA:543,1
DA:544,1
DA:545,1
DA:546,1
DA:547,1
DA:550,1
DA:550,1
DA:550,1
DA:550,1
DA:552,1
DA:554,1
DA:555,1
DA:558,1
DA:559,1
DA:562,1
DA:562,1
DA:562,1
DA:562,1
DA:565,1
DA:566,1
DA:569,1
DA:570,1
DA:572,1
DA:573,1
LF:466
LH:466
end_of_record
SF:C:/Projects/GoogleTestProject/googletest/googletest/include/gtest/gtest-message.h
FN:132,_ZN7testing7MessagelsIA5_cEERS0_RKT_
FNDA:0,_ZN7testing7MessagelsIA5_cEERS0_RKT_
FN:132,_ZN7testing7MessagelsINSt7__cxx1112basic_stringIcSt11char_traitsIcESaIcEEEEERS0_RKT_
FNDA:0,_ZN7testing7MessagelsINSt7__cxx1112basic_stringIcSt11char_traitsIcESaIcEEEEERS0_RKT_
FN:132,_ZN7testing7MessagelsIA3_cEERS0_RKT_
FNDA:0,_ZN7testing7MessagelsIA3_cEERS0_RKT_
FN:132,_ZN7testing7MessagelsIA12_cEERS0_RKT_
FNDA:0,_ZN7testing7MessagelsIA12_cEERS0_RKT_
FN:181,_ZN7testing7MessagelsIKcEERS0_RKPT_
FNDA:0,_ZN7testing7MessagelsIKcEERS0_RKPT_
FNF:5
FNH:0
DA:132,0
DA:148,0
DA:149,0
DA:132,0
DA:148,0
DA:149,0
DA:132,0
DA:148,0
DA:149,0
DA:132,0
DA:148,0
DA:149,0
DA:181,0
DA:182,0
DA:183,0
DA:185,0
DA:187,0
LF:17
LH:0
end_of_record
SF:C:/msys64/mingw64/include/c++/14.2.0/bits/char_traits.h
FN:136,_ZN9__gnu_cxx11char_traitsIcE2eqERKcS3_
FNDA:0,_ZN9__gnu_cxx11char_traitsIcE2eqERKcS3_
FN:199,_ZN9__gnu_cxx11char_traitsIcE6lengthEPKc
FNDA:0,_ZN9__gnu_cxx11char_traitsIcE6lengthEPKc
FN:385,_ZNSt11char_traitsIcE6lengthEPKc
FNDA:0,_ZNSt11char_traitsIcE6lengthEPKc
FN:419,_ZNSt11char_traitsIcE4copyEPcPKcy
FNDA:0,_ZNSt11char_traitsIcE4copyEPcPKcy
FNF:4
FNH:0
DA:136,0
DA:137,0
DA:199,0
DA:202,0
DA:203,0
DA:204,0
DA:205,0
DA:385,0
DA:388,0
DA:389,0
DA:391,0
DA:419,0
DA:421,0
DA:422,0
DA:427,0
LF:15
LH:0
end_of_record
SF:C:/msys64/mingw64/include/c++/14.2.0/bits/ios_base.h
FN:752,_ZNKSt8ios_base9precisionEv
FNDA:0,_ZNKSt8ios_base9precisionEv
FN:761,_ZNSt8ios_base9precisionEx
FNDA:0,_ZNSt8ios_base9precisionEx
FNF:2
FNH:0
DA:752,0
DA:753,0
DA:761,0
DA:763,0
DA:764,0
DA:765,0
LF:6
LH:0
end_of_record
SF:C:/msys64/mingw64/include/c++/14.2.0/bits/unique_ptr.h
FN:87,_ZNKSt14default_deleteINSt7__cxx1112basic_stringIcSt11char_traitsIcESaIcEEEEclEPS5_
FNDA:0,_ZNKSt14default_deleteINSt7__cxx1112basic_stringIcSt11char_traitsIcESaIcEEEEclEPS5_
FN:87,_ZNKSt14default_deleteINSt7__cxx1118basic_stringstreamIcSt11char_traitsIcESaIcEEEEclEPS5_
FNDA:0,_ZNKSt14default_deleteINSt7__cxx1118basic_stringstreamIcSt11char_traitsIcESaIcEEEEclEPS5_
FN:168,_ZNSt15__uniq_ptr_implINSt7__cxx1112basic_stringIcSt11char_traitsIcESaIcEEESt14default_deleteIS5_EEC2Ev
FNDA:0,_ZNSt15__uniq_ptr_implINSt7__cxx1112basic_stringIcSt11char_traitsIcESaIcEEESt14default_deleteIS5_EEC2Ev
FN:170,_ZNSt15__uniq_ptr_implINSt7__cxx1112basic_stringIcSt11char_traitsIcESaIcEEESt14default_deleteIS5_EEC2EPS5_
FNDA:0,_ZNSt15__uniq_ptr_implINSt7__cxx1112basic_stringIcSt11char_traitsIcESaIcEEESt14default_deleteIS5_EEC2EPS5_
FN:183,_ZNSt15__uniq_ptr_implINSt7__cxx1112basic_stringIcSt11char_traitsIcESaIcEEESt14default_deleteIS5_EEaSEOS8_
FNDA:0,_ZNSt15__uniq_ptr_implINSt7__cxx1112basic_stringIcSt11char_traitsIcESaIcEEESt14default_deleteIS5_EEaSEOS8_
FN:191,_ZNSt15__uniq_ptr_implINSt7__cxx1112basic_stringIcSt11char_traitsIcESaIcEEESt14default_deleteIS5_EE6_M_ptrEv
FNDA:0,_ZNSt15__uniq_ptr_implINSt7__cxx1112basic_stringIcSt11char_traitsIcESaIcEEESt14default_deleteIS5_EE6_M_ptrEv
FN:191,_ZNSt15__uniq_ptr_implINSt7__cxx1118basic_stringstreamIcSt11char_traitsIcESaIcEEESt14default_deleteIS5_EE6_M_ptrEv
FNDA:0,_ZNSt15__uniq_ptr_implINSt7__cxx1118basic_stringstreamIcSt11char_traitsIcESaIcEEESt14default_deleteIS5_EE6_M_ptrEv
FN:193,_ZNKSt15__uniq_ptr_implINSt7__cxx1112basic_stringIcSt11char_traitsIcESaIcEEESt14default_deleteIS5_EE6_M_ptrEv
FNDA:0,_ZNKSt15__uniq_ptr_implINSt7__cxx1112basic_stringIcSt11char_traitsIcESaIcEEESt14default_deleteIS5_EE6_M_ptrEv
FN:193,_ZNKSt15__uniq_ptr_implINSt7__cxx1118basic_stringstreamIcSt11char_traitsIcESaIcEEESt14default_deleteIS5_EE6_M_ptrEv
FNDA:0,_ZNKSt15__uniq_ptr_implINSt7__cxx1118basic_stringstreamIcSt11char_traitsIcESaIcEEESt14default_deleteIS5_EE6_M_ptrEv
FN:195,_ZNSt15__uniq_ptr_implINSt7__cxx1118basic_stringstreamIcSt11char_traitsIcESaIcEEESt14default_deleteIS5_EE10_M_deleterEv
FNDA:0,_ZNSt15__uniq_ptr_implINSt7__cxx1118basic_stringstreamIcSt11char_traitsIcESaIcEEESt14default_deleteIS5_EE10_M_deleterEv
FN:195,_ZNSt15__uniq_ptr_implINSt7__cxx1112basic_stringIcSt11char_traitsIcESaIcEEESt14default_deleteIS5_EE10_M_deleterEv
FNDA:0,_ZNSt15__uniq_ptr_implINSt7__cxx1112basic_stringIcSt11char_traitsIcESaIcEEESt14default_deleteIS5_EE10_M_deleterEv
FN:200,_ZNSt15__uniq_ptr_implINSt7__cxx1112basic_stringIcSt11char_traitsIcESaIcEEESt14default_deleteIS5_EE5resetEPS5_
FNDA:0,_ZNSt15__uniq_ptr_implINSt7__cxx1112basic_stringIcSt11char_traitsIcESaIcEEESt14default_deleteIS5_EE5resetEPS5_
FN:209,_ZNSt15__uniq_ptr_implINSt7__cxx1112basic_stringIcSt11char_traitsIcESaIcEEESt14default_deleteIS5_EE7releaseEv
FNDA:0,_ZNSt15__uniq_ptr_implINSt7__cxx1112basic_stringIcSt11char_traitsIcESaIcEEESt14default_deleteIS5_EE7releaseEv
FN:237,_ZNSt15__uniq_ptr_dataINSt7__cxx1112basic_stringIcSt11char_traitsIcESaIcEEESt14default_deleteIS5_ELb1ELb1EEaSEOS8_
FNDA:0,_ZNSt15__uniq_ptr_dataINSt7__cxx1112basic_stringIcSt11char_traitsIcESaIcEEESt14default_deleteIS5_ELb1ELb1EEaSEOS8_
FN:298,_ZNSt10unique_ptrINSt7__cxx1112basic_stringIcSt11char_traitsIcESaIcEEESt14default_deleteIS5_EEC1IS7_vEEv
FNDA:0,_ZNSt10unique_ptrINSt7__cxx1112basic_stringIcSt11char_traitsIcESaIcEEESt14default_deleteIS5_EEC1IS7_vEEv
FN:311,_ZNSt10unique_ptrINSt7__cxx1112basic_stringIcSt11char_traitsIcESaIcEEESt14default_deleteIS5_EEC1IS7_vEEPS5_
FNDA:0,_ZNSt10unique_ptrINSt7__cxx1112basic_stringIcSt11char_traitsIcESaIcEEESt14default_deleteIS5_EEC1IS7_vEEPS5_
FN:392,_ZNSt10unique_ptrINSt7__cxx1112basic_stringIcSt11char_traitsIcESaIcEEESt14default_deleteIS5_EED1Ev
FNDA:0,_ZNSt10unique_ptrINSt7__cxx1112basic_stringIcSt11char_traitsIcESaIcEEESt14default_deleteIS5_EED1Ev
FN:392,_ZNSt10unique_ptrINSt7__cxx1118basic_stringstreamIcSt11char_traitsIcESaIcEEESt14default_deleteIS5_EED1Ev
FNDA:0,_ZNSt10unique_ptrINSt7__cxx1118basic_stringstreamIcSt11char_traitsIcESaIcEEESt14default_deleteIS5_EED1Ev
FN:408,_ZNSt10unique_ptrINSt7__cxx1112basic_stringIcSt11char_traitsIcESaIcEEESt14default_deleteIS5_EEaSEOS8_
FNDA:0,_ZNSt10unique_ptrINSt7__cxx1112basic_stringIcSt11char_traitsIcESaIcEEESt14default_deleteIS5_EEaSEOS8_
FN:445,_ZNKSt10unique_ptrINSt7__cxx1118basic_stringstreamIcSt11char_traitsIcESaIcEEESt14default_deleteIS5_EEdeEv
FNDA:0,_ZNKSt10unique_ptrINSt7__cxx1118basic_stringstreamIcSt11char_traitsIcESaIcEEESt14default_deleteIS5_EEdeEv
FN:454,_ZNKSt10unique_ptrINSt7__cxx1112basic_stringIcSt11char_traitsIcESaIcEEESt14default_deleteIS5_EEptEv
FNDA:0,_ZNKSt10unique_ptrINSt7__cxx1112basic_stringIcSt11char_traitsIcESaIcEEESt14default_deleteIS5_EEptEv
FN:463,_ZNKSt10unique_ptrINSt7__cxx1118basic_stringstreamIcSt11char_traitsIcESaIcEEESt14default_deleteIS5_EE3getEv
FNDA:0,_ZNKSt10unique_ptrINSt7__cxx1118basic_stringstreamIcSt11char_traitsIcESaIcEEESt14default_deleteIS5_EE3getEv
FN:463,_ZNKSt10unique_ptrINSt7__cxx1112basic_stringIcSt11char_traitsIcESaIcEEESt14default_deleteIS5_EE3getEv
FNDA:0,_ZNKSt10unique_ptrINSt7__cxx1112basic_stringIcSt11char_traitsIcESaIcEEESt14default_deleteIS5_EE3getEv
FN:469,_ZNSt10unique_ptrINSt7__cxx1118basic_stringstreamIcSt11char_traitsIcESaIcEEESt14default_deleteIS5_EE11get_deleterEv
FNDA:0,_ZNSt10unique_ptrINSt7__cxx1118basic_stringstreamIcSt11char_traitsIcESaIcEEESt14default_deleteIS5_EE11get_deleterEv
FN:469,_ZNSt10unique_ptrINSt7__cxx1112basic_stringIcSt11char_traitsIcESaIcEEESt14default_deleteIS5_EE11get_deleterEv
FNDA:0,_ZNSt10unique_ptrINSt7__cxx1112basic_stringIcSt11char_traitsIcESaIcEEESt14default_deleteIS5_EE11get_deleterEv
FN:480,_ZNKSt10unique_ptrINSt7__cxx1112basic_stringIcSt11char_traitsIcESaIcEEESt14default_deleteIS5_EEcvbEv
FNDA:0,_ZNKSt10unique_ptrINSt7__cxx1112basic_stringIcSt11char_traitsIcESaIcEEESt14default_deleteIS5_EEcvbEv
FN:845,_ZSteqINSt7__cxx1112basic_stringIcSt11char_traitsIcESaIcEEESt14default_deleteIS5_EEbRKSt10unique_ptrIT_T0_EDn
FNDA:0,_ZSteqINSt7__cxx1112basic_stringIcSt11char_traitsIcESaIcEEESt14default_deleteIS5_EEbRKSt10unique_ptrIT_T0_EDn
FN:869,_ZStneINSt7__cxx1112basic_stringIcSt11char_traitsIcESaIcEEESt14default_deleteIS5_EEbRKSt10unique_ptrIT_T0_EDn
FNDA:0,_ZStneINSt7__cxx1112basic_stringIcSt11char_traitsIcESaIcEEESt14default_deleteIS5_EEbRKSt10unique_ptrIT_T0_EDn
FN:1075,_ZSt11make_uniqueINSt7__cxx1112basic_stringIcSt11char_traitsIcESaIcEEEJEENSt8__detail9_MakeUniqIT_E15__single_objectEDpOT0_
FNDA:0,_ZSt11make_uniqueINSt7__cxx1112basic_stringIcSt11char_traitsIcESaIcEEEJEENSt8__detail9_MakeUniqIT_E15__single_objectEDpOT0_
FNF:29
FNH:0
DA:87,0
DA:93,0
DA:94,0
DA:87,0
DA:93,0
DA:94,0
DA:168,0
DA:170,0
DA:183,0
DA:185,0
DA:186,0
DA:187,0
DA:191,0
DA:191,0
DA:193,0
DA:193,0
DA:195,0
DA:195,0
DA:200,0
DA:202,0
DA:203,0
DA:204,0
DA:205,0
DA:206,0
DA:209,0
DA:211,0
DA:212,0
DA:213,0
DA:237,0
DA:298,0
DA:299,0
DA:300,0
DA:311,0
DA:312,0
DA:313,0
DA:392,0
DA:396,0
DA:397,0
DA:398,0
DA:399,0
DA:400,0
DA:392,0
DA:396,0
DA:397,0
DA:398,0
DA:399,0
DA:400,0
DA:408,0
DA:445,0
DA:447,0
DA:448,0
DA:454,0
DA:457,0
DA:463,0
DA:464,0
DA:463,0
DA:464,0
DA:469,0
DA:470,0
DA:469,0
DA:470,0
DA:480,0
DA:481,0
DA:845,0
DA:846,0
DA:869,0
DA:870,0
DA:1075,0
DA:1076,0
LF:69
LH:0
end_of_record
SF:C:/msys64/mingw64/include/c++/14.2.0/bits/basic_string.tcc
FN:221,_ZNSt7__cxx1112basic_stringIcSt11char_traitsIcESaIcEE12_M_constructIPKcEEvT_S8_St20forward_iterator_tag
FNDA:0,_ZNSt7__cxx1112basic_stringIcSt11char_traitsIcESaIcEE12_M_constructIPKcEEvT_S8_St20forward_iterator_tag
FN:239,_ZZNSt7__cxx1112basic_stringIcSt11char_traitsIcESaIcEE12_M_constructIPKcEEvT_S8_St20forward_iterator_tagEN6_GuardC1EPS4_
FNDA:0,_ZZNSt7__cxx1112basic_stringIcSt11char_traitsIcESaIcEE12_M_constructIPKcEEvT_S8_St20forward_iterator_tagEN6_GuardC1EPS4_
FN:242,_ZZNSt7__cxx1112basic_stringIcSt11char_traitsIcESaIcEE12_M_constructIPKcEEvT_S8_St20forward_iterator_tagEN6_GuardD1Ev
FNDA:0,_ZZNSt7__cxx1112basic_stringIcSt11char_traitsIcESaIcEE12_M_constructIPKcEEvT_S8_St20forward_iterator_tagEN6_GuardD1Ev
FNF:3
FNH:0
DA:221,0
DA:225,0
DA:227,0
DA:229,0
DA:230,0
DA:239,0
DA:242,0
DA:245,0
DA:247,0
DA:249,0
DA:251,0
DA:252,0
LF:12
LH:0
end_of_record
SF:C:/Projects/GoogleTestProject/googletest/googletest/include/gtest/internal/gtest-port.h
FN:1082,_ZN7testing8internal8GTestLog9GetStreamEv
FNDA:0,_ZN7testing8internal8GTestLog9GetStreamEv
FNF:1
FNH:0
DA:1082,0
LF:1
LH:0
end_of_record
TN:
SF:C:/Projects/GoogleTestProject/googletest/googletest/include/gtest/gtest-message.h
FN:132,_ZN7testing7MessagelsIA5_cEERS0_RKT_
FNDA:0,_ZN7testing7MessagelsIA5_cEERS0_RKT_
FN:132,_ZN7testing7MessagelsINSt7__cxx1112basic_stringIcSt11char_traitsIcESaIcEEEEERS0_RKT_
FNDA:0,_ZN7testing7MessagelsINSt7__cxx1112basic_stringIcSt11char_traitsIcESaIcEEEEERS0_RKT_
FN:132,_ZN7testing7MessagelsIA3_cEERS0_RKT_
FNDA:0,_ZN7testing7MessagelsIA3_cEERS0_RKT_
FN:132,_ZN7testing7MessagelsIA12_cEERS0_RKT_
FNDA:0,_ZN7testing7MessagelsIA12_cEERS0_RKT_
FN:181,_ZN7testing7MessagelsIKcEERS0_RKPT_
FNDA:0,_ZN7testing7MessagelsIKcEERS0_RKPT_
FNF:5
FNH:0
DA:132,0
DA:148,0
DA:149,0
DA:132,0
DA:148,0
DA:149,0
DA:132,0
DA:148,0
DA:149,0
DA:132,0
DA:148,0
DA:149,0
DA:181,0
DA:182,0
DA:183,0
DA:185,0
DA:187,0
LF:17
LH:0
end_of_record
SF:C:/msys64/mingw64/include/c++/14.2.0/bits/char_traits.h
FN:136,_ZN9__gnu_cxx11char_traitsIcE2eqERKcS3_
FNDA:0,_ZN9__gnu_cxx11char_traitsIcE2eqERKcS3_
FN:199,_ZN9__gnu_cxx11char_traitsIcE6lengthEPKc
FNDA:0,_ZN9__gnu_cxx11char_traitsIcE6lengthEPKc
FN:385,_ZNSt11char_traitsIcE6lengthEPKc
FNDA:0,_ZNSt11char_traitsIcE6lengthEPKc
FN:419,_ZNSt11char_traitsIcE4copyEPcPKcy
FNDA:0,_ZNSt11char_traitsIcE4copyEPcPKcy
FNF:4
FNH:0
DA:136,0
DA:137,0
DA:199,0
DA:202,0
DA:203,0
DA:204,0
DA:205,0
DA:385,0
DA:388,0
DA:389,0
DA:391,0
DA:419,0
DA:421,0
DA:422,0
DA:427,0
LF:15
LH:0
end_of_record
SF:C:/Projects/GoogleTestProject/acc_distance_EQ_test.cpp
FN:24,_ZL23resetDistancePidStaticsv
FNDA:50,_ZL23resetDistancePidStaticsv
FN:47,_ZN18AccDistancePidTest5SetUpEv
FNDA:50,_ZN18AccDistancePidTest5SetUpEv
FN:81,_ZN41AccDistancePidTest_TC_ACC_DIST_EQ_01_TestC1Ev
FNDA:1,_ZN41AccDistancePidTest_TC_ACC_DIST_EQ_01_TestC1Ev
FN:81,_ZN41AccDistancePidTest_TC_ACC_DIST_EQ_01_Test8TestBodyEv
FNDA:1,_ZN41AccDistancePidTest_TC_ACC_DIST_EQ_01_Test8TestBodyEv
FN:81,_ZN41AccDistancePidTest_TC_ACC_DIST_EQ_01_TestD1Ev
FNDA:1,_ZN41AccDistancePidTest_TC_ACC_DIST_EQ_01_TestD1Ev
FN:81,_ZN41AccDistancePidTest_TC_ACC_DIST_EQ_01_TestD0Ev
FNDA:1,_ZN41AccDistancePidTest_TC_ACC_DIST_EQ_01_TestD0Ev
FN:96,_ZN41AccDistancePidTest_TC_ACC_DIST_EQ_02_TestC1Ev
FNDA:1,_ZN41AccDistancePidTest_TC_ACC_DIST_EQ_02_TestC1Ev
FN:96,_ZN41AccDistancePidTest_TC_ACC_DIST_EQ_02_Test8TestBodyEv
FNDA:1,_ZN41AccDistancePidTest_TC_ACC_DIST_EQ_02_Test8TestBodyEv
FN:96,_ZN41AccDistancePidTest_TC_ACC_DIST_EQ_02_TestD1Ev
FNDA:1,_ZN41AccDistancePidTest_TC_ACC_DIST_EQ_02_TestD1Ev
FN:96,_ZN41AccDistancePidTest_TC_ACC_DIST_EQ_02_TestD0Ev
FNDA:1,_ZN41AccDistancePidTest_TC_ACC_DIST_EQ_02_TestD0Ev
FN:110,_ZN41AccDistancePidTest_TC_ACC_DIST_EQ_03_TestC1Ev
FNDA:1,_ZN41AccDistancePidTest_TC_ACC_DIST_EQ_03_TestC1Ev
FN:110,_ZN41AccDistancePidTest_TC_ACC_DIST_EQ_03_TestD1Ev
FNDA:1,_ZN41AccDistancePidTest_TC_ACC_DIST_EQ_03_TestD1Ev
FN:110,_ZN41AccDistancePidTest_TC_ACC_DIST_EQ_03_Test8TestBodyEv
FNDA:1,_ZN41AccDistancePidTest_TC_ACC_DIST_EQ_03_Test8TestBodyEv
FN:110,_ZN41AccDistancePidTest_TC_ACC_DIST_EQ_03_TestD0Ev
FNDA:1,_ZN41AccDistancePidTest_TC_ACC_DIST_EQ_03_TestD0Ev
FN:121,_ZN41AccDistancePidTest_TC_ACC_DIST_EQ_04_TestD0Ev
FNDA:1,_ZN41AccDistancePidTest_TC_ACC_DIST_EQ_04_TestD0Ev
FN:121,_ZN41AccDistancePidTest_TC_ACC_DIST_EQ_04_TestC1Ev
FNDA:1,_ZN41AccDistancePidTest_TC_ACC_DIST_EQ_04_TestC1Ev
FN:121,_ZN41AccDistancePidTest_TC_ACC_DIST_EQ_04_Test8TestBodyEv
FNDA:1,_ZN41AccDistancePidTest_TC_ACC_DIST_EQ_04_Test8TestBodyEv
FN:121,_ZN41AccDistancePidTest_TC_ACC_DIST_EQ_04_TestD1Ev
FNDA:1,_ZN41AccDistancePidTest_TC_ACC_DIST_EQ_04_TestD1Ev
FN:131,_ZN41AccDistancePidTest_TC_ACC_DIST_EQ_05_TestC1Ev
FNDA:1,_ZN41AccDistancePidTest_TC_ACC_DIST_EQ_05_TestC1Ev
FN:131,_ZN41AccDistancePidTest_TC_ACC_DIST_EQ_05_Test8TestBodyEv
FNDA:1,_ZN41AccDistancePidTest_TC_ACC_DIST_EQ_05_Test8TestBodyEv
FN:131,_ZN41AccDistancePidTest_TC_ACC_DIST_EQ_05_TestD0Ev
FNDA:1,_ZN41AccDistancePidTest_TC_ACC_DIST_EQ_05_TestD0Ev
FN:131,_ZN41AccDistancePidTest_TC_ACC_DIST_EQ_05_TestD1Ev
FNDA:1,_ZN41AccDistancePidTest_TC_ACC_DIST_EQ_05_TestD1Ev
FN:141,_ZN41AccDistancePidTest_TC_ACC_DIST_EQ_06_Test8TestBodyEv
FNDA:1,_ZN41AccDistancePidTest_TC_ACC_DIST_EQ_06_Test8TestBodyEv
FN:141,_ZN41AccDistancePidTest_TC_ACC_DIST_EQ_06_TestD1Ev
FNDA:1,_ZN41AccDistancePidTest_TC_ACC_DIST_EQ_06_TestD1Ev
FN:141,_ZN41AccDistancePidTest_TC_ACC_DIST_EQ_06_TestC1Ev
FNDA:1,_ZN41AccDistancePidTest_TC_ACC_DIST_EQ_06_TestC1Ev
FN:141,_ZN41AccDistancePidTest_TC_ACC_DIST_EQ_06_TestD0Ev
FNDA:1,_ZN41AccDistancePidTest_TC_ACC_DIST_EQ_06_TestD0Ev
FN:152,_ZN41AccDistancePidTest_TC_ACC_DIST_EQ_07_TestD1Ev
FNDA:1,_ZN41AccDistancePidTest_TC_ACC_DIST_EQ_07_TestD1Ev
FN:152,_ZN41AccDistancePidTest_TC_ACC_DIST_EQ_07_TestD0Ev
FNDA:1,_ZN41AccDistancePidTest_TC_ACC_DIST_EQ_07_TestD0Ev
FN:152,_ZN41AccDistancePidTest_TC_ACC_DIST_EQ_07_TestC1Ev
FNDA:1,_ZN41AccDistancePidTest_TC_ACC_DIST_EQ_07_TestC1Ev
FN:152,_ZN41AccDistancePidTest_TC_ACC_DIST_EQ_07_Test8TestBodyEv
FNDA:1,_ZN41AccDistancePidTest_TC_ACC_DIST_EQ_07_Test8TestBodyEv
FN:163,_ZN41AccDistancePidTest_TC_ACC_DIST_EQ_08_TestC1Ev
FNDA:1,_ZN41AccDistancePidTest_TC_ACC_DIST_EQ_08_TestC1Ev
FN:163,_ZN41AccDistancePidTest_TC_ACC_DIST_EQ_08_TestD1Ev
FNDA:1,_ZN41AccDistancePidTest_TC_ACC_DIST_EQ_08_TestD1Ev
FN:163,_ZN41AccDistancePidTest_TC_ACC_DIST_EQ_08_TestD0Ev
FNDA:1,_ZN41AccDistancePidTest_TC_ACC_DIST_EQ_08_TestD0Ev
FN:163,_ZN41AccDistancePidTest_TC_ACC_DIST_EQ_08_Test8TestBodyEv
FNDA:1,_ZN41AccDistancePidTest_TC_ACC_DIST_EQ_08_Test8TestBodyEv
FN:173,_ZN41AccDistancePidTest_TC_ACC_DIST_EQ_09_TestC1Ev
FNDA:1,_ZN41AccDistancePidTest_TC_ACC_DIST_EQ_09_TestC1Ev
FN:173,_ZN41AccDistancePidTest_TC_ACC_DIST_EQ_09_TestD1Ev
FNDA:1,_ZN41AccDistancePidTest_TC_ACC_DIST_EQ_09_TestD1Ev
FN:173,_ZN41AccDistancePidTest_TC_ACC_DIST_EQ_09_TestD0Ev
FNDA:1,_ZN41AccDistancePidTest_TC_ACC_DIST_EQ_09_TestD0Ev
FN:173,_ZN41AccDistancePidTest_TC_ACC_DIST_EQ_09_Test8TestBodyEv
FNDA:1,_ZN41AccDistancePidTest_TC_ACC_DIST_EQ_09_Test8TestBodyEv
FN:184,_ZN41AccDistancePidTest_TC_ACC_DIST_EQ_10_TestD1Ev
FNDA:1,_ZN41AccDistancePidTest_TC_ACC_DIST_EQ_10_TestD1Ev
FN:184,_ZN41AccDistancePidTest_TC_ACC_DIST_EQ_10_TestC1Ev
FNDA:1,_ZN41AccDistancePidTest_TC_ACC_DIST_EQ_10_TestC1Ev
FN:184,_ZN41AccDistancePidTest_TC_ACC_DIST_EQ_10_TestD0Ev
FNDA:1,_ZN41AccDistancePidTest_TC_ACC_DIST_EQ_10_TestD0Ev
FN:184,_ZN41AccDistancePidTest_TC_ACC_DIST_EQ_10_Test8TestBodyEv
FNDA:1,_ZN41AccDistancePidTest_TC_ACC_DIST_EQ_10_Test8TestBodyEv
FN:194,_ZN41AccDistancePidTest_TC_ACC_DIST_EQ_11_TestD0Ev
FNDA:1,_ZN41AccDistancePidTest_TC_ACC_DIST_EQ_11_TestD0Ev
FN:194,_ZN41AccDistancePidTest_TC_ACC_DIST_EQ_11_TestD1Ev
FNDA:1,_ZN41AccDistancePidTest_TC_ACC_DIST_EQ_11_TestD1Ev
FN:194,_ZN41AccDistancePidTest_TC_ACC_DIST_EQ_11_Test8TestBodyEv
FNDA:1,_ZN41AccDistancePidTest_TC_ACC_DIST_EQ_11_Test8TestBodyEv
FN:194,_ZN41AccDistancePidTest_TC_ACC_DIST_EQ_11_TestC1Ev
FNDA:1,_ZN41AccDistancePidTest_TC_ACC_DIST_EQ_11_TestC1Ev
FN:205,_ZN41AccDistancePidTest_TC_ACC_DIST_EQ_12_TestC1Ev
FNDA:1,_ZN41AccDistancePidTest_TC_ACC_DIST_EQ_12_TestC1Ev
FN:205,_ZN41AccDistancePidTest_TC_ACC_DIST_EQ_12_TestD0Ev
FNDA:1,_ZN41AccDistancePidTest_TC_ACC_DIST_EQ_12_TestD0Ev
FN:205,_ZN41AccDistancePidTest_TC_ACC_DIST_EQ_12_TestD1Ev
FNDA:1,_ZN41AccDistancePidTest_TC_ACC_DIST_EQ_12_TestD1Ev
FN:205,_ZN41AccDistancePidTest_TC_ACC_DIST_EQ_12_Test8TestBodyEv
FNDA:1,_ZN41AccDistancePidTest_TC_ACC_DIST_EQ_12_Test8TestBodyEv
FN:218,_ZN41AccDistancePidTest_TC_ACC_DIST_EQ_13_TestC1Ev
FNDA:1,_ZN41AccDistancePidTest_TC_ACC_DIST_EQ_13_TestC1Ev
FN:218,_ZN41AccDistancePidTest_TC_ACC_DIST_EQ_13_Test8TestBodyEv
FNDA:1,_ZN41AccDistancePidTest_TC_ACC_DIST_EQ_13_Test8TestBodyEv
FN:218,_ZN41AccDistancePidTest_TC_ACC_DIST_EQ_13_TestD1Ev
FNDA:1,_ZN41AccDistancePidTest_TC_ACC_DIST_EQ_13_TestD1Ev
FN:218,_ZN41AccDistancePidTest_TC_ACC_DIST_EQ_13_TestD0Ev
FNDA:1,_ZN41AccDistancePidTest_TC_ACC_DIST_EQ_13_TestD0Ev
FN:234,_ZN41AccDistancePidTest_TC_ACC_DIST_EQ_14_TestC1Ev
FNDA:1,_ZN41AccDistancePidTest_TC_ACC_DIST_EQ_14_TestC1Ev
FN:234,_ZN41AccDistancePidTest_TC_ACC_DIST_EQ_14_Test8TestBodyEv
FNDA:1,_ZN41AccDistancePidTest_TC_ACC_DIST_EQ_14_Test8TestBodyEv
FN:234,_ZN41AccDistancePidTest_TC_ACC_DIST_EQ_14_TestD1Ev
FNDA:1,_ZN41AccDistancePidTest_TC_ACC_DIST_EQ_14_TestD1Ev
FN:234,_ZN41AccDistancePidTest_TC_ACC_DIST_EQ_14_TestD0Ev
FNDA:1,_ZN41AccDistancePidTest_TC_ACC_DIST_EQ_14_TestD0Ev
FN:247,_ZN41AccDistancePidTest_TC_ACC_DIST_EQ_15_TestD1Ev
FNDA:1,_ZN41AccDistancePidTest_TC_ACC_DIST_EQ_15_TestD1Ev
FN:247,_ZN41AccDistancePidTest_TC_ACC_DIST_EQ_15_Test8TestBodyEv
FNDA:1,_ZN41AccDistancePidTest_TC_ACC_DIST_EQ_15_Test8TestBodyEv
FN:247,_ZN41AccDistancePidTest_TC_ACC_DIST_EQ_15_TestD0Ev
FNDA:1,_ZN41AccDistancePidTest_TC_ACC_DIST_EQ_15_TestD0Ev
FN:247,_ZN41AccDistancePidTest_TC_ACC_DIST_EQ_15_TestC1Ev
FNDA:1,_ZN41AccDistancePidTest_TC_ACC_DIST_EQ_15_TestC1Ev
FN:259,_ZN41AccDistancePidTest_TC_ACC_DIST_EQ_16_TestC1Ev
FNDA:1,_ZN41AccDistancePidTest_TC_ACC_DIST_EQ_16_TestC1Ev
FN:259,_ZN41AccDistancePidTest_TC_ACC_DIST_EQ_16_TestD1Ev
FNDA:1,_ZN41AccDistancePidTest_TC_ACC_DIST_EQ_16_TestD1Ev
FN:259,_ZN41AccDistancePidTest_TC_ACC_DIST_EQ_16_TestD0Ev
FNDA:1,_ZN41AccDistancePidTest_TC_ACC_DIST_EQ_16_TestD0Ev
FN:259,_ZN41AccDistancePidTest_TC_ACC_DIST_EQ_16_Test8TestBodyEv
FNDA:1,_ZN41AccDistancePidTest_TC_ACC_DIST_EQ_16_Test8TestBodyEv
FN:273,_ZN41AccDistancePidTest_TC_ACC_DIST_EQ_17_Test8TestBodyEv
FNDA:1,_ZN41AccDistancePidTest_TC_ACC_DIST_EQ_17_Test8TestBodyEv
FN:273,_ZN41AccDistancePidTest_TC_ACC_DIST_EQ_17_TestD1Ev
FNDA:1,_ZN41AccDistancePidTest_TC_ACC_DIST_EQ_17_TestD1Ev
FN:273,_ZN41AccDistancePidTest_TC_ACC_DIST_EQ_17_TestD0Ev
FNDA:1,_ZN41AccDistancePidTest_TC_ACC_DIST_EQ_17_TestD0Ev
FN:273,_ZN41AccDistancePidTest_TC_ACC_DIST_EQ_17_TestC1Ev
FNDA:1,_ZN41AccDistancePidTest_TC_ACC_DIST_EQ_17_TestC1Ev
FN:283,_ZN41AccDistancePidTest_TC_ACC_DIST_EQ_18_Test8TestBodyEv
FNDA:1,_ZN41AccDistancePidTest_TC_ACC_DIST_EQ_18_Test8TestBodyEv
FN:283,_ZN41AccDistancePidTest_TC_ACC_DIST_EQ_18_TestD1Ev
FNDA:1,_ZN41AccDistancePidTest_TC_ACC_DIST_EQ_18_TestD1Ev
FN:283,_ZN41AccDistancePidTest_TC_ACC_DIST_EQ_18_TestC1Ev
FNDA:1,_ZN41AccDistancePidTest_TC_ACC_DIST_EQ_18_TestC1Ev
FN:283,_ZN41AccDistancePidTest_TC_ACC_DIST_EQ_18_TestD0Ev
FNDA:1,_ZN41AccDistancePidTest_TC_ACC_DIST_EQ_18_TestD0Ev
FN:293,_ZN41AccDistancePidTest_TC_ACC_DIST_EQ_19_Test8TestBodyEv
FNDA:1,_ZN41AccDistancePidTest_TC_ACC_DIST_EQ_19_Test8TestBodyEv
FN:293,_ZN41AccDistancePidTest_TC_ACC_DIST_EQ_19_TestD1Ev
FNDA:1,_ZN41AccDistancePidTest_TC_ACC_DIST_EQ_19_TestD1Ev
FN:293,_ZN41AccDistancePidTest_TC_ACC_DIST_EQ_19_TestD0Ev
FNDA:1,_ZN41AccDistancePidTest_TC_ACC_DIST_EQ_19_TestD0Ev
FN:293,_ZN41AccDistancePidTest_TC_ACC_DIST_EQ_19_TestC1Ev
FNDA:1,_ZN41AccDistancePidTest_TC_ACC_DIST_EQ_19_TestC1Ev
FN:302,_ZN41AccDistancePidTest_TC_ACC_DIST_EQ_20_Test8TestBodyEv
FNDA:1,_ZN41AccDistancePidTest_TC_ACC_DIST_EQ_20_Test8TestBodyEv
FN:302,_ZN41AccDistancePidTest_TC_ACC_DIST_EQ_20_TestC1Ev
FNDA:1,_ZN41AccDistancePidTest_TC_ACC_DIST_EQ_20_TestC1Ev
FN:302,_ZN41AccDistancePidTest_TC_ACC_DIST_EQ_20_TestD0Ev
FNDA:1,_ZN41AccDistancePidTest_TC_ACC_DIST_EQ_20_TestD0Ev
FN:302,_ZN41AccDistancePidTest_TC_ACC_DIST_EQ_20_TestD1Ev
FNDA:1,_ZN41AccDistancePidTest_TC_ACC_DIST_EQ_20_TestD1Ev
FN:313,_ZN41AccDistancePidTest_TC_ACC_DIST_EQ_21_TestD1Ev
FNDA:1,_ZN41AccDistancePidTest_TC_ACC_DIST_EQ_21_TestD1Ev
FN:313,_ZN41AccDistancePidTest_TC_ACC_DIST_EQ_21_TestD0Ev
FNDA:1,_ZN41AccDistancePidTest_TC_ACC_DIST_EQ_21_TestD0Ev
FN:313,_ZN41AccDistancePidTest_TC_ACC_DIST_EQ_21_TestC1Ev
FNDA:1,_ZN41AccDistancePidTest_TC_ACC_DIST_EQ_21_TestC1Ev
FN:313,_ZN41AccDistancePidTest_TC_ACC_DIST_EQ_21_Test8TestBodyEv
FNDA:1,_ZN41AccDistancePidTest_TC_ACC_DIST_EQ_21_Test8TestBodyEv
FN:324,_ZN41AccDistancePidTest_TC_ACC_DIST_EQ_22_TestD0Ev
FNDA:1,_ZN41AccDistancePidTest_TC_ACC_DIST_EQ_22_TestD0Ev
FN:324,_ZN41AccDistancePidTest_TC_ACC_DIST_EQ_22_TestC1Ev
FNDA:1,_ZN41AccDistancePidTest_TC_ACC_DIST_EQ_22_TestC1Ev
FN:324,_ZN41AccDistancePidTest_TC_ACC_DIST_EQ_22_Test8TestBodyEv
FNDA:1,_ZN41AccDistancePidTest_TC_ACC_DIST_EQ_22_Test8TestBodyEv
FN:324,_ZN41AccDistancePidTest_TC_ACC_DIST_EQ_22_TestD1Ev
FNDA:1,_ZN41AccDistancePidTest_TC_ACC_DIST_EQ_22_TestD1Ev
FN:334,_ZN41AccDistancePidTest_TC_ACC_DIST_EQ_23_TestD0Ev
FNDA:1,_ZN41AccDistancePidTest_TC_ACC_DIST_EQ_23_TestD0Ev
FN:334,_ZN41AccDistancePidTest_TC_ACC_DIST_EQ_23_TestD1Ev
FNDA:1,_ZN41AccDistancePidTest_TC_ACC_DIST_EQ_23_TestD1Ev
FN:334,_ZN41AccDistancePidTest_TC_ACC_DIST_EQ_23_Test8TestBodyEv
FNDA:1,_ZN41AccDistancePidTest_TC_ACC_DIST_EQ_23_Test8TestBodyEv
FN:334,_ZN41AccDistancePidTest_TC_ACC_DIST_EQ_23_TestC1Ev
FNDA:1,_ZN41AccDistancePidTest_TC_ACC_DIST_EQ_23_TestC1Ev
FN:343,_ZN41AccDistancePidTest_TC_ACC_DIST_EQ_24_TestD1Ev
FNDA:1,_ZN41AccDistancePidTest_TC_ACC_DIST_EQ_24_TestD1Ev
FN:343,_ZN41AccDistancePidTest_TC_ACC_DIST_EQ_24_TestC1Ev
FNDA:1,_ZN41AccDistancePidTest_TC_ACC_DIST_EQ_24_TestC1Ev
FN:343,_ZN41AccDistancePidTest_TC_ACC_DIST_EQ_24_TestD0Ev
FNDA:1,_ZN41AccDistancePidTest_TC_ACC_DIST_EQ_24_TestD0Ev
FN:343,_ZN41AccDistancePidTest_TC_ACC_DIST_EQ_24_Test8TestBodyEv
FNDA:1,_ZN41AccDistancePidTest_TC_ACC_DIST_EQ_24_Test8TestBodyEv
FN:351,_ZN41AccDistancePidTest_TC_ACC_DIST_EQ_25_TestD0Ev
FNDA:1,_ZN41AccDistancePidTest_TC_ACC_DIST_EQ_25_TestD0Ev
FN:351,_ZN41AccDistancePidTest_TC_ACC_DIST_EQ_25_TestD1Ev
FNDA:1,_ZN41AccDistancePidTest_TC_ACC_DIST_EQ_25_TestD1Ev
FN:351,_ZN41AccDistancePidTest_TC_ACC_DIST_EQ_25_Test8TestBodyEv
FNDA:1,_ZN41AccDistancePidTest_TC_ACC_DIST_EQ_25_Test8TestBodyEv
FN:351,_ZN41AccDistancePidTest_TC_ACC_DIST_EQ_25_TestC1Ev
FNDA:1,_ZN41AccDistancePidTest_TC_ACC_DIST_EQ_25_TestC1Ev
FN:359,_ZN41AccDistancePidTest_TC_ACC_DIST_EQ_26_TestD0Ev
FNDA:1,_ZN41AccDistancePidTest_TC_ACC_DIST_EQ_26_TestD0Ev
FN:359,_ZN41AccDistancePidTest_TC_ACC_DIST_EQ_26_TestD1Ev
FNDA:1,_ZN41AccDistancePidTest_TC_ACC_DIST_EQ_26_TestD1Ev
FN:359,_ZN41AccDistancePidTest_TC_ACC_DIST_EQ_26_Test8TestBodyEv
FNDA:1,_ZN41AccDistancePidTest_TC_ACC_DIST_EQ_26_Test8TestBodyEv
FN:359,_ZN41AccDistancePidTest_TC_ACC_DIST_EQ_26_TestC1Ev
FNDA:1,_ZN41AccDistancePidTest_TC_ACC_DIST_EQ_26_TestC1Ev
FN:368,_ZN41AccDistancePidTest_TC_ACC_DIST_EQ_27_TestD1Ev
FNDA:1,_ZN41AccDistancePidTest_TC_ACC_DIST_EQ_27_TestD1Ev
FN:368,_ZN41AccDistancePidTest_TC_ACC_DIST_EQ_27_Test8TestBodyEv
FNDA:1,_ZN41AccDistancePidTest_TC_ACC_DIST_EQ_27_Test8TestBodyEv
FN:368,_ZN41AccDistancePidTest_TC_ACC_DIST_EQ_27_TestC1Ev
FNDA:1,_ZN41AccDistancePidTest_TC_ACC_DIST_EQ_27_TestC1Ev
FN:368,_ZN41AccDistancePidTest_TC_ACC_DIST_EQ_27_TestD0Ev
FNDA:1,_ZN41AccDistancePidTest_TC_ACC_DIST_EQ_27_TestD0Ev
FN:382,_ZN41AccDistancePidTest_TC_ACC_DIST_EQ_28_Test8TestBodyEv
FNDA:1,_ZN41AccDistancePidTest_TC_ACC_DIST_EQ_28_Test8TestBodyEv
FN:382,_ZN41AccDistancePidTest_TC_ACC_DIST_EQ_28_TestC1Ev
FNDA:1,_ZN41AccDistancePidTest_TC_ACC_DIST_EQ_28_TestC1Ev
FN:382,_ZN41AccDistancePidTest_TC_ACC_DIST_EQ_28_TestD0Ev
FNDA:1,_ZN41AccDistancePidTest_TC_ACC_DIST_EQ_28_TestD0Ev
FN:382,_ZN41AccDistancePidTest_TC_ACC_DIST_EQ_28_TestD1Ev
FNDA:1,_ZN41AccDistancePidTest_TC_ACC_DIST_EQ_28_TestD1Ev
FN:399,_ZN41AccDistancePidTest_TC_ACC_DIST_EQ_29_Test8TestBodyEv
FNDA:1,_ZN41AccDistancePidTest_TC_ACC_DIST_EQ_29_Test8TestBodyEv
FN:399,_ZN41AccDistancePidTest_TC_ACC_DIST_EQ_29_TestC1Ev
FNDA:1,_ZN41AccDistancePidTest_TC_ACC_DIST_EQ_29_TestC1Ev
FN:399,_ZN41AccDistancePidTest_TC_ACC_DIST_EQ_29_TestD0Ev
FNDA:1,_ZN41AccDistancePidTest_TC_ACC_DIST_EQ_29_TestD0Ev
FN:399,_ZN41AccDistancePidTest_TC_ACC_DIST_EQ_29_TestD1Ev
FNDA:1,_ZN41AccDistancePidTest_TC_ACC_DIST_EQ_29_TestD1Ev
FN:410,_ZN41AccDistancePidTest_TC_ACC_DIST_EQ_30_TestD1Ev
FNDA:1,_ZN41AccDistancePidTest_TC_ACC_DIST_EQ_30_TestD1Ev
FN:410,_ZN41AccDistancePidTest_TC_ACC_DIST_EQ_30_Test8TestBodyEv
FNDA:1,_ZN41AccDistancePidTest_TC_ACC_DIST_EQ_30_Test8TestBodyEv
FN:410,_ZN41AccDistancePidTest_TC_ACC_DIST_EQ_30_TestC1Ev
FNDA:1,_ZN41AccDistancePidTest_TC_ACC_DIST_EQ_30_TestC1Ev
FN:410,_ZN41AccDistancePidTest_TC_ACC_DIST_EQ_30_TestD0Ev
FNDA:1,_ZN41AccDistancePidTest_TC_ACC_DIST_EQ_30_TestD0Ev
FN:421,_ZN41AccDistancePidTest_TC_ACC_DIST_EQ_31_Test8TestBodyEv
FNDA:1,_ZN41AccDistancePidTest_TC_ACC_DIST_EQ_31_Test8TestBodyEv
FN:421,_ZN41AccDistancePidTest_TC_ACC_DIST_EQ_31_TestD0Ev
FNDA:1,_ZN41AccDistancePidTest_TC_ACC_DIST_EQ_31_TestD0Ev
FN:421,_ZN41AccDistancePidTest_TC_ACC_DIST_EQ_31_TestD1Ev
FNDA:1,_ZN41AccDistancePidTest_TC_ACC_DIST_EQ_31_TestD1Ev
FN:421,_ZN41AccDistancePidTest_TC_ACC_DIST_EQ_31_TestC1Ev
FNDA:1,_ZN41AccDistancePidTest_TC_ACC_DIST_EQ_31_TestC1Ev
FN:429,_ZN41AccDistancePidTest_TC_ACC_DIST_EQ_32_TestD1Ev
FNDA:1,_ZN41AccDistancePidTest_TC_ACC_DIST_EQ_32_TestD1Ev
FN:429,_ZN41AccDistancePidTest_TC_ACC_DIST_EQ_32_Test8TestBodyEv
FNDA:1,_ZN41AccDistancePidTest_TC_ACC_DIST_EQ_32_Test8TestBodyEv
FN:429,_ZN41AccDistancePidTest_TC_ACC_DIST_EQ_32_TestC1Ev
FNDA:1,_ZN41AccDistancePidTest_TC_ACC_DIST_EQ_32_TestC1Ev
FN:429,_ZN41AccDistancePidTest_TC_ACC_DIST_EQ_32_TestD0Ev
FNDA:1,_ZN41AccDistancePidTest_TC_ACC_DIST_EQ_32_TestD0Ev
FN:439,_ZN41AccDistancePidTest_TC_ACC_DIST_EQ_33_Test8TestBodyEv
FNDA:1,_ZN41AccDistancePidTest_TC_ACC_DIST_EQ_33_Test8TestBodyEv
FN:439,_ZN41AccDistancePidTest_TC_ACC_DIST_EQ_33_TestD1Ev
FNDA:1,_ZN41AccDistancePidTest_TC_ACC_DIST_EQ_33_TestD1Ev
FN:439,_ZN41AccDistancePidTest_TC_ACC_DIST_EQ_33_TestD0Ev
FNDA:1,_ZN41AccDistancePidTest_TC_ACC_DIST_EQ_33_TestD0Ev
FN:439,_ZN41AccDistancePidTest_TC_ACC_DIST_EQ_33_TestC1Ev
FNDA:1,_ZN41AccDistancePidTest_TC_ACC_DIST_EQ_33_TestC1Ev
FN:449,_ZN41AccDistancePidTest_TC_ACC_DIST_EQ_34_TestD0Ev
FNDA:1,_ZN41AccDistancePidTest_TC_ACC_DIST_EQ_34_TestD0Ev
FN:449,_ZN41AccDistancePidTest_TC_ACC_DIST_EQ_34_TestC1Ev
FNDA:1,_ZN41AccDistancePidTest_TC_ACC_DIST_EQ_34_TestC1Ev
FN:449,_ZN41AccDistancePidTest_TC_ACC_DIST_EQ_34_TestD1Ev
FNDA:1,_ZN41AccDistancePidTest_TC_ACC_DIST_EQ_34_TestD1Ev
FN:449,_ZN41AccDistancePidTest_TC_ACC_DIST_EQ_34_Test8TestBodyEv
FNDA:1,_ZN41AccDistancePidTest_TC_ACC_DIST_EQ_34_Test8TestBodyEv
FN:459,_ZN41AccDistancePidTest_TC_ACC_DIST_EQ_35_TestD0Ev
FNDA:1,_ZN41AccDistancePidTest_TC_ACC_DIST_EQ_35_TestD0Ev
FN:459,_ZN41AccDistancePidTest_TC_ACC_DIST_EQ_35_TestD1Ev
FNDA:1,_ZN41AccDistancePidTest_TC_ACC_DIST_EQ_35_TestD1Ev
FN:459,_ZN41AccDistancePidTest_TC_ACC_DIST_EQ_35_TestC1Ev
FNDA:1,_ZN41AccDistancePidTest_TC_ACC_DIST_EQ_35_TestC1Ev
FN:459,_ZN41AccDistancePidTest_TC_ACC_DIST_EQ_35_Test8TestBodyEv
FNDA:1,_ZN41AccDistancePidTest_TC_ACC_DIST_EQ_35_Test8TestBodyEv
FN:469,_ZN41AccDistancePidTest_TC_ACC_DIST_EQ_36_TestC1Ev
FNDA:1,_ZN41AccDistancePidTest_TC_ACC_DIST_EQ_36_TestC1Ev
FN:469,_ZN41AccDistancePidTest_TC_ACC_DIST_EQ_36_TestD0Ev
FNDA:1,_ZN41AccDistancePidTest_TC_ACC_DIST_EQ_36_TestD0Ev
FN:469,_ZN41AccDistancePidTest_TC_ACC_DIST_EQ_36_Test8TestBodyEv
FNDA:1,_ZN41AccDistancePidTest_TC_ACC_DIST_EQ_36_Test8TestBodyEv
FN:469,_ZN41AccDistancePidTest_TC_ACC_DIST_EQ_36_TestD1Ev
FNDA:1,_ZN41AccDistancePidTest_TC_ACC_DIST_EQ_36_TestD1Ev
FN:476,_ZN41AccDistancePidTest_TC_ACC_DIST_EQ_37_TestD0Ev
FNDA:1,_ZN41AccDistancePidTest_TC_ACC_DIST_EQ_37_TestD0Ev
FN:476,_ZN41AccDistancePidTest_TC_ACC_DIST_EQ_37_Test8TestBodyEv
FNDA:1,_ZN41AccDistancePidTest_TC_ACC_DIST_EQ_37_Test8TestBodyEv
FN:476,_ZN41AccDistancePidTest_TC_ACC_DIST_EQ_37_TestC1Ev
FNDA:1,_ZN41AccDistancePidTest_TC_ACC_DIST_EQ_37_TestC1Ev
FN:476,_ZN41AccDistancePidTest_TC_ACC_DIST_EQ_37_TestD1Ev
FNDA:1,_ZN41AccDistancePidTest_TC_ACC_DIST_EQ_37_TestD1Ev
FN:483,_ZN41AccDistancePidTest_TC_ACC_DIST_EQ_38_TestC1Ev
FNDA:1,_ZN41AccDistancePidTest_TC_ACC_DIST_EQ_38_TestC1Ev
FN:483,_ZN41AccDistancePidTest_TC_ACC_DIST_EQ_38_TestD1Ev
FNDA:1,_ZN41AccDistancePidTest_TC_ACC_DIST_EQ_38_TestD1Ev
FN:483,_ZN41AccDistancePidTest_TC_ACC_DIST_EQ_38_TestD0Ev
FNDA:1,_ZN41AccDistancePidTest_TC_ACC_DIST_EQ_38_TestD0Ev
FN:483,_ZN41AccDistancePidTest_TC_ACC_DIST_EQ_38_Test8TestBodyEv
FNDA:1,_ZN41AccDistancePidTest_TC_ACC_DIST_EQ_38_Test8TestBodyEv
FN:491,_ZN41AccDistancePidTest_TC_ACC_DIST_EQ_39_TestD0Ev
FNDA:1,_ZN41AccDistancePidTest_TC_ACC_DIST_EQ_39_TestD0Ev
FN:491,_ZN41AccDistancePidTest_TC_ACC_DIST_EQ_39_Test8TestBodyEv
FNDA:1,_ZN41AccDistancePidTest_TC_ACC_DIST_EQ_39_Test8TestBodyEv
FN:491,_ZN41AccDistancePidTest_TC_ACC_DIST_EQ_39_TestD1Ev
FNDA:1,_ZN41AccDistancePidTest_TC_ACC_DIST_EQ_39_TestD1Ev
FN:491,_ZN41AccDistancePidTest_TC_ACC_DIST_EQ_39_TestC1Ev
FNDA:1,_ZN41AccDistancePidTest_TC_ACC_DIST_EQ_39_TestC1Ev
FN:502,_ZN41AccDistancePidTest_TC_ACC_DIST_EQ_40_Test8TestBodyEv
FNDA:1,_ZN41AccDistancePidTest_TC_ACC_DIST_EQ_40_Test8TestBodyEv
FN:502,_ZN41AccDistancePidTest_TC_ACC_DIST_EQ_40_TestD1Ev
FNDA:1,_ZN41AccDistancePidTest_TC_ACC_DIST_EQ_40_TestD1Ev
FN:502,_ZN41AccDistancePidTest_TC_ACC_DIST_EQ_40_TestD0Ev
FNDA:1,_ZN41AccDistancePidTest_TC_ACC_DIST_EQ_40_TestD0Ev
FN:502,_ZN41AccDistancePidTest_TC_ACC_DIST_EQ_40_TestC1Ev
FNDA:1,_ZN41AccDistancePidTest_TC_ACC_DIST_EQ_40_TestC1Ev
FN:511,_ZN41AccDistancePidTest_TC_ACC_DIST_EQ_41_TestD1Ev
FNDA:1,_ZN41AccDistancePidTest_TC_ACC_DIST_EQ_41_TestD1Ev
FN:511,_ZN41AccDistancePidTest_TC_ACC_DIST_EQ_41_TestD0Ev
FNDA:1,_ZN41AccDistancePidTest_TC_ACC_DIST_EQ_41_TestD0Ev
FN:511,_ZN41AccDistancePidTest_TC_ACC_DIST_EQ_41_Test8TestBodyEv
FNDA:1,_ZN41AccDistancePidTest_TC_ACC_DIST_EQ_41_Test8TestBodyEv
FN:511,_ZN41AccDistancePidTest_TC_ACC_DIST_EQ_41_TestC1Ev
FNDA:1,_ZN41AccDistancePidTest_TC_ACC_DIST_EQ_41_TestC1Ev
FN:522,_ZN41AccDistancePidTest_TC_ACC_DIST_EQ_42_TestD0Ev
FNDA:1,_ZN41AccDistancePidTest_TC_ACC_DIST_EQ_42_TestD0Ev
FN:522,_ZN41AccDistancePidTest_TC_ACC_DIST_EQ_42_TestC1Ev
FNDA:1,_ZN41AccDistancePidTest_TC_ACC_DIST_EQ_42_TestC1Ev
FN:522,_ZN41AccDistancePidTest_TC_ACC_DIST_EQ_42_TestD1Ev
FNDA:1,_ZN41AccDistancePidTest_TC_ACC_DIST_EQ_42_TestD1Ev
FN:522,_ZN41AccDistancePidTest_TC_ACC_DIST_EQ_42_Test8TestBodyEv
FNDA:1,_ZN41AccDistancePidTest_TC_ACC_DIST_EQ_42_Test8TestBodyEv
FN:532,_ZN41AccDistancePidTest_TC_ACC_DIST_EQ_43_TestD0Ev
FNDA:1,_ZN41AccDistancePidTest_TC_ACC_DIST_EQ_43_TestD0Ev
FN:532,_ZN41AccDistancePidTest_TC_ACC_DIST_EQ_43_TestD1Ev
FNDA:1,_ZN41AccDistancePidTest_TC_ACC_DIST_EQ_43_TestD1Ev
FN:532,_ZN41AccDistancePidTest_TC_ACC_DIST_EQ_43_Test8TestBodyEv
FNDA:1,_ZN41AccDistancePidTest_TC_ACC_DIST_EQ_43_Test8TestBodyEv
FN:532,_ZN41AccDistancePidTest_TC_ACC_DIST_EQ_43_TestC1Ev
FNDA:1,_ZN41AccDistancePidTest_TC_ACC_DIST_EQ_43_TestC1Ev
FN:542,_ZN41AccDistancePidTest_TC_ACC_DIST_EQ_44_TestC1Ev
FNDA:1,_ZN41AccDistancePidTest_TC_ACC_DIST_EQ_44_TestC1Ev
FN:542,_ZN41AccDistancePidTest_TC_ACC_DIST_EQ_44_TestD1Ev
FNDA:1,_ZN41AccDistancePidTest_TC_ACC_DIST_EQ_44_TestD1Ev
FN:542,_ZN41AccDistancePidTest_TC_ACC_DIST_EQ_44_TestD0Ev
FNDA:1,_ZN41AccDistancePidTest_TC_ACC_DIST_EQ_44_TestD0Ev
FN:542,_ZN41AccDistancePidTest_TC_ACC_DIST_EQ_44_Test8TestBodyEv
FNDA:1,_ZN41AccDistancePidTest_TC_ACC_DIST_EQ_44_Test8TestBodyEv
FN:552,_ZN41AccDistancePidTest_TC_ACC_DIST_EQ_45_TestD1Ev
FNDA:1,_ZN41AccDistancePidTest_TC_ACC_DIST_EQ_45_TestD1Ev
FN:552,_ZN41AccDistancePidTest_TC_ACC_DIST_EQ_45_Test8TestBodyEv
FNDA:1,_ZN41AccDistancePidTest_TC_ACC_DIST_EQ_45_Test8TestBodyEv
FN:552,_ZN41AccDistancePidTest_TC_ACC_DIST_EQ_45_TestC1Ev
FNDA:1,_ZN41AccDistancePidTest_TC_ACC_DIST_EQ_45_TestC1Ev
FN:552,_ZN41AccDistancePidTest_TC_ACC_DIST_EQ_45_TestD0Ev
FNDA:1,_ZN41AccDistancePidTest_TC_ACC_DIST_EQ_45_TestD0Ev
FN:568,_ZN41AccDistancePidTest_TC_ACC_DIST_EQ_46_TestD1Ev
FNDA:1,_ZN41AccDistancePidTest_TC_ACC_DIST_EQ_46_TestD1Ev
FN:568,_ZN41AccDistancePidTest_TC_ACC_DIST_EQ_46_TestC1Ev
FNDA:1,_ZN41AccDistancePidTest_TC_ACC_DIST_EQ_46_TestC1Ev
FN:568,_ZN41AccDistancePidTest_TC_ACC_DIST_EQ_46_TestD0Ev
FNDA:1,_ZN41AccDistancePidTest_TC_ACC_DIST_EQ_46_TestD0Ev
FN:568,_ZN41AccDistancePidTest_TC_ACC_DIST_EQ_46_Test8TestBodyEv
FNDA:1,_ZN41AccDistancePidTest_TC_ACC_DIST_EQ_46_Test8TestBodyEv
FN:585,_ZN41AccDistancePidTest_TC_ACC_DIST_EQ_47_TestD0Ev
FNDA:1,_ZN41AccDistancePidTest_TC_ACC_DIST_EQ_47_TestD0Ev
FN:585,_ZN41AccDistancePidTest_TC_ACC_DIST_EQ_47_TestD1Ev
FNDA:1,_ZN41AccDistancePidTest_TC_ACC_DIST_EQ_47_TestD1Ev
FN:585,_ZN41AccDistancePidTest_TC_ACC_DIST_EQ_47_TestC1Ev
FNDA:1,_ZN41AccDistancePidTest_TC_ACC_DIST_EQ_47_TestC1Ev
FN:585,_ZN41AccDistancePidTest_TC_ACC_DIST_EQ_47_Test8TestBodyEv
FNDA:1,_ZN41AccDistancePidTest_TC_ACC_DIST_EQ_47_Test8TestBodyEv
FN:598,_ZN41AccDistancePidTest_TC_ACC_DIST_EQ_48_TestD0Ev
FNDA:1,_ZN41AccDistancePidTest_TC_ACC_DIST_EQ_48_TestD0Ev
FN:598,_ZN41AccDistancePidTest_TC_ACC_DIST_EQ_48_TestD1Ev
FNDA:1,_ZN41AccDistancePidTest_TC_ACC_DIST_EQ_48_TestD1Ev
FN:598,_ZN41AccDistancePidTest_TC_ACC_DIST_EQ_48_TestC1Ev
FNDA:1,_ZN41AccDistancePidTest_TC_ACC_DIST_EQ_48_TestC1Ev
FN:598,_ZN41AccDistancePidTest_TC_ACC_DIST_EQ_48_Test8TestBodyEv
FNDA:1,_ZN41AccDistancePidTest_TC_ACC_DIST_EQ_48_Test8TestBodyEv
FN:616,_ZN41AccDistancePidTest_TC_ACC_DIST_EQ_49_TestC1Ev
FNDA:1,_ZN41AccDistancePidTest_TC_ACC_DIST_EQ_49_TestC1Ev
FN:616,_ZN41AccDistancePidTest_TC_ACC_DIST_EQ_49_Test8TestBodyEv
FNDA:1,_ZN41AccDistancePidTest_TC_ACC_DIST_EQ_49_Test8TestBodyEv
FN:616,_ZN41AccDistancePidTest_TC_ACC_DIST_EQ_49_TestD1Ev
FNDA:1,_ZN41AccDistancePidTest_TC_ACC_DIST_EQ_49_TestD1Ev
FN:616,_ZN41AccDistancePidTest_TC_ACC_DIST_EQ_49_TestD0Ev
FNDA:1,_ZN41AccDistancePidTest_TC_ACC_DIST_EQ_49_TestD0Ev
FN:625,_ZN41AccDistancePidTest_TC_ACC_DIST_EQ_50_Test8TestBodyEv
FNDA:1,_ZN41AccDistancePidTest_TC_ACC_DIST_EQ_50_Test8TestBodyEv
FN:625,_ZN41AccDistancePidTest_TC_ACC_DIST_EQ_50_TestC1Ev
FNDA:1,_ZN41AccDistancePidTest_TC_ACC_DIST_EQ_50_TestC1Ev
FN:625,_ZN41AccDistancePidTest_TC_ACC_DIST_EQ_50_TestD1Ev
FNDA:1,_ZN41AccDistancePidTest_TC_ACC_DIST_EQ_50_TestD1Ev
FN:625,_ZN41AccDistancePidTest_TC_ACC_DIST_EQ_50_TestD0Ev
FNDA:1,_ZN41AccDistancePidTest_TC_ACC_DIST_EQ_50_TestD0Ev
FNF:202
FNH:202
DA:24,50
DA:26,50
DA:27,50
DA:28,50
DA:29,50
DA:47,50
DA:50,50
DA:53,50
DA:56,50
DA:57,50
DA:58,50
DA:59,50
DA:60,50
DA:61,50
DA:64,50
DA:65,50
DA:66,50
DA:69,50
DA:70,50
DA:81,1
DA:81,1
DA:81,1
DA:81,1
DA:84,1
DA:85,1
DA:86,1
DA:87,1
DA:89,1
DA:92,1
DA:93,1
DA:96,1
DA:96,1
DA:96,1
DA:96,1
DA:99,1
DA:100,1
DA:101,1
DA:102,1
DA:103,1
DA:106,1
DA:107,1
DA:110,1
DA:110,1
DA:110,1
DA:110,1
DA:112,1
DA:113,1
DA:114,1
DA:115,1
DA:117,1
DA:118,1
DA:121,1
DA:121,1
DA:121,1
DA:121,1
DA:123,1
DA:124,1
DA:125,1
DA:126,1
DA:127,1
DA:128,1
DA:131,1
DA:131,1
DA:131,1
DA:131,1
DA:133,1
DA:134,1
DA:135,1
DA:136,1
DA:137,1
DA:138,1
DA:141,1
DA:141,1
DA:141,1
DA:141,1
DA:144,1
DA:145,1
DA:146,1
DA:147,1
DA:148,1
DA:149,1
DA:152,1
DA:152,1
DA:152,1
DA:152,1
DA:155,1
DA:156,1
DA:157,1
DA:158,1
DA:159,1
DA:160,1
DA:163,1
DA:163,1
DA:163,1
DA:163,1
DA:165,1
DA:166,1
DA:167,1
DA:168,1
DA:169,1
DA:170,1
DA:173,1
DA:173,1
DA:173,1
DA:173,1
DA:177,1
DA:178,1
DA:180,1
DA:181,1
DA:184,1
DA:184,1
DA:184,1
DA:184,1
DA:186,1
DA:187,1
DA:188,1
DA:190,1
DA:191,1
DA:194,1
DA:194,1
DA:194,1
DA:194,1
DA:196,1
DA:197,1
DA:198,1
DA:199,1
DA:200,1
DA:201,1
DA:202,1
DA:205,1
DA:205,1
DA:205,1
DA:205,1
DA:209,1
DA:210,1
DA:211,1
DA:212,1
DA:213,1
DA:214,1
DA:215,1
DA:218,1
DA:218,1
DA:218,1
DA:218,1
DA:222,1
DA:223,1
DA:224,1
DA:225,1
DA:227,1
DA:229,1
DA:230,1
DA:231,1
DA:234,1
DA:234,1
DA:234,1
DA:234,1
DA:237,1
DA:238,1
DA:239,1
DA:240,1
DA:241,1
DA:242,1
DA:243,1
DA:244,1
DA:247,1
DA:247,1
DA:247,1
DA:247,1
DA:249,1
DA:250,1
DA:251,1
DA:252,1
DA:254,1
DA:255,1
DA:256,1
DA:259,1
DA:259,1
DA:259,1
DA:259,1
DA:262,1
DA:263,1
DA:264,1
DA:265,1
DA:266,1
DA:268,1
DA:269,1
DA:270,1
DA:273,1
DA:273,1
DA:273,1
DA:273,1
DA:275,1
DA:276,1
DA:277,1
DA:279,1
DA:280,1
DA:283,1
DA:283,1
DA:283,1
DA:283,1
DA:285,1
DA:286,1
DA:287,1
DA:289,1
DA:290,1
DA:293,1
DA:293,1
DA:293,1
DA:293,1
DA:295,1
DA:297,1
DA:298,1
DA:299,1
DA:302,1
DA:302,1
DA:302,1
DA:302,1
DA:304,1
DA:305,1
DA:306,1
DA:307,1
DA:308,1
DA:309,1
DA:310,1
DA:313,1
DA:313,1
DA:313,1
DA:313,1
DA:315,1
DA:317,1
DA:318,1
DA:320,1
DA:321,1
DA:324,1
DA:324,1
DA:324,1
DA:324,1
DA:327,1
DA:328,1
DA:330,1
DA:331,1
DA:334,1
DA:334,1
DA:334,1
DA:334,1
DA:336,1
DA:337,1
DA:339,1
DA:340,1
DA:343,1
DA:343,1
DA:343,1
DA:343,1
DA:345,1
DA:346,1
DA:347,1
DA:348,1
DA:351,1
DA:351,1
DA:351,1
DA:351,1
DA:353,1
DA:354,1
DA:355,1
DA:356,1
DA:359,1
DA:359,1
DA:359,1
DA:359,1
DA:362,1
DA:363,1
DA:364,1
DA:365,1
DA:368,1
DA:368,1
DA:368,1
DA:368,1
DA:371,1
DA:374,1
DA:375,1
DA:378,1
DA:379,1
DA:382,1
DA:382,1
DA:382,1
DA:382,1
DA:387,1
DA:388,1
DA:391,1
DA:392,1
DA:395,1
DA:396,1
DA:399,1
DA:399,1
DA:399,1
DA:399,1
DA:401,1
DA:402,1
DA:403,1
DA:404,1
DA:405,1
DA:406,1
DA:407,1
DA:410,1
DA:410,1
DA:410,1
DA:410,1
DA:416,1
DA:417,1
DA:418,1
DA:421,1
DA:421,1
DA:421,1
DA:421,1
DA:423,1
DA:424,1
DA:425,1
DA:426,1
DA:429,1
DA:429,1
DA:429,1
DA:429,1
DA:431,1
DA:432,1
DA:433,1
DA:434,1
DA:435,1
DA:436,1
DA:439,1
DA:439,1
DA:439,1
DA:439,1
DA:441,1
DA:442,1
DA:443,1
DA:444,1
DA:445,1
DA:446,1
DA:449,1
DA:449,1
DA:449,1
DA:449,1
DA:451,1
DA:452,1
DA:453,1
DA:454,1
DA:455,1
DA:456,1
DA:459,1
DA:459,1
DA:459,1
DA:459,1
DA:461,1
DA:462,1
DA:463,1
DA:464,1
DA:465,1
DA:466,1
DA:469,1
DA:469,1
DA:469,1
DA:469,1
DA:471,1
DA:472,1
DA:473,1
DA:476,1
DA:476,1
DA:476,1
DA:476,1
DA:478,1
DA:479,1
DA:480,1
DA:483,1
DA:483,1
DA:483,1
DA:483,1
DA:485,1
DA:486,1
DA:487,1
DA:488,1
DA:491,1
DA:491,1
DA:491,1
DA:491,1
DA:493,1
DA:494,1
DA:495,1
DA:496,1
DA:497,1
DA:498,1
DA:499,1
DA:502,1
DA:502,1
DA:502,1
DA:502,1
DA:504,1
DA:505,1
DA:507,1
DA:508,1
DA:511,1
DA:511,1
DA:511,1
DA:511,1
DA:514,1
DA:515,1
DA:516,1
DA:517,1
DA:518,1
DA:519,1
DA:522,1
DA:522,1
DA:522,1
DA:522,1
DA:524,1
DA:525,1
DA:526,1
DA:527,1
DA:528,1
DA:529,1
DA:532,1
DA:532,1
DA:532,1
DA:532,1
DA:534,1
DA:535,1
DA:536,1
DA:537,1
DA:538,1
DA:539,1
DA:542,1
DA:542,1
DA:542,1
DA:542,1
DA:545,1
DA:546,1
DA:547,1
DA:548,1
DA:549,1
DA:552,1
DA:552,1
DA:552,1
DA:552,1
DA:555,1
DA:556,1
DA:557,1
DA:558,1
DA:561,1
DA:562,1
DA:563,1
DA:564,1
DA:568,1
DA:568,1
DA:568,1
DA:568,1
DA:573,1
DA:574,1
DA:575,1
DA:576,1
DA:577,1
DA:578,1
DA:580,1
DA:581,1
DA:582,1
DA:585,1
DA:585,1
DA:585,1
DA:585,1
DA:588,1
DA:589,1
DA:590,1
DA:591,1
DA:592,1
DA:594,1
DA:595,1
DA:598,1
DA:598,1
DA:598,1
DA:598,1
DA:602,1
DA:603,1
DA:604,1
DA:605,1
DA:606,1
DA:607,1
DA:610,1
DA:611,1
DA:612,1
DA:613,1
DA:616,1
DA:616,1
DA:616,1
DA:616,1
DA:619,1
DA:620,1
DA:621,1
DA:622,1
DA:625,1
DA:625,1
DA:625,1
DA:625,1
DA:628,1
DA:629,1
DA:631,1
DA:632,1
LF:504
LH:504
end_of_record
SF:C:/msys64/mingw64/include/c++/14.2.0/bits/ios_base.h
FN:752,_ZNKSt8ios_base9precisionEv
FNDA:0,_ZNKSt8ios_base9precisionEv
FN:761,_ZNSt8ios_base9precisionEx
FNDA:0,_ZNSt8ios_base9precisionEx
FNF:2
FNH:0
DA:752,0
DA:753,0
DA:761,0
DA:763,0
DA:764,0
DA:765,0
LF:6
LH:0
end_of_record
SF:C:/msys64/mingw64/include/c++/14.2.0/bits/unique_ptr.h
FN:87,_ZNKSt14default_deleteINSt7__cxx1112basic_stringIcSt11char_traitsIcESaIcEEEEclEPS5_
FNDA:0,_ZNKSt14default_deleteINSt7__cxx1112basic_stringIcSt11char_traitsIcESaIcEEEEclEPS5_
FN:87,_ZNKSt14default_deleteINSt7__cxx1118basic_stringstreamIcSt11char_traitsIcESaIcEEEEclEPS5_
FNDA:0,_ZNKSt14default_deleteINSt7__cxx1118basic_stringstreamIcSt11char_traitsIcESaIcEEEEclEPS5_
FN:168,_ZNSt15__uniq_ptr_implINSt7__cxx1112basic_stringIcSt11char_traitsIcESaIcEEESt14default_deleteIS5_EEC2Ev
FNDA:0,_ZNSt15__uniq_ptr_implINSt7__cxx1112basic_stringIcSt11char_traitsIcESaIcEEESt14default_deleteIS5_EEC2Ev
FN:170,_ZNSt15__uniq_ptr_implINSt7__cxx1112basic_stringIcSt11char_traitsIcESaIcEEESt14default_deleteIS5_EEC2EPS5_
FNDA:0,_ZNSt15__uniq_ptr_implINSt7__cxx1112basic_stringIcSt11char_traitsIcESaIcEEESt14default_deleteIS5_EEC2EPS5_
FN:183,_ZNSt15__uniq_ptr_implINSt7__cxx1112basic_stringIcSt11char_traitsIcESaIcEEESt14default_deleteIS5_EEaSEOS8_
FNDA:0,_ZNSt15__uniq_ptr_implINSt7__cxx1112basic_stringIcSt11char_traitsIcESaIcEEESt14default_deleteIS5_EEaSEOS8_
FN:191,_ZNSt15__uniq_ptr_implINSt7__cxx1112basic_stringIcSt11char_traitsIcESaIcEEESt14default_deleteIS5_EE6_M_ptrEv
FNDA:0,_ZNSt15__uniq_ptr_implINSt7__cxx1112basic_stringIcSt11char_traitsIcESaIcEEESt14default_deleteIS5_EE6_M_ptrEv
FN:191,_ZNSt15__uniq_ptr_implINSt7__cxx1118basic_stringstreamIcSt11char_traitsIcESaIcEEESt14default_deleteIS5_EE6_M_ptrEv
FNDA:0,_ZNSt15__uniq_ptr_implINSt7__cxx1118basic_stringstreamIcSt11char_traitsIcESaIcEEESt14default_deleteIS5_EE6_M_ptrEv
FN:193,_ZNKSt15__uniq_ptr_implINSt7__cxx1112basic_stringIcSt11char_traitsIcESaIcEEESt14default_deleteIS5_EE6_M_ptrEv
FNDA:0,_ZNKSt15__uniq_ptr_implINSt7__cxx1112basic_stringIcSt11char_traitsIcESaIcEEESt14default_deleteIS5_EE6_M_ptrEv
FN:193,_ZNKSt15__uniq_ptr_implINSt7__cxx1118basic_stringstreamIcSt11char_traitsIcESaIcEEESt14default_deleteIS5_EE6_M_ptrEv
FNDA:0,_ZNKSt15__uniq_ptr_implINSt7__cxx1118basic_stringstreamIcSt11char_traitsIcESaIcEEESt14default_deleteIS5_EE6_M_ptrEv
FN:195,_ZNSt15__uniq_ptr_implINSt7__cxx1118basic_stringstreamIcSt11char_traitsIcESaIcEEESt14default_deleteIS5_EE10_M_deleterEv
FNDA:0,_ZNSt15__uniq_ptr_implINSt7__cxx1118basic_stringstreamIcSt11char_traitsIcESaIcEEESt14default_deleteIS5_EE10_M_deleterEv
FN:195,_ZNSt15__uniq_ptr_implINSt7__cxx1112basic_stringIcSt11char_traitsIcESaIcEEESt14default_deleteIS5_EE10_M_deleterEv
FNDA:0,_ZNSt15__uniq_ptr_implINSt7__cxx1112basic_stringIcSt11char_traitsIcESaIcEEESt14default_deleteIS5_EE10_M_deleterEv
FN:200,_ZNSt15__uniq_ptr_implINSt7__cxx1112basic_stringIcSt11char_traitsIcESaIcEEESt14default_deleteIS5_EE5resetEPS5_
FNDA:0,_ZNSt15__uniq_ptr_implINSt7__cxx1112basic_stringIcSt11char_traitsIcESaIcEEESt14default_deleteIS5_EE5resetEPS5_
FN:209,_ZNSt15__uniq_ptr_implINSt7__cxx1112basic_stringIcSt11char_traitsIcESaIcEEESt14default_deleteIS5_EE7releaseEv
FNDA:0,_ZNSt15__uniq_ptr_implINSt7__cxx1112basic_stringIcSt11char_traitsIcESaIcEEESt14default_deleteIS5_EE7releaseEv
FN:237,_ZNSt15__uniq_ptr_dataINSt7__cxx1112basic_stringIcSt11char_traitsIcESaIcEEESt14default_deleteIS5_ELb1ELb1EEaSEOS8_
FNDA:0,_ZNSt15__uniq_ptr_dataINSt7__cxx1112basic_stringIcSt11char_traitsIcESaIcEEESt14default_deleteIS5_ELb1ELb1EEaSEOS8_
FN:298,_ZNSt10unique_ptrINSt7__cxx1112basic_stringIcSt11char_traitsIcESaIcEEESt14default_deleteIS5_EEC1IS7_vEEv
FNDA:0,_ZNSt10unique_ptrINSt7__cxx1112basic_stringIcSt11char_traitsIcESaIcEEESt14default_deleteIS5_EEC1IS7_vEEv
FN:311,_ZNSt10unique_ptrINSt7__cxx1112basic_stringIcSt11char_traitsIcESaIcEEESt14default_deleteIS5_EEC1IS7_vEEPS5_
FNDA:0,_ZNSt10unique_ptrINSt7__cxx1112basic_stringIcSt11char_traitsIcESaIcEEESt14default_deleteIS5_EEC1IS7_vEEPS5_
FN:392,_ZNSt10unique_ptrINSt7__cxx1112basic_stringIcSt11char_traitsIcESaIcEEESt14default_deleteIS5_EED1Ev
FNDA:0,_ZNSt10unique_ptrINSt7__cxx1112basic_stringIcSt11char_traitsIcESaIcEEESt14default_deleteIS5_EED1Ev
FN:392,_ZNSt10unique_ptrINSt7__cxx1118basic_stringstreamIcSt11char_traitsIcESaIcEEESt14default_deleteIS5_EED1Ev
FNDA:0,_ZNSt10unique_ptrINSt7__cxx1118basic_stringstreamIcSt11char_traitsIcESaIcEEESt14default_deleteIS5_EED1Ev
FN:408,_ZNSt10unique_ptrINSt7__cxx1112basic_stringIcSt11char_traitsIcESaIcEEESt14default_deleteIS5_EEaSEOS8_
FNDA:0,_ZNSt10unique_ptrINSt7__cxx1112basic_stringIcSt11char_traitsIcESaIcEEESt14default_deleteIS5_EEaSEOS8_
FN:445,_ZNKSt10unique_ptrINSt7__cxx1118basic_stringstreamIcSt11char_traitsIcESaIcEEESt14default_deleteIS5_EEdeEv
FNDA:0,_ZNKSt10unique_ptrINSt7__cxx1118basic_stringstreamIcSt11char_traitsIcESaIcEEESt14default_deleteIS5_EEdeEv
FN:454,_ZNKSt10unique_ptrINSt7__cxx1112basic_stringIcSt11char_traitsIcESaIcEEESt14default_deleteIS5_EEptEv
FNDA:0,_ZNKSt10unique_ptrINSt7__cxx1112basic_stringIcSt11char_traitsIcESaIcEEESt14default_deleteIS5_EEptEv
FN:463,_ZNKSt10unique_ptrINSt7__cxx1118basic_stringstreamIcSt11char_traitsIcESaIcEEESt14default_deleteIS5_EE3getEv
FNDA:0,_ZNKSt10unique_ptrINSt7__cxx1118basic_stringstreamIcSt11char_traitsIcESaIcEEESt14default_deleteIS5_EE3getEv
FN:463,_ZNKSt10unique_ptrINSt7__cxx1112basic_stringIcSt11char_traitsIcESaIcEEESt14default_deleteIS5_EE3getEv
FNDA:0,_ZNKSt10unique_ptrINSt7__cxx1112basic_stringIcSt11char_traitsIcESaIcEEESt14default_deleteIS5_EE3getEv
FN:469,_ZNSt10unique_ptrINSt7__cxx1118basic_stringstreamIcSt11char_traitsIcESaIcEEESt14default_deleteIS5_EE11get_deleterEv
FNDA:0,_ZNSt10unique_ptrINSt7__cxx1118basic_stringstreamIcSt11char_traitsIcESaIcEEESt14default_deleteIS5_EE11get_deleterEv
FN:469,_ZNSt10unique_ptrINSt7__cxx1112basic_stringIcSt11char_traitsIcESaIcEEESt14default_deleteIS5_EE11get_deleterEv
FNDA:0,_ZNSt10unique_ptrINSt7__cxx1112basic_stringIcSt11char_traitsIcESaIcEEESt14default_deleteIS5_EE11get_deleterEv
FN:480,_ZNKSt10unique_ptrINSt7__cxx1112basic_stringIcSt11char_traitsIcESaIcEEESt14default_deleteIS5_EEcvbEv
FNDA:0,_ZNKSt10unique_ptrINSt7__cxx1112basic_stringIcSt11char_traitsIcESaIcEEESt14default_deleteIS5_EEcvbEv
FN:845,_ZSteqINSt7__cxx1112basic_stringIcSt11char_traitsIcESaIcEEESt14default_deleteIS5_EEbRKSt10unique_ptrIT_T0_EDn
FNDA:0,_ZSteqINSt7__cxx1112basic_stringIcSt11char_traitsIcESaIcEEESt14default_deleteIS5_EEbRKSt10unique_ptrIT_T0_EDn
FN:869,_ZStneINSt7__cxx1112basic_stringIcSt11char_traitsIcESaIcEEESt14default_deleteIS5_EEbRKSt10unique_ptrIT_T0_EDn
FNDA:0,_ZStneINSt7__cxx1112basic_stringIcSt11char_traitsIcESaIcEEESt14default_deleteIS5_EEbRKSt10unique_ptrIT_T0_EDn
FN:1075,_ZSt11make_uniqueINSt7__cxx1112basic_stringIcSt11char_traitsIcESaIcEEEJEENSt8__detail9_MakeUniqIT_E15__single_objectEDpOT0_
FNDA:0,_ZSt11make_uniqueINSt7__cxx1112basic_stringIcSt11char_traitsIcESaIcEEEJEENSt8__detail9_MakeUniqIT_E15__single_objectEDpOT0_
FNF:29
FNH:0
DA:87,0
DA:93,0
DA:94,0
DA:87,0
DA:93,0
DA:94,0
DA:168,0
DA:170,0
DA:183,0
DA:185,0
DA:186,0
DA:187,0
DA:191,0
DA:191,0
DA:193,0
DA:193,0
DA:195,0
DA:195,0
DA:200,0
DA:202,0
DA:203,0
DA:204,0
DA:205,0
DA:206,0
DA:209,0
DA:211,0
DA:212,0
DA:213,0
DA:237,0
DA:298,0
DA:299,0
DA:300,0
DA:311,0
DA:312,0
DA:313,0
DA:392,0
DA:396,0
DA:397,0
DA:398,0
DA:399,0
DA:400,0
DA:392,0
DA:396,0
DA:397,0
DA:398,0
DA:399,0
DA:400,0
DA:408,0
DA:445,0
DA:447,0
DA:448,0
DA:454,0
DA:457,0
DA:463,0
DA:464,0
DA:463,0
DA:464,0
DA:469,0
DA:470,0
DA:469,0
DA:470,0
DA:480,0
DA:481,0
DA:845,0
DA:846,0
DA:869,0
DA:870,0
DA:1075,0
DA:1076,0
LF:69
LH:0
end_of_record
SF:C:/msys64/mingw64/include/c++/14.2.0/bits/basic_string.tcc
FN:221,_ZNSt7__cxx1112basic_stringIcSt11char_traitsIcESaIcEE12_M_constructIPKcEEvT_S8_St20forward_iterator_tag
FNDA:0,_ZNSt7__cxx1112basic_stringIcSt11char_traitsIcESaIcEE12_M_constructIPKcEEvT_S8_St20forward_iterator_tag
FN:239,_ZZNSt7__cxx1112basic_stringIcSt11char_traitsIcESaIcEE12_M_constructIPKcEEvT_S8_St20forward_iterator_tagEN6_GuardC1EPS4_
FNDA:0,_ZZNSt7__cxx1112basic_stringIcSt11char_traitsIcESaIcEE12_M_constructIPKcEEvT_S8_St20forward_iterator_tagEN6_GuardC1EPS4_
FN:242,_ZZNSt7__cxx1112basic_stringIcSt11char_traitsIcESaIcEE12_M_constructIPKcEEvT_S8_St20forward_iterator_tagEN6_GuardD1Ev
FNDA:0,_ZZNSt7__cxx1112basic_stringIcSt11char_traitsIcESaIcEE12_M_constructIPKcEEvT_S8_St20forward_iterator_tagEN6_GuardD1Ev
FNF:3
FNH:0
DA:221,0
DA:225,0
DA:227,0
DA:229,0
DA:230,0
DA:239,0
DA:242,0
DA:245,0
DA:247,0
DA:249,0
DA:251,0
DA:252,0
LF:12
LH:0
end_of_record
SF:C:/Projects/GoogleTestProject/googletest/googletest/include/gtest/internal/gtest-port.h
FN:1082,_ZN7testing8internal8GTestLog9GetStreamEv
FNDA:0,_ZN7testing8internal8GTestLog9GetStreamEv
FNF:1
FNH:0
DA:1082,0
LF:1
LH:0
end_of_record
SF:C:/Projects/GoogleTestProject/googletest/googletest/include/gtest/internal/gtest-internal.h
FN:293,_ZN7testing8internal13FloatingPointIfEC1ERKf
FNDA:0,_ZN7testing8internal13FloatingPointIfEC1ERKf
FN:315,_ZNK7testing8internal13FloatingPointIfE13exponent_bitsEv
FNDA:0,_ZNK7testing8internal13FloatingPointIfE13exponent_bitsEv
FN:318,_ZNK7testing8internal13FloatingPointIfE13fraction_bitsEv
FNDA:0,_ZNK7testing8internal13FloatingPointIfE13fraction_bitsEv
FN:324,_ZNK7testing8internal13FloatingPointIfE6is_nanEv
FNDA:0,_ZNK7testing8internal13FloatingPointIfE6is_nanEv
FN:336,_ZNK7testing8internal13FloatingPointIfE12AlmostEqualsERKS2_
FNDA:0,_ZNK7testing8internal13FloatingPointIfE12AlmostEqualsERKS2_
FN:367,_ZN7testing8internal13FloatingPointIfE24SignAndMagnitudeToBiasedERKj
FNDA:0,_ZN7testing8internal13FloatingPointIfE24SignAndMagnitudeToBiasedERKj
FN:379,_ZN7testing8internal13FloatingPointIfE38DistanceBetweenSignAndMagnitudeNumbersERKjS4_
FNDA:0,_ZN7testing8internal13FloatingPointIfE38DistanceBetweenSignAndMagnitudeNumbersERKjS4_
FN:418,_ZN7testing8internal9GetTypeIdI18AccDistancePidTestEEPKvv
FNDA:100,_ZN7testing8internal9GetTypeIdI18AccDistancePidTestEEPKvv
FN:437,_ZN7testing8internal15TestFactoryBaseD2Ev
FNDA:0,_ZN7testing8internal15TestFactoryBaseD2Ev
FN:444,_ZN7testing8internal15TestFactoryBaseC2Ev
FNDA:0,_ZN7testing8internal15TestFactoryBaseC2Ev
FN:456,_ZN7testing8internal15TestFactoryImplI41AccDistancePidTest_TC_ACC_DIST_EQ_32_TestE10CreateTestEv
FNDA:1,_ZN7testing8internal15TestFactoryImplI41AccDistancePidTest_TC_ACC_DIST_EQ_32_TestE10CreateTestEv
FN:456,_ZN7testing8internal15TestFactoryImplI41AccDistancePidTest_TC_ACC_DIST_EQ_33_TestE10CreateTestEv
FNDA:1,_ZN7testing8internal15TestFactoryImplI41AccDistancePidTest_TC_ACC_DIST_EQ_33_TestE10CreateTestEv
FN:456,_ZN7testing8internal15TestFactoryImplI41AccDistancePidTest_TC_ACC_DIST_EQ_01_TestE10CreateTestEv
FNDA:1,_ZN7testing8internal15TestFactoryImplI41AccDistancePidTest_TC_ACC_DIST_EQ_01_TestE10CreateTestEv
FN:456,_ZN7testing8internal15TestFactoryImplI41AccDistancePidTest_TC_ACC_DIST_EQ_34_TestE10CreateTestEv
FNDA:1,_ZN7testing8internal15TestFactoryImplI41AccDistancePidTest_TC_ACC_DIST_EQ_34_TestE10CreateTestEv
FN:456,_ZN7testing8internal15TestFactoryImplI41AccDistancePidTest_TC_ACC_DIST_EQ_35_TestE10CreateTestEv
FNDA:1,_ZN7testing8internal15TestFactoryImplI41AccDistancePidTest_TC_ACC_DIST_EQ_35_TestE10CreateTestEv
FN:456,_ZN7testing8internal15TestFactoryImplI41AccDistancePidTest_TC_ACC_DIST_EQ_36_TestE10CreateTestEv
FNDA:1,_ZN7testing8internal15TestFactoryImplI41AccDistancePidTest_TC_ACC_DIST_EQ_36_TestE10CreateTestEv
FN:456,_ZN7testing8internal15TestFactoryImplI41AccDistancePidTest_TC_ACC_DIST_EQ_37_TestE10CreateTestEv
FNDA:1,_ZN7testing8internal15TestFactoryImplI41AccDistancePidTest_TC_ACC_DIST_EQ_37_TestE10CreateTestEv
FN:456,_ZN7testing8internal15TestFactoryImplI41AccDistancePidTest_TC_ACC_DIST_EQ_38_TestE10CreateTestEv
FNDA:1,_ZN7testing8internal15TestFactoryImplI41AccDistancePidTest_TC_ACC_DIST_EQ_38_TestE10CreateTestEv
FN:456,_ZN7testing8internal15TestFactoryImplI41AccDistancePidTest_TC_ACC_DIST_EQ_39_TestE10CreateTestEv
FNDA:1,_ZN7testing8internal15TestFactoryImplI41AccDistancePidTest_TC_ACC_DIST_EQ_39_TestE10CreateTestEv
FN:456,_ZN7testing8internal15TestFactoryImplI41AccDistancePidTest_TC_ACC_DIST_EQ_40_TestE10CreateTestEv
FNDA:1,_ZN7testing8internal15TestFactoryImplI41AccDistancePidTest_TC_ACC_DIST_EQ_40_TestE10CreateTestEv
FN:456,_ZN7testing8internal15TestFactoryImplI41AccDistancePidTest_TC_ACC_DIST_EQ_41_TestE10CreateTestEv
FNDA:1,_ZN7testing8internal15TestFactoryImplI41AccDistancePidTest_TC_ACC_DIST_EQ_41_TestE10CreateTestEv
FN:456,_ZN7testing8internal15TestFactoryImplI41AccDistancePidTest_TC_ACC_DIST_EQ_42_TestE10CreateTestEv
FNDA:1,_ZN7testing8internal15TestFactoryImplI41AccDistancePidTest_TC_ACC_DIST_EQ_42_TestE10CreateTestEv
FN:456,_ZN7testing8internal15TestFactoryImplI41AccDistancePidTest_TC_ACC_DIST_EQ_43_TestE10CreateTestEv
FNDA:1,_ZN7testing8internal15TestFactoryImplI41AccDistancePidTest_TC_ACC_DIST_EQ_43_TestE10CreateTestEv
FN:456,_ZN7testing8internal15TestFactoryImplI41AccDistancePidTest_TC_ACC_DIST_EQ_44_TestE10CreateTestEv
FNDA:1,_ZN7testing8internal15TestFactoryImplI41AccDistancePidTest_TC_ACC_DIST_EQ_44_TestE10CreateTestEv
FN:456,_ZN7testing8internal15TestFactoryImplI41AccDistancePidTest_TC_ACC_DIST_EQ_45_TestE10CreateTestEv
FNDA:1,_ZN7testing8internal15TestFactoryImplI41AccDistancePidTest_TC_ACC_DIST_EQ_45_TestE10CreateTestEv
FN:456,_ZN7testing8internal15TestFactoryImplI41AccDistancePidTest_TC_ACC_DIST_EQ_46_TestE10CreateTestEv
FNDA:1,_ZN7testing8internal15TestFactoryImplI41AccDistancePidTest_TC_ACC_DIST_EQ_46_TestE10CreateTestEv
FN:456,_ZN7testing8internal15TestFactoryImplI41AccDistancePidTest_TC_ACC_DIST_EQ_47_TestE10CreateTestEv
FNDA:1,_ZN7testing8internal15TestFactoryImplI41AccDistancePidTest_TC_ACC_DIST_EQ_47_TestE10CreateTestEv
FN:456,_ZN7testing8internal15TestFactoryImplI41AccDistancePidTest_TC_ACC_DIST_EQ_48_TestE10CreateTestEv
FNDA:1,_ZN7testing8internal15TestFactoryImplI41AccDistancePidTest_TC_ACC_DIST_EQ_48_TestE10CreateTestEv
FN:456,_ZN7testing8internal15TestFactoryImplI41AccDistancePidTest_TC_ACC_DIST_EQ_49_TestE10CreateTestEv
FNDA:1,_ZN7testing8internal15TestFactoryImplI41AccDistancePidTest_TC_ACC_DIST_EQ_49_TestE10CreateTestEv
FN:456,_ZN7testing8internal15TestFactoryImplI41AccDistancePidTest_TC_ACC_DIST_EQ_50_TestE10CreateTestEv
FNDA:1,_ZN7testing8internal15TestFactoryImplI41AccDistancePidTest_TC_ACC_DIST_EQ_50_TestE10CreateTestEv
FN:456,_ZN7testing8internal15TestFactoryImplI41AccDistancePidTest_TC_ACC_DIST_EQ_14_TestE10CreateTestEv
FNDA:1,_ZN7testing8internal15TestFactoryImplI41AccDistancePidTest_TC_ACC_DIST_EQ_14_TestE10CreateTestEv
FN:456,_ZN7testing8internal15TestFactoryImplI41AccDistancePidTest_TC_ACC_DIST_EQ_02_TestE10CreateTestEv
FNDA:1,_ZN7testing8internal15TestFactoryImplI41AccDistancePidTest_TC_ACC_DIST_EQ_02_TestE10CreateTestEv
FN:456,_ZN7testing8internal15TestFactoryImplI41AccDistancePidTest_TC_ACC_DIST_EQ_03_TestE10CreateTestEv
FNDA:1,_ZN7testing8internal15TestFactoryImplI41AccDistancePidTest_TC_ACC_DIST_EQ_03_TestE10CreateTestEv
FN:456,_ZN7testing8internal15TestFactoryImplI41AccDistancePidTest_TC_ACC_DIST_EQ_04_TestE10CreateTestEv
FNDA:1,_ZN7testing8internal15TestFactoryImplI41AccDistancePidTest_TC_ACC_DIST_EQ_04_TestE10CreateTestEv
FN:456,_ZN7testing8internal15TestFactoryImplI41AccDistancePidTest_TC_ACC_DIST_EQ_05_TestE10CreateTestEv
FNDA:1,_ZN7testing8internal15TestFactoryImplI41AccDistancePidTest_TC_ACC_DIST_EQ_05_TestE10CreateTestEv
FN:456,_ZN7testing8internal15TestFactoryImplI41AccDistancePidTest_TC_ACC_DIST_EQ_06_TestE10CreateTestEv
FNDA:1,_ZN7testing8internal15TestFactoryImplI41AccDistancePidTest_TC_ACC_DIST_EQ_06_TestE10CreateTestEv
FN:456,_ZN7testing8internal15TestFactoryImplI41AccDistancePidTest_TC_ACC_DIST_EQ_07_TestE10CreateTestEv
FNDA:1,_ZN7testing8internal15TestFactoryImplI41AccDistancePidTest_TC_ACC_DIST_EQ_07_TestE10CreateTestEv
FN:456,_ZN7testing8internal15TestFactoryImplI41AccDistancePidTest_TC_ACC_DIST_EQ_08_TestE10CreateTestEv
FNDA:1,_ZN7testing8internal15TestFactoryImplI41AccDistancePidTest_TC_ACC_DIST_EQ_08_TestE10CreateTestEv
FN:456,_ZN7testing8internal15TestFactoryImplI41AccDistancePidTest_TC_ACC_DIST_EQ_09_TestE10CreateTestEv
FNDA:1,_ZN7testing8internal15TestFactoryImplI41AccDistancePidTest_TC_ACC_DIST_EQ_09_TestE10CreateTestEv
FN:456,_ZN7testing8internal15TestFactoryImplI41AccDistancePidTest_TC_ACC_DIST_EQ_10_TestE10CreateTestEv
FNDA:1,_ZN7testing8internal15TestFactoryImplI41AccDistancePidTest_TC_ACC_DIST_EQ_10_TestE10CreateTestEv
FN:456,_ZN7testing8internal15TestFactoryImplI41AccDistancePidTest_TC_ACC_DIST_EQ_11_TestE10CreateTestEv
FNDA:1,_ZN7testing8internal15TestFactoryImplI41AccDistancePidTest_TC_ACC_DIST_EQ_11_TestE10CreateTestEv
FN:456,_ZN7testing8internal15TestFactoryImplI41AccDistancePidTest_TC_ACC_DIST_EQ_12_TestE10CreateTestEv
FNDA:1,_ZN7testing8internal15TestFactoryImplI41AccDistancePidTest_TC_ACC_DIST_EQ_12_TestE10CreateTestEv
FN:456,_ZN7testing8internal15TestFactoryImplI41AccDistancePidTest_TC_ACC_DIST_EQ_13_TestE10CreateTestEv
FNDA:1,_ZN7testing8internal15TestFactoryImplI41AccDistancePidTest_TC_ACC_DIST_EQ_13_TestE10CreateTestEv
FN:456,_ZN7testing8internal15TestFactoryImplI41AccDistancePidTest_TC_ACC_DIST_EQ_31_TestE10CreateTestEv
FNDA:1,_ZN7testing8internal15TestFactoryImplI41AccDistancePidTest_TC_ACC_DIST_EQ_31_TestE10CreateTestEv
FN:456,_ZN7testing8internal15TestFactoryImplI41AccDistancePidTest_TC_ACC_DIST_EQ_15_TestE10CreateTestEv
FNDA:1,_ZN7testing8internal15TestFactoryImplI41AccDistancePidTest_TC_ACC_DIST_EQ_15_TestE10CreateTestEv
FN:456,_ZN7testing8internal15TestFactoryImplI41AccDistancePidTest_TC_ACC_DIST_EQ_25_TestE10CreateTestEv
FNDA:1,_ZN7testing8internal15TestFactoryImplI41AccDistancePidTest_TC_ACC_DIST_EQ_25_TestE10CreateTestEv
FN:456,_ZN7testing8internal15TestFactoryImplI41AccDistancePidTest_TC_ACC_DIST_EQ_30_TestE10CreateTestEv
FNDA:1,_ZN7testing8internal15TestFactoryImplI41AccDistancePidTest_TC_ACC_DIST_EQ_30_TestE10CreateTestEv
FN:456,_ZN7testing8internal15TestFactoryImplI41AccDistancePidTest_TC_ACC_DIST_EQ_29_TestE10CreateTestEv
FNDA:1,_ZN7testing8internal15TestFactoryImplI41AccDistancePidTest_TC_ACC_DIST_EQ_29_TestE10CreateTestEv
FN:456,_ZN7testing8internal15TestFactoryImplI41AccDistancePidTest_TC_ACC_DIST_EQ_28_TestE10CreateTestEv
FNDA:1,_ZN7testing8internal15TestFactoryImplI41AccDistancePidTest_TC_ACC_DIST_EQ_28_TestE10CreateTestEv
FN:456,_ZN7testing8internal15TestFactoryImplI41AccDistancePidTest_TC_ACC_DIST_EQ_27_TestE10CreateTestEv
FNDA:1,_ZN7testing8internal15TestFactoryImplI41AccDistancePidTest_TC_ACC_DIST_EQ_27_TestE10CreateTestEv
FN:456,_ZN7testing8internal15TestFactoryImplI41AccDistancePidTest_TC_ACC_DIST_EQ_26_TestE10CreateTestEv
FNDA:1,_ZN7testing8internal15TestFactoryImplI41AccDistancePidTest_TC_ACC_DIST_EQ_26_TestE10CreateTestEv
FN:456,_ZN7testing8internal15TestFactoryImplI41AccDistancePidTest_TC_ACC_DIST_EQ_16_TestE10CreateTestEv
FNDA:1,_ZN7testing8internal15TestFactoryImplI41AccDistancePidTest_TC_ACC_DIST_EQ_16_TestE10CreateTestEv
FN:456,_ZN7testing8internal15TestFactoryImplI41AccDistancePidTest_TC_ACC_DIST_EQ_24_TestE10CreateTestEv
FNDA:1,_ZN7testing8internal15TestFactoryImplI41AccDistancePidTest_TC_ACC_DIST_EQ_24_TestE10CreateTestEv
FN:456,_ZN7testing8internal15TestFactoryImplI41AccDistancePidTest_TC_ACC_DIST_EQ_23_TestE10CreateTestEv
FNDA:1,_ZN7testing8internal15TestFactoryImplI41AccDistancePidTest_TC_ACC_DIST_EQ_23_TestE10CreateTestEv
FN:456,_ZN7testing8internal15TestFactoryImplI41AccDistancePidTest_TC_ACC_DIST_EQ_22_TestE10CreateTestEv
FNDA:1,_ZN7testing8internal15TestFactoryImplI41AccDistancePidTest_TC_ACC_DIST_EQ_22_TestE10CreateTestEv
FN:456,_ZN7testing8internal15TestFactoryImplI41AccDistancePidTest_TC_ACC_DIST_EQ_21_TestE10CreateTestEv
FNDA:1,_ZN7testing8internal15TestFactoryImplI41AccDistancePidTest_TC_ACC_DIST_EQ_21_TestE10CreateTestEv
FN:456,_ZN7testing8internal15TestFactoryImplI41AccDistancePidTest_TC_ACC_DIST_EQ_20_TestE10CreateTestEv
FNDA:1,_ZN7testing8internal15TestFactoryImplI41AccDistancePidTest_TC_ACC_DIST_EQ_20_TestE10CreateTestEv
FN:456,_ZN7testing8internal15TestFactoryImplI41AccDistancePidTest_TC_ACC_DIST_EQ_19_TestE10CreateTestEv
FNDA:1,_ZN7testing8internal15TestFactoryImplI41AccDistancePidTest_TC_ACC_DIST_EQ_19_TestE10CreateTestEv
FN:456,_ZN7testing8internal15TestFactoryImplI41AccDistancePidTest_TC_ACC_DIST_EQ_18_TestE10CreateTestEv
FNDA:1,_ZN7testing8internal15TestFactoryImplI41AccDistancePidTest_TC_ACC_DIST_EQ_18_TestE10CreateTestEv
FN:456,_ZN7testing8internal15TestFactoryImplI41AccDistancePidTest_TC_ACC_DIST_EQ_17_TestE10CreateTestEv
FNDA:1,_ZN7testing8internal15TestFactoryImplI41AccDistancePidTest_TC_ACC_DIST_EQ_17_TestE10CreateTestEv
FN:477,_ZN7testing8internal12CodeLocationC1ENSt7__cxx1112basic_stringIcSt11char_traitsIcESaIcEEEi
FNDA:0,_ZN7testing8internal12CodeLocationC1ENSt7__cxx1112basic_stringIcSt11char_traitsIcESaIcEEEi
FN:490,_ZN7testing8internal19GetNotDefaultOrNullEPFvvES2_
FNDA:0,_ZN7testing8internal19GetNotDefaultOrNullEPFvvES2_
FN:505,_ZN7testing8internal16SuiteApiResolverI18AccDistancePidTestE19GetSetUpCaseOrSuiteEPKci
FNDA:100,_ZN7testing8internal16SuiteApiResolverI18AccDistancePidTestE19GetSetUpCaseOrSuiteEPKci
FN:526,_ZN7testing8internal16SuiteApiResolverI18AccDistancePidTestE22GetTearDownCaseOrSuiteEPKci
FNDA:100,_ZN7testing8internal16SuiteApiResolverI18AccDistancePidTestE22GetTearDownCaseOrSuiteEPKci
FNF:64
FNH:53
DA:293,0
DA:315,0
DA:318,0
DA:324,0
DA:327,0
DA:336,0
DA:339,0
DA:341,0
DA:342,0
DA:367,0
DA:368,0
DA:370,0
DA:373,0
DA:379,0
DA:381,0
DA:382,0
DA:383,0
DA:418,100
DA:423,100
DA:437,0
DA:444,0
DA:456,1
DA:456,1
DA:456,1
DA:456,1
DA:456,1
DA:456,1
DA:456,1
DA:456,1
DA:456,1
DA:456,1
DA:456,1
DA:456,1
DA:456,1
DA:456,1
DA:456,1
DA:456,1
DA:456,1
DA:456,1
DA:456,1
DA:456,1
DA:456,1
DA:456,1
DA:456,1
DA:456,1
DA:456,1
DA:456,1
DA:456,1
DA:456,1
DA:456,1
DA:456,1
DA:456,1
DA:456,1
DA:456,1
DA:456,1
DA:456,1
DA:456,1
DA:456,1
DA:456,1
DA:456,1
DA:456,1
DA:456,1
DA:456,1
DA:456,1
DA:456,1
DA:456,1
DA:456,1
DA:456,1
DA:456,1
DA:456,1
DA:456,1
DA:477,0
DA:478,0
DA:490,0
DA:492,0
DA:505,100
DA:509,100
DA:511,100
DA:513,100
DA:516,0
DA:518,100
DA:526,100
DA:530,100
DA:532,100
DA:534,100
DA:537,0
DA:539,100
LF:87
LH:62
end_of_record
SF:C:/msys64/mingw64/include/c++/14.2.0/bits/allocator.h
LF:0
LH:0
end_of_record
SF:C:/msys64/mingw64/include/c++/14.2.0/bits/stl_iterator_base_types.h
DA:240,0
LF:1
LH:0
end_of_record
SF:C:/msys64/mingw64/include/c++/14.2.0/bits/move.h
FN:70,_ZSt7forwardISt14default_deleteINSt7__cxx1112basic_stringIcSt11char_traitsIcESaIcEEEEEOT_RNSt16remove_referenceIS8_E4typeE
FNDA:0,_ZSt7forwardISt14default_deleteINSt7__cxx1112basic_stringIcSt11char_traitsIcESaIcEEEEEOT_RNSt16remove_referenceIS8_E4typeE
FN:126,_ZSt4moveIRPNSt7__cxx1112basic_stringIcSt11char_traitsIcESaIcEEEEONSt16remove_referenceIT_E4typeEOS9_
FNDA:0,_ZSt4moveIRPNSt7__cxx1112basic_stringIcSt11char_traitsIcESaIcEEEEONSt16remove_referenceIT_E4typeEOS9_
FN:126,_ZSt4moveIRPNSt7__cxx1118basic_stringstreamIcSt11char_traitsIcESaIcEEEEONSt16remove_referenceIT_E4typeEOS9_
FNDA:0,_ZSt4moveIRPNSt7__cxx1118basic_stringstreamIcSt11char_traitsIcESaIcEEEEONSt16remove_referenceIT_E4typeEOS9_
FN:126,_ZSt4moveIRSaIcEEONSt16remove_referenceIT_E4typeEOS3_
FNDA:0,_ZSt4moveIRSaIcEEONSt16remove_referenceIT_E4typeEOS3_
FN:126,_ZSt4moveIRNSt7__cxx1112basic_stringIcSt11char_traitsIcESaIcEEEEONSt16remove_referenceIT_E4typeEOS8_
FNDA:0,_ZSt4moveIRNSt7__cxx1112basic_stringIcSt11char_traitsIcESaIcEEEEONSt16remove_referenceIT_E4typeEOS8_
FNF:5
FNH:0
DA:70,0
DA:71,0
DA:126,0
DA:127,0
DA:126,0
DA:127,0
DA:126,0
DA:127,0
DA:126,0
DA:127,0
LF:10
LH:0
end_of_record
SF:C:/msys64/mingw64/include/c++/14.2.0/bits/stl_iterator_base_funcs.h
DA:106,0
DA:151,0
DA:152,0
LF:3
LH:0
end_of_record
SF:C:/msys64/mingw64/include/c++/14.2.0/x86_64-w64-mingw32/bits/c++config.h
DA:550,0
DA:606,0
LF:2
LH:0
end_of_record
SF:C:/Projects/GoogleTestProject/googletest/googletest/include/gtest/gtest.h
FN:255,_ZN7testing4Test14SetUpTestSuiteEv
FNDA:0,_ZN7testing4Test14SetUpTestSuiteEv
FN:263,_ZN7testing4Test17TearDownTestSuiteEv
FNDA:0,_ZN7testing4Test17TearDownTestSuiteEv
FN:268,_ZN7testing4Test16TearDownTestCaseEv
FNDA:0,_ZN7testing4Test16TearDownTestCaseEv
FN:269,_ZN7testing4Test13SetUpTestCaseEv
FNDA:0,_ZN7testing4Test13SetUpTestCaseEv
FN:356,_ZN7testing4Test5SetupEv
FNDA:0,_ZN7testing4Test5SetupEv
FN:1443,_ZN7testing8internal18CmpHelperOpFailureIffEENS_15AssertionResultEPKcS4_RKT_RKT0_S4_
FNDA:0,_ZN7testing8internal18CmpHelperOpFailureIffEENS_15AssertionResultEPKcS4_RKT_RKT0_S4_
FN:1474,_ZN7testing8internal11CmpHelperLEIffEENS_15AssertionResultEPKcS4_RKT_RKT0_
FNDA:18,_ZN7testing8internal11CmpHelperLEIffEENS_15AssertionResultEPKcS4_RKT_RKT0_
FN:1476,_ZN7testing8internal11CmpHelperLTIffEENS_15AssertionResultEPKcS4_RKT_RKT0_
FNDA:0,_ZN7testing8internal11CmpHelperLTIffEENS_15AssertionResultEPKcS4_RKT_RKT0_
FN:1480,_ZN7testing8internal11CmpHelperGTIffEENS_15AssertionResultEPKcS4_RKT_RKT0_
FNDA:0,_ZN7testing8internal11CmpHelperGTIffEENS_15AssertionResultEPKcS4_RKT_RKT0_
FN:1582,_ZN7testing8internal24CmpHelperFloatingPointEQIfEENS_15AssertionResultEPKcS4_T_S5_
FNDA:0,_ZN7testing8internal24CmpHelperFloatingPointEQIfEENS_15AssertionResultEPKcS4_T_S5_
FNF:10
FNH:1
DA:255,0
DA:263,0
DA:268,0
DA:269,0
DA:356,0
DA:1443,0
DA:1446,0
DA:1447,0
DA:1448,0
DA:1449,0
DA:1474,18
DA:1476,0
DA:1480,0
DA:1582,0
DA:1585,0
DA:1587,0
DA:1588,0
DA:1591,0
DA:1592,0
DA:1593,0
DA:1595,0
DA:1596,0
DA:1597,0
DA:1600,0
DA:1601,0
DA:1602,0
LF:26
LH:1
end_of_record
SF:C:/msys64/mingw64/include/c++/14.2.0/cmath
FN:1126,_ZSt8isfinitef
FNDA:58,_ZSt8isfinitef
FNF:1
FNH:1
DA:1126,58
DA:1127,58
LF:2
LH:2
end_of_record
SF:C:/Projects/GoogleTestProject/googletest/googletest/include/gtest/gtest-printers.h
FN:383,_ZN7testing8internal19FormatForComparisonIffE6FormatB5cxx11ERKf
FNDA:0,_ZN7testing8internal19FormatForComparisonIffE6FormatB5cxx11ERKf
FN:463,_ZN7testing8internal33FormatForComparisonFailureMessageIffEENSt7__cxx1112basic_stringIcSt11char_traitsIcESaIcEEERKT_RKT0_
FNDA:0,_ZN7testing8internal33FormatForComparisonFailureMessageIffEENSt7__cxx1112basic_stringIcSt11char_traitsIcESaIcEEERKT_RKT0_
FN:555,_ZN7testing8internal21AppropriateResolutionIfEEiT_
FNDA:0,_ZN7testing8internal21AppropriateResolutionIfEEiT_
FN:619,_ZN7testing8internal7PrintToEfPSo
FNDA:0,_ZN7testing8internal7PrintToEfPSo
FN:874,_ZN7testing8internal16UniversalPrinterIfE5PrintERKfPSo
FNDA:0,_ZN7testing8internal16UniversalPrinterIfE5PrintERKfPSo
FN:1064,_ZN7testing8internal21UniversalTersePrinterIfE5PrintERKfPSo
FNDA:0,_ZN7testing8internal21UniversalTersePrinterIfE5PrintERKfPSo
FN:1183,_ZN7testing8internal14UniversalPrintIfEEvRKT_PSo
FNDA:0,_ZN7testing8internal14UniversalPrintIfEEvRKT_PSo
FN:1223,_ZN7testing13PrintToStringIfEENSt7__cxx1112basic_stringIcSt11char_traitsIcESaIcEEERKT_
FNDA:0,_ZN7testing13PrintToStringIfEENSt7__cxx1112basic_stringIcSt11char_traitsIcESaIcEEERKT_
FNF:8
FNH:0
DA:383,0
DA:384,0
DA:463,0
DA:465,0
DA:555,0
DA:556,0
DA:557,0
DA:563,0
DA:564,0
DA:568,0
DA:569,0
DA:570,0
DA:571,0
DA:572,0
DA:573,0
DA:574,0
DA:575,0
DA:576,0
DA:577,0
DA:578,0
DA:579,0
DA:580,0
DA:581,0
DA:582,0
DA:583,0
DA:584,0
DA:585,0
DA:586,0
DA:587,0
DA:589,0
DA:590,0
DA:593,0
DA:594,0
DA:595,0
DA:596,0
DA:597,0
DA:598,0
DA:600,0
DA:601,0
DA:603,0
DA:604,0
DA:605,0
DA:607,0
DA:608,0
DA:611,0
DA:616,0
DA:619,0
DA:620,0
DA:621,0
DA:622,0
DA:623,0
DA:624,0
DA:874,0
DA:883,0
DA:884,0
DA:1064,0
DA:1065,0
DA:1066,0
DA:1183,0
DA:1187,0
DA:1188,0
DA:1223,0
DA:1224,0
DA:1225,0
DA:1226,0
DA:1227,0
LF:66
LH:0
end_of_record
SF:C:/Projects/GoogleTestProject/googletest/googletest/include/gtest/gtest-assertion-result.h
FN:155,_ZN7testing15AssertionResultC1IbEERKT_PNSt9enable_ifIXntsrSt14is_convertibleIS2_S0_E5valueEvE4typeE
FNDA:0,_ZN7testing15AssertionResultC1IbEERKT_PNSt9enable_ifIXntsrSt14is_convertibleIS2_S0_E5valueEvE4typeE
FN:174,_ZNK7testing15AssertionResultcvbEv
FNDA:0,_ZNK7testing15AssertionResultcvbEv
FN:183,_ZNK7testing15AssertionResult7messageEv
FNDA:0,_ZNK7testing15AssertionResult7messageEv
FN:187,_ZNK7testing15AssertionResult15failure_messageEv
FNDA:0,_ZNK7testing15AssertionResult15failure_messageEv
FN:191,_ZN7testing15AssertionResultlsIA5_cEERS0_RKT_
FNDA:0,_ZN7testing15AssertionResultlsIA5_cEERS0_RKT_
FN:191,_ZN7testing15AssertionResultlsINSt7__cxx1112basic_stringIcSt11char_traitsIcESaIcEEEEERS0_RKT_
FNDA:0,_ZN7testing15AssertionResultlsINSt7__cxx1112basic_stringIcSt11char_traitsIcESaIcEEEEERS0_RKT_
FN:191,_ZN7testing15AssertionResultlsIA3_cEERS0_RKT_
FNDA:0,_ZN7testing15AssertionResultlsIA3_cEERS0_RKT_
FN:191,_ZN7testing15AssertionResultlsIPKcEERS0_RKT_
FNDA:0,_ZN7testing15AssertionResultlsIPKcEERS0_RKT_
FN:191,_ZN7testing15AssertionResultlsIA12_cEERS0_RKT_
FNDA:0,_ZN7testing15AssertionResultlsIA12_cEERS0_RKT_
FN:206,_ZN7testing15AssertionResult13AppendMessageERKNS_7MessageE
FNDA:0,_ZN7testing15AssertionResult13AppendMessageERKNS_7MessageE
FNF:10
FNH:0
DA:155,0
DA:161,0
DA:174,0
DA:183,0
DA:184,0
DA:187,0
DA:191,0
DA:192,0
DA:193,0
DA:191,0
DA:192,0
DA:193,0
DA:191,0
DA:192,0
DA:193,0
DA:191,0
DA:192,0
DA:193,0
DA:191,0
DA:192,0
DA:193,0
DA:206,0
DA:207,0
DA:208,0
DA:209,0
LF:25
LH:0
end_of_record
SF:C:/msys64/mingw64/include/c++/14.2.0/bits/basic_string.h
FN:646,_ZNSt7__cxx1112basic_stringIcSt11char_traitsIcESaIcEEC1IS3_EEPKcRKS3_
FNDA:0,_ZNSt7__cxx1112basic_stringIcSt11char_traitsIcESaIcEEC1IS3_EEPKcRKS3_
FNF:1
FNH:0
DA:360,0
DA:646,0
DA:647,0
DA:650,0
DA:651,0
DA:653,0
DA:654,0
DA:655,0
LF:8
LH:0
end_of_record
SF:C:/msys64/mingw64/include/c++/14.2.0/tuple
FN:89,_ZNSt10_Head_baseILy1ESt14default_deleteINSt7__cxx1112basic_stringIcSt11char_traitsIcESaIcEEEELb1EEC2Ev
FNDA:0,_ZNSt10_Head_baseILy1ESt14default_deleteINSt7__cxx1112basic_stringIcSt11char_traitsIcESaIcEEEELb1EEC2Ev
FN:133,_ZNSt10_Head_baseILy1ESt14default_deleteINSt7__cxx1118basic_stringstreamIcSt11char_traitsIcESaIcEEEELb1EE7_M_headERS8_
FNDA:0,_ZNSt10_Head_baseILy1ESt14default_deleteINSt7__cxx1118basic_stringstreamIcSt11char_traitsIcESaIcEEEELb1EE7_M_headERS8_
FN:133,_ZNSt10_Head_baseILy1ESt14default_deleteINSt7__cxx1112basic_stringIcSt11char_traitsIcESaIcEEEELb1EE7_M_headERS8_
FNDA:0,_ZNSt10_Head_baseILy1ESt14default_deleteINSt7__cxx1112basic_stringIcSt11char_traitsIcESaIcEEEELb1EE7_M_headERS8_
FN:198,_ZNSt10_Head_baseILy0EPNSt7__cxx1112basic_stringIcSt11char_traitsIcESaIcEEELb0EEC2Ev
FNDA:0,_ZNSt10_Head_baseILy0EPNSt7__cxx1112basic_stringIcSt11char_traitsIcESaIcEEELb0EEC2Ev
FN:242,_ZNSt10_Head_baseILy0EPNSt7__cxx1112basic_stringIcSt11char_traitsIcESaIcEEELb0EE7_M_headERS7_
FNDA:0,_ZNSt10_Head_baseILy0EPNSt7__cxx1112basic_stringIcSt11char_traitsIcESaIcEEELb0EE7_M_headERS7_
FN:242,_ZNSt10_Head_baseILy0EPNSt7__cxx1118basic_stringstreamIcSt11char_traitsIcESaIcEEELb0EE7_M_headERS7_
FNDA:0,_ZNSt10_Head_baseILy0EPNSt7__cxx1118basic_stringstreamIcSt11char_traitsIcESaIcEEELb0EE7_M_headERS7_
FN:245,_ZNSt10_Head_baseILy0EPNSt7__cxx1118basic_stringstreamIcSt11char_traitsIcESaIcEEELb0EE7_M_headERKS7_
FNDA:0,_ZNSt10_Head_baseILy0EPNSt7__cxx1118basic_stringstreamIcSt11char_traitsIcESaIcEEELb0EE7_M_headERKS7_
FN:245,_ZNSt10_Head_baseILy0EPNSt7__cxx1112basic_stringIcSt11char_traitsIcESaIcEEELb0EE7_M_headERKS7_
FNDA:0,_ZNSt10_Head_baseILy0EPNSt7__cxx1112basic_stringIcSt11char_traitsIcESaIcEEELb0EE7_M_headERKS7_
FN:293,_ZNSt11_Tuple_implILy0EJPNSt7__cxx1118basic_stringstreamIcSt11char_traitsIcESaIcEEESt14default_deleteIS5_EEE7_M_headERS9_
FNDA:0,_ZNSt11_Tuple_implILy0EJPNSt7__cxx1118basic_stringstreamIcSt11char_traitsIcESaIcEEESt14default_deleteIS5_EEE7_M_headERS9_
FN:293,_ZNSt11_Tuple_implILy0EJPNSt7__cxx1112basic_stringIcSt11char_traitsIcESaIcEEESt14default_deleteIS5_EEE7_M_headERS9_
FNDA:0,_ZNSt11_Tuple_implILy0EJPNSt7__cxx1112basic_stringIcSt11char_traitsIcESaIcEEESt14default_deleteIS5_EEE7_M_headERS9_
FN:296,_ZNSt11_Tuple_implILy0EJPNSt7__cxx1112basic_stringIcSt11char_traitsIcESaIcEEESt14default_deleteIS5_EEE7_M_headERKS9_
FNDA:0,_ZNSt11_Tuple_implILy0EJPNSt7__cxx1112basic_stringIcSt11char_traitsIcESaIcEEESt14default_deleteIS5_EEE7_M_headERKS9_
FN:296,_ZNSt11_Tuple_implILy0EJPNSt7__cxx1118basic_stringstreamIcSt11char_traitsIcESaIcEEESt14default_deleteIS5_EEE7_M_headERKS9_
FNDA:0,_ZNSt11_Tuple_implILy0EJPNSt7__cxx1118basic_stringstreamIcSt11char_traitsIcESaIcEEESt14default_deleteIS5_EEE7_M_headERKS9_
FN:304,_ZNSt11_Tuple_implILy0EJPNSt7__cxx1112basic_stringIcSt11char_traitsIcESaIcEEESt14default_deleteIS5_EEEC2Ev
FNDA:0,_ZNSt11_Tuple_implILy0EJPNSt7__cxx1112basic_stringIcSt11char_traitsIcESaIcEEESt14default_deleteIS5_EEEC2Ev
FN:556,_ZNSt11_Tuple_implILy1EJSt14default_deleteINSt7__cxx1112basic_stringIcSt11char_traitsIcESaIcEEEEEE7_M_headERS8_
FNDA:0,_ZNSt11_Tuple_implILy1EJSt14default_deleteINSt7__cxx1112basic_stringIcSt11char_traitsIcESaIcEEEEEE7_M_headERS8_
FN:556,_ZNSt11_Tuple_implILy1EJSt14default_deleteINSt7__cxx1118basic_stringstreamIcSt11char_traitsIcESaIcEEEEEE7_M_headERS8_
FNDA:0,_ZNSt11_Tuple_implILy1EJSt14default_deleteINSt7__cxx1118basic_stringstreamIcSt11char_traitsIcESaIcEEEEEE7_M_headERS8_
FN:562,_ZNSt11_Tuple_implILy1EJSt14default_deleteINSt7__cxx1112basic_stringIcSt11char_traitsIcESaIcEEEEEEC2Ev
FNDA:0,_ZNSt11_Tuple_implILy1EJSt14default_deleteINSt7__cxx1112basic_stringIcSt11char_traitsIcESaIcEEEEEEC2Ev
FN:2089,_ZNSt5tupleIJPNSt7__cxx1112basic_stringIcSt11char_traitsIcESaIcEEESt14default_deleteIS5_EEEC1ILb1ELb1EEEv
FNDA:0,_ZNSt5tupleIJPNSt7__cxx1112basic_stringIcSt11char_traitsIcESaIcEEESt14default_deleteIS5_EEEC1ILb1ELb1EEEv
FN:2427,_ZSt12__get_helperILy1ESt14default_deleteINSt7__cxx1118basic_stringstreamIcSt11char_traitsIcESaIcEEEEJEERT0_RSt11_Tuple_implIXT_EJS8_DpT1_EE
FNDA:0,_ZSt12__get_helperILy1ESt14default_deleteINSt7__cxx1118basic_stringstreamIcSt11char_traitsIcESaIcEEEEJEERT0_RSt11_Tuple_implIXT_EJS8_DpT1_EE
FN:2427,_ZSt12__get_helperILy1ESt14default_deleteINSt7__cxx1112basic_stringIcSt11char_traitsIcESaIcEEEEJEERT0_RSt11_Tuple_implIXT_EJS8_DpT1_EE
FNDA:0,_ZSt12__get_helperILy1ESt14default_deleteINSt7__cxx1112basic_stringIcSt11char_traitsIcESaIcEEEEJEERT0_RSt11_Tuple_implIXT_EJS8_DpT1_EE
FN:2427,_ZSt12__get_helperILy0EPNSt7__cxx1112basic_stringIcSt11char_traitsIcESaIcEEEJSt14default_deleteIS5_EEERT0_RSt11_Tuple_implIXT_EJS9_DpT1_EE
FNDA:0,_ZSt12__get_helperILy0EPNSt7__cxx1112basic_stringIcSt11char_traitsIcESaIcEEEJSt14default_deleteIS5_EEERT0_RSt11_Tuple_implIXT_EJS9_DpT1_EE
FN:2427,_ZSt12__get_helperILy0EPNSt7__cxx1118basic_stringstreamIcSt11char_traitsIcESaIcEEEJSt14default_deleteIS5_EEERT0_RSt11_Tuple_implIXT_EJS9_DpT1_EE
FNDA:0,_ZSt12__get_helperILy0EPNSt7__cxx1118basic_stringstreamIcSt11char_traitsIcESaIcEEEJSt14default_deleteIS5_EEERT0_RSt11_Tuple_implIXT_EJS9_DpT1_EE
FN:2432,_ZSt12__get_helperILy0EPNSt7__cxx1112basic_stringIcSt11char_traitsIcESaIcEEEJSt14default_deleteIS5_EEERKT0_RKSt11_Tuple_implIXT_EJS9_DpT1_EE
FNDA:0,_ZSt12__get_helperILy0EPNSt7__cxx1112basic_stringIcSt11char_traitsIcESaIcEEEJSt14default_deleteIS5_EEERKT0_RKSt11_Tuple_implIXT_EJS9_DpT1_EE
FN:2432,_ZSt12__get_helperILy0EPNSt7__cxx1118basic_stringstreamIcSt11char_traitsIcESaIcEEEJSt14default_deleteIS5_EEERKT0_RKSt11_Tuple_implIXT_EJS9_DpT1_EE
FNDA:0,_ZSt12__get_helperILy0EPNSt7__cxx1118basic_stringstreamIcSt11char_traitsIcESaIcEEEJSt14default_deleteIS5_EEERKT0_RKSt11_Tuple_implIXT_EJS9_DpT1_EE
FN:2443,_ZSt3getILy1EJPNSt7__cxx1112basic_stringIcSt11char_traitsIcESaIcEEESt14default_deleteIS5_EEERNSt13tuple_elementIXT_ESt5tupleIJDpT0_EEE4typeERSD_
FNDA:0,_ZSt3getILy1EJPNSt7__cxx1112basic_stringIcSt11char_traitsIcESaIcEEESt14default_deleteIS5_EEERNSt13tuple_elementIXT_ESt5tupleIJDpT0_EEE4typeERSD_
FN:2443,_ZSt3getILy0EJPNSt7__cxx1112basic_stringIcSt11char_traitsIcESaIcEEESt14default_deleteIS5_EEERNSt13tuple_elementIXT_ESt5tupleIJDpT0_EEE4typeERSD_
FNDA:0,_ZSt3getILy0EJPNSt7__cxx1112basic_stringIcSt11char_traitsIcESaIcEEESt14default_deleteIS5_EEERNSt13tuple_elementIXT_ESt5tupleIJDpT0_EEE4typeERSD_
FN:2443,_ZSt3getILy0EJPNSt7__cxx1118basic_stringstreamIcSt11char_traitsIcESaIcEEESt14default_deleteIS5_EEERNSt13tuple_elementIXT_ESt5tupleIJDpT0_EEE4typeERSD_
FNDA:0,_ZSt3getILy0EJPNSt7__cxx1118basic_stringstreamIcSt11char_traitsIcESaIcEEESt14default_deleteIS5_EEERNSt13tuple_elementIXT_ESt5tupleIJDpT0_EEE4typeERSD_
FN:2443,_ZSt3getILy1EJPNSt7__cxx1118basic_stringstreamIcSt11char_traitsIcESaIcEEESt14default_deleteIS5_EEERNSt13tuple_elementIXT_ESt5tupleIJDpT0_EEE4typeERSD_
FNDA:0,_ZSt3getILy1EJPNSt7__cxx1118basic_stringstreamIcSt11char_traitsIcESaIcEEESt14default_deleteIS5_EEERNSt13tuple_elementIXT_ESt5tupleIJDpT0_EEE4typeERSD_
FN:2449,_ZSt3getILy0EJPNSt7__cxx1118basic_stringstreamIcSt11char_traitsIcESaIcEEESt14default_deleteIS5_EEERKNSt13tuple_elementIXT_ESt5tupleIJDpT0_EEE4typeERKSD_
FNDA:0,_ZSt3getILy0EJPNSt7__cxx1118basic_stringstreamIcSt11char_traitsIcESaIcEEESt14default_deleteIS5_EEERKNSt13tuple_elementIXT_ESt5tupleIJDpT0_EEE4typeERKSD_
FN:2449,_ZSt3getILy0EJPNSt7__cxx1112basic_stringIcSt11char_traitsIcESaIcEEESt14default_deleteIS5_EEERKNSt13tuple_elementIXT_ESt5tupleIJDpT0_EEE4typeERKSD_
FNDA:0,_ZSt3getILy0EJPNSt7__cxx1112basic_stringIcSt11char_traitsIcESaIcEEESt14default_deleteIS5_EEERKNSt13tuple_elementIXT_ESt5tupleIJDpT0_EEE4typeERKSD_
FNF:29
FNH:0
DA:89,0
DA:90,0
DA:133,0
DA:133,0
DA:198,0
DA:199,0
DA:242,0
DA:242,0
DA:245,0
DA:245,0
DA:293,0
DA:293,0
DA:296,0
DA:296,0
DA:304,0
DA:305,0
DA:556,0
DA:556,0
DA:562,0
DA:563,0
DA:2089,0
DA:2091,0
DA:2427,0
DA:2428,0
DA:2427,0
DA:2428,0
DA:2427,0
DA:2428,0
DA:2427,0
DA:2428,0
DA:2432,0
DA:2433,0
DA:2432,0
DA:2433,0
DA:2443,0
DA:2444,0
DA:2443,0
DA:2444,0
DA:2443,0
DA:2444,0
DA:2443,0
DA:2444,0
DA:2449,0
DA:2450,0
DA:2449,0
DA:2450,0
LF:46
LH:0
end_of_record
SF:C:/msys64/mingw64/include/c++/14.2.0/bits/new_allocator.h
FN:104,_ZNSt15__new_allocatorIcED2Ev
FNDA:0,_ZNSt15__new_allocatorIcED2Ev
FNF:1
FNH:0
DA:104,0
LF:1
LH:0
end_of_record
TN:
SF:C:/msys64/mingw64/include/c++/14.2.0/bits/move.h
FN:70,_ZSt7forwardISt14default_deleteINSt7__cxx1112basic_stringIcSt11char_traitsIcESaIcEEEEEOT_RNSt16remove_referenceIS8_E4typeE
FNDA:0,_ZSt7forwardISt14default_deleteINSt7__cxx1112basic_stringIcSt11char_traitsIcESaIcEEEEEOT_RNSt16remove_referenceIS8_E4typeE
FN:126,_ZSt4moveIRPNSt7__cxx1112basic_stringIcSt11char_traitsIcESaIcEEEEONSt16remove_referenceIT_E4typeEOS9_
FNDA:0,_ZSt4moveIRPNSt7__cxx1112basic_stringIcSt11char_traitsIcESaIcEEEEONSt16remove_referenceIT_E4typeEOS9_
FN:126,_ZSt4moveIRPNSt7__cxx1118basic_stringstreamIcSt11char_traitsIcESaIcEEEEONSt16remove_referenceIT_E4typeEOS9_
FNDA:0,_ZSt4moveIRPNSt7__cxx1118basic_stringstreamIcSt11char_traitsIcESaIcEEEEONSt16remove_referenceIT_E4typeEOS9_
FN:126,_ZSt4moveIRSaIcEEONSt16remove_referenceIT_E4typeEOS3_
FNDA:0,_ZSt4moveIRSaIcEEONSt16remove_referenceIT_E4typeEOS3_
FN:126,_ZSt4moveIRNSt7__cxx1112basic_stringIcSt11char_traitsIcESaIcEEEEONSt16remove_referenceIT_E4typeEOS8_
FNDA:0,_ZSt4moveIRNSt7__cxx1112basic_stringIcSt11char_traitsIcESaIcEEEEONSt16remove_referenceIT_E4typeEOS8_
FNF:5
FNH:0
DA:70,0
DA:71,0
DA:126,0
DA:127,0
DA:126,0
DA:127,0
DA:126,0
DA:127,0
DA:126,0
DA:127,0
LF:10
LH:0
end_of_record
SF:C:/msys64/mingw64/include/c++/14.2.0/x86_64-w64-mingw32/bits/c++config.h
DA:550,0
DA:606,0
LF:2
LH:0
end_of_record
SF:C:/msys64/mingw64/include/c++/14.2.0/bits/stl_iterator_base_funcs.h
DA:106,0
DA:151,0
DA:152,0
LF:3
LH:0
end_of_record
SF:C:/msys64/mingw64/include/c++/14.2.0/bits/allocator.h
LF:0
LH:0
end_of_record
SF:C:/Projects/GoogleTestProject/googletest/googletest/include/gtest/internal/gtest-internal.h
FN:293,_ZN7testing8internal13FloatingPointIfEC1ERKf
FNDA:0,_ZN7testing8internal13FloatingPointIfEC1ERKf
FN:315,_ZNK7testing8internal13FloatingPointIfE13exponent_bitsEv
FNDA:0,_ZNK7testing8internal13FloatingPointIfE13exponent_bitsEv
FN:318,_ZNK7testing8internal13FloatingPointIfE13fraction_bitsEv
FNDA:0,_ZNK7testing8internal13FloatingPointIfE13fraction_bitsEv
FN:324,_ZNK7testing8internal13FloatingPointIfE6is_nanEv
FNDA:0,_ZNK7testing8internal13FloatingPointIfE6is_nanEv
FN:336,_ZNK7testing8internal13FloatingPointIfE12AlmostEqualsERKS2_
FNDA:0,_ZNK7testing8internal13FloatingPointIfE12AlmostEqualsERKS2_
FN:367,_ZN7testing8internal13FloatingPointIfE24SignAndMagnitudeToBiasedERKj
FNDA:0,_ZN7testing8internal13FloatingPointIfE24SignAndMagnitudeToBiasedERKj
FN:379,_ZN7testing8internal13FloatingPointIfE38DistanceBetweenSignAndMagnitudeNumbersERKjS4_
FNDA:0,_ZN7testing8internal13FloatingPointIfE38DistanceBetweenSignAndMagnitudeNumbersERKjS4_
FN:418,_ZN7testing8internal9GetTypeIdI20AccDistancePidRATestEEPKvv
FNDA:100,_ZN7testing8internal9GetTypeIdI20AccDistancePidRATestEEPKvv
FN:437,_ZN7testing8internal15TestFactoryBaseD2Ev
FNDA:0,_ZN7testing8internal15TestFactoryBaseD2Ev
FN:444,_ZN7testing8internal15TestFactoryBaseC2Ev
FNDA:0,_ZN7testing8internal15TestFactoryBaseC2Ev
FN:456,_ZN7testing8internal15TestFactoryImplI43AccDistancePidRATest_TC_ACC_DIST_RA_32_TestE10CreateTestEv
FNDA:1,_ZN7testing8internal15TestFactoryImplI43AccDistancePidRATest_TC_ACC_DIST_RA_32_TestE10CreateTestEv
FN:456,_ZN7testing8internal15TestFactoryImplI43AccDistancePidRATest_TC_ACC_DIST_RA_33_TestE10CreateTestEv
FNDA:1,_ZN7testing8internal15TestFactoryImplI43AccDistancePidRATest_TC_ACC_DIST_RA_33_TestE10CreateTestEv
FN:456,_ZN7testing8internal15TestFactoryImplI43AccDistancePidRATest_TC_ACC_DIST_RA_01_TestE10CreateTestEv
FNDA:1,_ZN7testing8internal15TestFactoryImplI43AccDistancePidRATest_TC_ACC_DIST_RA_01_TestE10CreateTestEv
FN:456,_ZN7testing8internal15TestFactoryImplI43AccDistancePidRATest_TC_ACC_DIST_RA_34_TestE10CreateTestEv
FNDA:1,_ZN7testing8internal15TestFactoryImplI43AccDistancePidRATest_TC_ACC_DIST_RA_34_TestE10CreateTestEv
FN:456,_ZN7testing8internal15TestFactoryImplI43AccDistancePidRATest_TC_ACC_DIST_RA_35_TestE10CreateTestEv
FNDA:1,_ZN7testing8internal15TestFactoryImplI43AccDistancePidRATest_TC_ACC_DIST_RA_35_TestE10CreateTestEv
FN:456,_ZN7testing8internal15TestFactoryImplI43AccDistancePidRATest_TC_ACC_DIST_RA_36_TestE10CreateTestEv
FNDA:1,_ZN7testing8internal15TestFactoryImplI43AccDistancePidRATest_TC_ACC_DIST_RA_36_TestE10CreateTestEv
FN:456,_ZN7testing8internal15TestFactoryImplI43AccDistancePidRATest_TC_ACC_DIST_RA_37_TestE10CreateTestEv
FNDA:1,_ZN7testing8internal15TestFactoryImplI43AccDistancePidRATest_TC_ACC_DIST_RA_37_TestE10CreateTestEv
FN:456,_ZN7testing8internal15TestFactoryImplI43AccDistancePidRATest_TC_ACC_DIST_RA_38_TestE10CreateTestEv
FNDA:1,_ZN7testing8internal15TestFactoryImplI43AccDistancePidRATest_TC_ACC_DIST_RA_38_TestE10CreateTestEv
FN:456,_ZN7testing8internal15TestFactoryImplI43AccDistancePidRATest_TC_ACC_DIST_RA_39_TestE10CreateTestEv
FNDA:1,_ZN7testing8internal15TestFactoryImplI43AccDistancePidRATest_TC_ACC_DIST_RA_39_TestE10CreateTestEv
FN:456,_ZN7testing8internal15TestFactoryImplI43AccDistancePidRATest_TC_ACC_DIST_RA_40_TestE10CreateTestEv
FNDA:1,_ZN7testing8internal15TestFactoryImplI43AccDistancePidRATest_TC_ACC_DIST_RA_40_TestE10CreateTestEv
FN:456,_ZN7testing8internal15TestFactoryImplI43AccDistancePidRATest_TC_ACC_DIST_RA_41_TestE10CreateTestEv
FNDA:1,_ZN7testing8internal15TestFactoryImplI43AccDistancePidRATest_TC_ACC_DIST_RA_41_TestE10CreateTestEv
FN:456,_ZN7testing8internal15TestFactoryImplI43AccDistancePidRATest_TC_ACC_DIST_RA_42_TestE10CreateTestEv
FNDA:1,_ZN7testing8internal15TestFactoryImplI43AccDistancePidRATest_TC_ACC_DIST_RA_42_TestE10CreateTestEv
FN:456,_ZN7testing8internal15TestFactoryImplI43AccDistancePidRATest_TC_ACC_DIST_RA_43_TestE10CreateTestEv
FNDA:1,_ZN7testing8internal15TestFactoryImplI43AccDistancePidRATest_TC_ACC_DIST_RA_43_TestE10CreateTestEv
FN:456,_ZN7testing8internal15TestFactoryImplI43AccDistancePidRATest_TC_ACC_DIST_RA_44_TestE10CreateTestEv
FNDA:1,_ZN7testing8internal15TestFactoryImplI43AccDistancePidRATest_TC_ACC_DIST_RA_44_TestE10CreateTestEv
FN:456,_ZN7testing8internal15TestFactoryImplI43AccDistancePidRATest_TC_ACC_DIST_RA_45_TestE10CreateTestEv
FNDA:1,_ZN7testing8internal15TestFactoryImplI43AccDistancePidRATest_TC_ACC_DIST_RA_45_TestE10CreateTestEv
FN:456,_ZN7testing8internal15TestFactoryImplI43AccDistancePidRATest_TC_ACC_DIST_RA_46_TestE10CreateTestEv
FNDA:1,_ZN7testing8internal15TestFactoryImplI43AccDistancePidRATest_TC_ACC_DIST_RA_46_TestE10CreateTestEv
FN:456,_ZN7testing8internal15TestFactoryImplI43AccDistancePidRATest_TC_ACC_DIST_RA_47_TestE10CreateTestEv
FNDA:1,_ZN7testing8internal15TestFactoryImplI43AccDistancePidRATest_TC_ACC_DIST_RA_47_TestE10CreateTestEv
FN:456,_ZN7testing8internal15TestFactoryImplI43AccDistancePidRATest_TC_ACC_DIST_RA_48_TestE10CreateTestEv
FNDA:1,_ZN7testing8internal15TestFactoryImplI43AccDistancePidRATest_TC_ACC_DIST_RA_48_TestE10CreateTestEv
FN:456,_ZN7testing8internal15TestFactoryImplI43AccDistancePidRATest_TC_ACC_DIST_RA_49_TestE10CreateTestEv
FNDA:1,_ZN7testing8internal15TestFactoryImplI43AccDistancePidRATest_TC_ACC_DIST_RA_49_TestE10CreateTestEv
FN:456,_ZN7testing8internal15TestFactoryImplI43AccDistancePidRATest_TC_ACC_DIST_RA_50_TestE10CreateTestEv
FNDA:1,_ZN7testing8internal15TestFactoryImplI43AccDistancePidRATest_TC_ACC_DIST_RA_50_TestE10CreateTestEv
FN:456,_ZN7testing8internal15TestFactoryImplI43AccDistancePidRATest_TC_ACC_DIST_RA_14_TestE10CreateTestEv
FNDA:1,_ZN7testing8internal15TestFactoryImplI43AccDistancePidRATest_TC_ACC_DIST_RA_14_TestE10CreateTestEv
FN:456,_ZN7testing8internal15TestFactoryImplI43AccDistancePidRATest_TC_ACC_DIST_RA_02_TestE10CreateTestEv
FNDA:1,_ZN7testing8internal15TestFactoryImplI43AccDistancePidRATest_TC_ACC_DIST_RA_02_TestE10CreateTestEv
FN:456,_ZN7testing8internal15TestFactoryImplI43AccDistancePidRATest_TC_ACC_DIST_RA_03_TestE10CreateTestEv
FNDA:1,_ZN7testing8internal15TestFactoryImplI43AccDistancePidRATest_TC_ACC_DIST_RA_03_TestE10CreateTestEv
FN:456,_ZN7testing8internal15TestFactoryImplI43AccDistancePidRATest_TC_ACC_DIST_RA_04_TestE10CreateTestEv
FNDA:1,_ZN7testing8internal15TestFactoryImplI43AccDistancePidRATest_TC_ACC_DIST_RA_04_TestE10CreateTestEv
FN:456,_ZN7testing8internal15TestFactoryImplI43AccDistancePidRATest_TC_ACC_DIST_RA_05_TestE10CreateTestEv
FNDA:1,_ZN7testing8internal15TestFactoryImplI43AccDistancePidRATest_TC_ACC_DIST_RA_05_TestE10CreateTestEv
FN:456,_ZN7testing8internal15TestFactoryImplI43AccDistancePidRATest_TC_ACC_DIST_RA_06_TestE10CreateTestEv
FNDA:1,_ZN7testing8internal15TestFactoryImplI43AccDistancePidRATest_TC_ACC_DIST_RA_06_TestE10CreateTestEv
FN:456,_ZN7testing8internal15TestFactoryImplI43AccDistancePidRATest_TC_ACC_DIST_RA_07_TestE10CreateTestEv
FNDA:1,_ZN7testing8internal15TestFactoryImplI43AccDistancePidRATest_TC_ACC_DIST_RA_07_TestE10CreateTestEv
FN:456,_ZN7testing8internal15TestFactoryImplI43AccDistancePidRATest_TC_ACC_DIST_RA_08_TestE10CreateTestEv
FNDA:1,_ZN7testing8internal15TestFactoryImplI43AccDistancePidRATest_TC_ACC_DIST_RA_08_TestE10CreateTestEv
FN:456,_ZN7testing8internal15TestFactoryImplI43AccDistancePidRATest_TC_ACC_DIST_RA_09_TestE10CreateTestEv
FNDA:1,_ZN7testing8internal15TestFactoryImplI43AccDistancePidRATest_TC_ACC_DIST_RA_09_TestE10CreateTestEv
FN:456,_ZN7testing8internal15TestFactoryImplI43AccDistancePidRATest_TC_ACC_DIST_RA_10_TestE10CreateTestEv
FNDA:1,_ZN7testing8internal15TestFactoryImplI43AccDistancePidRATest_TC_ACC_DIST_RA_10_TestE10CreateTestEv
FN:456,_ZN7testing8internal15TestFactoryImplI43AccDistancePidRATest_TC_ACC_DIST_RA_11_TestE10CreateTestEv
FNDA:1,_ZN7testing8internal15TestFactoryImplI43AccDistancePidRATest_TC_ACC_DIST_RA_11_TestE10CreateTestEv
FN:456,_ZN7testing8internal15TestFactoryImplI43AccDistancePidRATest_TC_ACC_DIST_RA_12_TestE10CreateTestEv
FNDA:1,_ZN7testing8internal15TestFactoryImplI43AccDistancePidRATest_TC_ACC_DIST_RA_12_TestE10CreateTestEv
FN:456,_ZN7testing8internal15TestFactoryImplI43AccDistancePidRATest_TC_ACC_DIST_RA_13_TestE10CreateTestEv
FNDA:1,_ZN7testing8internal15TestFactoryImplI43AccDistancePidRATest_TC_ACC_DIST_RA_13_TestE10CreateTestEv
FN:456,_ZN7testing8internal15TestFactoryImplI43AccDistancePidRATest_TC_ACC_DIST_RA_31_TestE10CreateTestEv
FNDA:1,_ZN7testing8internal15TestFactoryImplI43AccDistancePidRATest_TC_ACC_DIST_RA_31_TestE10CreateTestEv
FN:456,_ZN7testing8internal15TestFactoryImplI43AccDistancePidRATest_TC_ACC_DIST_RA_15_TestE10CreateTestEv
FNDA:1,_ZN7testing8internal15TestFactoryImplI43AccDistancePidRATest_TC_ACC_DIST_RA_15_TestE10CreateTestEv
FN:456,_ZN7testing8internal15TestFactoryImplI43AccDistancePidRATest_TC_ACC_DIST_RA_25_TestE10CreateTestEv
FNDA:1,_ZN7testing8internal15TestFactoryImplI43AccDistancePidRATest_TC_ACC_DIST_RA_25_TestE10CreateTestEv
FN:456,_ZN7testing8internal15TestFactoryImplI43AccDistancePidRATest_TC_ACC_DIST_RA_30_TestE10CreateTestEv
FNDA:1,_ZN7testing8internal15TestFactoryImplI43AccDistancePidRATest_TC_ACC_DIST_RA_30_TestE10CreateTestEv
FN:456,_ZN7testing8internal15TestFactoryImplI43AccDistancePidRATest_TC_ACC_DIST_RA_29_TestE10CreateTestEv
FNDA:1,_ZN7testing8internal15TestFactoryImplI43AccDistancePidRATest_TC_ACC_DIST_RA_29_TestE10CreateTestEv
FN:456,_ZN7testing8internal15TestFactoryImplI43AccDistancePidRATest_TC_ACC_DIST_RA_28_TestE10CreateTestEv
FNDA:1,_ZN7testing8internal15TestFactoryImplI43AccDistancePidRATest_TC_ACC_DIST_RA_28_TestE10CreateTestEv
FN:456,_ZN7testing8internal15TestFactoryImplI43AccDistancePidRATest_TC_ACC_DIST_RA_27_TestE10CreateTestEv
FNDA:1,_ZN7testing8internal15TestFactoryImplI43AccDistancePidRATest_TC_ACC_DIST_RA_27_TestE10CreateTestEv
FN:456,_ZN7testing8internal15TestFactoryImplI43AccDistancePidRATest_TC_ACC_DIST_RA_26_TestE10CreateTestEv
FNDA:1,_ZN7testing8internal15TestFactoryImplI43AccDistancePidRATest_TC_ACC_DIST_RA_26_TestE10CreateTestEv
FN:456,_ZN7testing8internal15TestFactoryImplI43AccDistancePidRATest_TC_ACC_DIST_RA_16_TestE10CreateTestEv
FNDA:1,_ZN7testing8internal15TestFactoryImplI43AccDistancePidRATest_TC_ACC_DIST_RA_16_TestE10CreateTestEv
FN:456,_ZN7testing8internal15TestFactoryImplI43AccDistancePidRATest_TC_ACC_DIST_RA_24_TestE10CreateTestEv
FNDA:1,_ZN7testing8internal15TestFactoryImplI43AccDistancePidRATest_TC_ACC_DIST_RA_24_TestE10CreateTestEv
FN:456,_ZN7testing8internal15TestFactoryImplI43AccDistancePidRATest_TC_ACC_DIST_RA_23_TestE10CreateTestEv
FNDA:1,_ZN7testing8internal15TestFactoryImplI43AccDistancePidRATest_TC_ACC_DIST_RA_23_TestE10CreateTestEv
FN:456,_ZN7testing8internal15TestFactoryImplI43AccDistancePidRATest_TC_ACC_DIST_RA_22_TestE10CreateTestEv
FNDA:1,_ZN7testing8internal15TestFactoryImplI43AccDistancePidRATest_TC_ACC_DIST_RA_22_TestE10CreateTestEv
FN:456,_ZN7testing8internal15TestFactoryImplI43AccDistancePidRATest_TC_ACC_DIST_RA_21_TestE10CreateTestEv
FNDA:1,_ZN7testing8internal15TestFactoryImplI43AccDistancePidRATest_TC_ACC_DIST_RA_21_TestE10CreateTestEv
FN:456,_ZN7testing8internal15TestFactoryImplI43AccDistancePidRATest_TC_ACC_DIST_RA_20_TestE10CreateTestEv
FNDA:1,_ZN7testing8internal15TestFactoryImplI43AccDistancePidRATest_TC_ACC_DIST_RA_20_TestE10CreateTestEv
FN:456,_ZN7testing8internal15TestFactoryImplI43AccDistancePidRATest_TC_ACC_DIST_RA_19_TestE10CreateTestEv
FNDA:1,_ZN7testing8internal15TestFactoryImplI43AccDistancePidRATest_TC_ACC_DIST_RA_19_TestE10CreateTestEv
FN:456,_ZN7testing8internal15TestFactoryImplI43AccDistancePidRATest_TC_ACC_DIST_RA_18_TestE10CreateTestEv
FNDA:1,_ZN7testing8internal15TestFactoryImplI43AccDistancePidRATest_TC_ACC_DIST_RA_18_TestE10CreateTestEv
FN:456,_ZN7testing8internal15TestFactoryImplI43AccDistancePidRATest_TC_ACC_DIST_RA_17_TestE10CreateTestEv
FNDA:1,_ZN7testing8internal15TestFactoryImplI43AccDistancePidRATest_TC_ACC_DIST_RA_17_TestE10CreateTestEv
FN:477,_ZN7testing8internal12CodeLocationC1ENSt7__cxx1112basic_stringIcSt11char_traitsIcESaIcEEEi
FNDA:0,_ZN7testing8internal12CodeLocationC1ENSt7__cxx1112basic_stringIcSt11char_traitsIcESaIcEEEi
FN:490,_ZN7testing8internal19GetNotDefaultOrNullEPFvvES2_
FNDA:0,_ZN7testing8internal19GetNotDefaultOrNullEPFvvES2_
FN:505,_ZN7testing8internal16SuiteApiResolverI20AccDistancePidRATestE19GetSetUpCaseOrSuiteEPKci
FNDA:100,_ZN7testing8internal16SuiteApiResolverI20AccDistancePidRATestE19GetSetUpCaseOrSuiteEPKci
FN:526,_ZN7testing8internal16SuiteApiResolverI20AccDistancePidRATestE22GetTearDownCaseOrSuiteEPKci
FNDA:100,_ZN7testing8internal16SuiteApiResolverI20AccDistancePidRATestE22GetTearDownCaseOrSuiteEPKci
FNF:64
FNH:53
DA:293,0
DA:315,0
DA:318,0
DA:324,0
DA:327,0
DA:336,0
DA:339,0
DA:341,0
DA:342,0
DA:367,0
DA:368,0
DA:370,0
DA:373,0
DA:379,0
DA:381,0
DA:382,0
DA:383,0
DA:418,100
DA:423,100
DA:437,0
DA:444,0
DA:456,1
DA:456,1
DA:456,1
DA:456,1
DA:456,1
DA:456,1
DA:456,1
DA:456,1
DA:456,1
DA:456,1
DA:456,1
DA:456,1
DA:456,1
DA:456,1
DA:456,1
DA:456,1
DA:456,1
DA:456,1
DA:456,1
DA:456,1
DA:456,1
DA:456,1
DA:456,1
DA:456,1
DA:456,1
DA:456,1
DA:456,1
DA:456,1
DA:456,1
DA:456,1
DA:456,1
DA:456,1
DA:456,1
DA:456,1
DA:456,1
DA:456,1
DA:456,1
DA:456,1
DA:456,1
DA:456,1
DA:456,1
DA:456,1
DA:456,1
DA:456,1
DA:456,1
DA:456,1
DA:456,1
DA:456,1
DA:456,1
DA:456,1
DA:477,0
DA:478,0
DA:490,0
DA:492,0
DA:505,100
DA:509,100
DA:511,100
DA:513,100
DA:516,0
DA:518,100
DA:526,100
DA:530,100
DA:532,100
DA:534,100
DA:537,0
DA:539,100
LF:87
LH:62
end_of_record
SF:C:/msys64/mingw64/include/c++/14.2.0/bits/stl_iterator_base_types.h
DA:240,0
LF:1
LH:0
end_of_record
SF:C:/Projects/GoogleTestProject/googletest/googletest/include/gtest/gtest-assertion-result.h
FN:155,_ZN7testing15AssertionResultC1IbEERKT_PNSt9enable_ifIXntsrSt14is_convertibleIS2_S0_E5valueEvE4typeE
FNDA:0,_ZN7testing15AssertionResultC1IbEERKT_PNSt9enable_ifIXntsrSt14is_convertibleIS2_S0_E5valueEvE4typeE
FN:174,_ZNK7testing15AssertionResultcvbEv
FNDA:0,_ZNK7testing15AssertionResultcvbEv
FN:183,_ZNK7testing15AssertionResult7messageEv
FNDA:0,_ZNK7testing15AssertionResult7messageEv
FN:187,_ZNK7testing15AssertionResult15failure_messageEv
FNDA:0,_ZNK7testing15AssertionResult15failure_messageEv
FN:191,_ZN7testing15AssertionResultlsIA5_cEERS0_RKT_
FNDA:0,_ZN7testing15AssertionResultlsIA5_cEERS0_RKT_
FN:191,_ZN7testing15AssertionResultlsINSt7__cxx1112basic_stringIcSt11char_traitsIcESaIcEEEEERS0_RKT_
FNDA:0,_ZN7testing15AssertionResultlsINSt7__cxx1112basic_stringIcSt11char_traitsIcESaIcEEEEERS0_RKT_
FN:191,_ZN7testing15AssertionResultlsIA3_cEERS0_RKT_
FNDA:0,_ZN7testing15AssertionResultlsIA3_cEERS0_RKT_
FN:191,_ZN7testing15AssertionResultlsIPKcEERS0_RKT_
FNDA:0,_ZN7testing15AssertionResultlsIPKcEERS0_RKT_
FN:191,_ZN7testing15AssertionResultlsIA12_cEERS0_RKT_
FNDA:0,_ZN7testing15AssertionResultlsIA12_cEERS0_RKT_
FN:206,_ZN7testing15AssertionResult13AppendMessageERKNS_7MessageE
FNDA:0,_ZN7testing15AssertionResult13AppendMessageERKNS_7MessageE
FNF:10
FNH:0
DA:155,0
DA:161,0
DA:174,0
DA:183,0
DA:184,0
DA:187,0
DA:191,0
DA:192,0
DA:193,0
DA:191,0
DA:192,0
DA:193,0
DA:191,0
DA:192,0
DA:193,0
DA:191,0
DA:192,0
DA:193,0
DA:191,0
DA:192,0
DA:193,0
DA:206,0
DA:207,0
DA:208,0
DA:209,0
LF:25
LH:0
end_of_record
SF:C:/msys64/mingw64/include/c++/14.2.0/bits/new_allocator.h
FN:104,_ZNSt15__new_allocatorIcED2Ev
FNDA:0,_ZNSt15__new_allocatorIcED2Ev
FNF:1
FNH:0
DA:104,0
LF:1
LH:0
end_of_record
SF:C:/msys64/mingw64/include/c++/14.2.0/bits/basic_string.h
FN:646,_ZNSt7__cxx1112basic_stringIcSt11char_traitsIcESaIcEEC1IS3_EEPKcRKS3_
FNDA:0,_ZNSt7__cxx1112basic_stringIcSt11char_traitsIcESaIcEEC1IS3_EEPKcRKS3_
FNF:1
FNH:0
DA:360,0
DA:646,0
DA:647,0
DA:650,0
DA:651,0
DA:653,0
DA:654,0
DA:655,0
LF:8
LH:0
end_of_record
SF:C:/msys64/mingw64/include/c++/14.2.0/tuple
FN:89,_ZNSt10_Head_baseILy1ESt14default_deleteINSt7__cxx1112basic_stringIcSt11char_traitsIcESaIcEEEELb1EEC2Ev
FNDA:0,_ZNSt10_Head_baseILy1ESt14default_deleteINSt7__cxx1112basic_stringIcSt11char_traitsIcESaIcEEEELb1EEC2Ev
FN:133,_ZNSt10_Head_baseILy1ESt14default_deleteINSt7__cxx1118basic_stringstreamIcSt11char_traitsIcESaIcEEEELb1EE7_M_headERS8_
FNDA:0,_ZNSt10_Head_baseILy1ESt14default_deleteINSt7__cxx1118basic_stringstreamIcSt11char_traitsIcESaIcEEEELb1EE7_M_headERS8_
FN:133,_ZNSt10_Head_baseILy1ESt14default_deleteINSt7__cxx1112basic_stringIcSt11char_traitsIcESaIcEEEELb1EE7_M_headERS8_
FNDA:0,_ZNSt10_Head_baseILy1ESt14default_deleteINSt7__cxx1112basic_stringIcSt11char_traitsIcESaIcEEEELb1EE7_M_headERS8_
FN:198,_ZNSt10_Head_baseILy0EPNSt7__cxx1112basic_stringIcSt11char_traitsIcESaIcEEELb0EEC2Ev
FNDA:0,_ZNSt10_Head_baseILy0EPNSt7__cxx1112basic_stringIcSt11char_traitsIcESaIcEEELb0EEC2Ev
FN:242,_ZNSt10_Head_baseILy0EPNSt7__cxx1112basic_stringIcSt11char_traitsIcESaIcEEELb0EE7_M_headERS7_
FNDA:0,_ZNSt10_Head_baseILy0EPNSt7__cxx1112basic_stringIcSt11char_traitsIcESaIcEEELb0EE7_M_headERS7_
FN:242,_ZNSt10_Head_baseILy0EPNSt7__cxx1118basic_stringstreamIcSt11char_traitsIcESaIcEEELb0EE7_M_headERS7_
FNDA:0,_ZNSt10_Head_baseILy0EPNSt7__cxx1118basic_stringstreamIcSt11char_traitsIcESaIcEEELb0EE7_M_headERS7_
FN:245,_ZNSt10_Head_baseILy0EPNSt7__cxx1118basic_stringstreamIcSt11char_traitsIcESaIcEEELb0EE7_M_headERKS7_
FNDA:0,_ZNSt10_Head_baseILy0EPNSt7__cxx1118basic_stringstreamIcSt11char_traitsIcESaIcEEELb0EE7_M_headERKS7_
FN:245,_ZNSt10_Head_baseILy0EPNSt7__cxx1112basic_stringIcSt11char_traitsIcESaIcEEELb0EE7_M_headERKS7_
FNDA:0,_ZNSt10_Head_baseILy0EPNSt7__cxx1112basic_stringIcSt11char_traitsIcESaIcEEELb0EE7_M_headERKS7_
FN:293,_ZNSt11_Tuple_implILy0EJPNSt7__cxx1118basic_stringstreamIcSt11char_traitsIcESaIcEEESt14default_deleteIS5_EEE7_M_headERS9_
FNDA:0,_ZNSt11_Tuple_implILy0EJPNSt7__cxx1118basic_stringstreamIcSt11char_traitsIcESaIcEEESt14default_deleteIS5_EEE7_M_headERS9_
FN:293,_ZNSt11_Tuple_implILy0EJPNSt7__cxx1112basic_stringIcSt11char_traitsIcESaIcEEESt14default_deleteIS5_EEE7_M_headERS9_
FNDA:0,_ZNSt11_Tuple_implILy0EJPNSt7__cxx1112basic_stringIcSt11char_traitsIcESaIcEEESt14default_deleteIS5_EEE7_M_headERS9_
FN:296,_ZNSt11_Tuple_implILy0EJPNSt7__cxx1112basic_stringIcSt11char_traitsIcESaIcEEESt14default_deleteIS5_EEE7_M_headERKS9_
FNDA:0,_ZNSt11_Tuple_implILy0EJPNSt7__cxx1112basic_stringIcSt11char_traitsIcESaIcEEESt14default_deleteIS5_EEE7_M_headERKS9_
FN:296,_ZNSt11_Tuple_implILy0EJPNSt7__cxx1118basic_stringstreamIcSt11char_traitsIcESaIcEEESt14default_deleteIS5_EEE7_M_headERKS9_
FNDA:0,_ZNSt11_Tuple_implILy0EJPNSt7__cxx1118basic_stringstreamIcSt11char_traitsIcESaIcEEESt14default_deleteIS5_EEE7_M_headERKS9_
FN:304,_ZNSt11_Tuple_implILy0EJPNSt7__cxx1112basic_stringIcSt11char_traitsIcESaIcEEESt14default_deleteIS5_EEEC2Ev
FNDA:0,_ZNSt11_Tuple_implILy0EJPNSt7__cxx1112basic_stringIcSt11char_traitsIcESaIcEEESt14default_deleteIS5_EEEC2Ev
FN:556,_ZNSt11_Tuple_implILy1EJSt14default_deleteINSt7__cxx1112basic_stringIcSt11char_traitsIcESaIcEEEEEE7_M_headERS8_
FNDA:0,_ZNSt11_Tuple_implILy1EJSt14default_deleteINSt7__cxx1112basic_stringIcSt11char_traitsIcESaIcEEEEEE7_M_headERS8_
FN:556,_ZNSt11_Tuple_implILy1EJSt14default_deleteINSt7__cxx1118basic_stringstreamIcSt11char_traitsIcESaIcEEEEEE7_M_headERS8_
FNDA:0,_ZNSt11_Tuple_implILy1EJSt14default_deleteINSt7__cxx1118basic_stringstreamIcSt11char_traitsIcESaIcEEEEEE7_M_headERS8_
FN:562,_ZNSt11_Tuple_implILy1EJSt14default_deleteINSt7__cxx1112basic_stringIcSt11char_traitsIcESaIcEEEEEEC2Ev
FNDA:0,_ZNSt11_Tuple_implILy1EJSt14default_deleteINSt7__cxx1112basic_stringIcSt11char_traitsIcESaIcEEEEEEC2Ev
FN:2089,_ZNSt5tupleIJPNSt7__cxx1112basic_stringIcSt11char_traitsIcESaIcEEESt14default_deleteIS5_EEEC1ILb1ELb1EEEv
FNDA:0,_ZNSt5tupleIJPNSt7__cxx1112basic_stringIcSt11char_traitsIcESaIcEEESt14default_deleteIS5_EEEC1ILb1ELb1EEEv
FN:2427,_ZSt12__get_helperILy1ESt14default_deleteINSt7__cxx1118basic_stringstreamIcSt11char_traitsIcESaIcEEEEJEERT0_RSt11_Tuple_implIXT_EJS8_DpT1_EE
FNDA:0,_ZSt12__get_helperILy1ESt14default_deleteINSt7__cxx1118basic_stringstreamIcSt11char_traitsIcESaIcEEEEJEERT0_RSt11_Tuple_implIXT_EJS8_DpT1_EE
FN:2427,_ZSt12__get_helperILy1ESt14default_deleteINSt7__cxx1112basic_stringIcSt11char_traitsIcESaIcEEEEJEERT0_RSt11_Tuple_implIXT_EJS8_DpT1_EE
FNDA:0,_ZSt12__get_helperILy1ESt14default_deleteINSt7__cxx1112basic_stringIcSt11char_traitsIcESaIcEEEEJEERT0_RSt11_Tuple_implIXT_EJS8_DpT1_EE
FN:2427,_ZSt12__get_helperILy0EPNSt7__cxx1112basic_stringIcSt11char_traitsIcESaIcEEEJSt14default_deleteIS5_EEERT0_RSt11_Tuple_implIXT_EJS9_DpT1_EE
FNDA:0,_ZSt12__get_helperILy0EPNSt7__cxx1112basic_stringIcSt11char_traitsIcESaIcEEEJSt14default_deleteIS5_EEERT0_RSt11_Tuple_implIXT_EJS9_DpT1_EE
FN:2427,_ZSt12__get_helperILy0EPNSt7__cxx1118basic_stringstreamIcSt11char_traitsIcESaIcEEEJSt14default_deleteIS5_EEERT0_RSt11_Tuple_implIXT_EJS9_DpT1_EE
FNDA:0,_ZSt12__get_helperILy0EPNSt7__cxx1118basic_stringstreamIcSt11char_traitsIcESaIcEEEJSt14default_deleteIS5_EEERT0_RSt11_Tuple_implIXT_EJS9_DpT1_EE
FN:2432,_ZSt12__get_helperILy0EPNSt7__cxx1112basic_stringIcSt11char_traitsIcESaIcEEEJSt14default_deleteIS5_EEERKT0_RKSt11_Tuple_implIXT_EJS9_DpT1_EE
FNDA:0,_ZSt12__get_helperILy0EPNSt7__cxx1112basic_stringIcSt11char_traitsIcESaIcEEEJSt14default_deleteIS5_EEERKT0_RKSt11_Tuple_implIXT_EJS9_DpT1_EE
FN:2432,_ZSt12__get_helperILy0EPNSt7__cxx1118basic_stringstreamIcSt11char_traitsIcESaIcEEEJSt14default_deleteIS5_EEERKT0_RKSt11_Tuple_implIXT_EJS9_DpT1_EE
FNDA:0,_ZSt12__get_helperILy0EPNSt7__cxx1118basic_stringstreamIcSt11char_traitsIcESaIcEEEJSt14default_deleteIS5_EEERKT0_RKSt11_Tuple_implIXT_EJS9_DpT1_EE
FN:2443,_ZSt3getILy1EJPNSt7__cxx1112basic_stringIcSt11char_traitsIcESaIcEEESt14default_deleteIS5_EEERNSt13tuple_elementIXT_ESt5tupleIJDpT0_EEE4typeERSD_
FNDA:0,_ZSt3getILy1EJPNSt7__cxx1112basic_stringIcSt11char_traitsIcESaIcEEESt14default_deleteIS5_EEERNSt13tuple_elementIXT_ESt5tupleIJDpT0_EEE4typeERSD_
FN:2443,_ZSt3getILy0EJPNSt7__cxx1112basic_stringIcSt11char_traitsIcESaIcEEESt14default_deleteIS5_EEERNSt13tuple_elementIXT_ESt5tupleIJDpT0_EEE4typeERSD_
FNDA:0,_ZSt3getILy0EJPNSt7__cxx1112basic_stringIcSt11char_traitsIcESaIcEEESt14default_deleteIS5_EEERNSt13tuple_elementIXT_ESt5tupleIJDpT0_EEE4typeERSD_
FN:2443,_ZSt3getILy0EJPNSt7__cxx1118basic_stringstreamIcSt11char_traitsIcESaIcEEESt14default_deleteIS5_EEERNSt13tuple_elementIXT_ESt5tupleIJDpT0_EEE4typeERSD_
FNDA:0,_ZSt3getILy0EJPNSt7__cxx1118basic_stringstreamIcSt11char_traitsIcESaIcEEESt14default_deleteIS5_EEERNSt13tuple_elementIXT_ESt5tupleIJDpT0_EEE4typeERSD_
FN:2443,_ZSt3getILy1EJPNSt7__cxx1118basic_stringstreamIcSt11char_traitsIcESaIcEEESt14default_deleteIS5_EEERNSt13tuple_elementIXT_ESt5tupleIJDpT0_EEE4typeERSD_
FNDA:0,_ZSt3getILy1EJPNSt7__cxx1118basic_stringstreamIcSt11char_traitsIcESaIcEEESt14default_deleteIS5_EEERNSt13tuple_elementIXT_ESt5tupleIJDpT0_EEE4typeERSD_
FN:2449,_ZSt3getILy0EJPNSt7__cxx1118basic_stringstreamIcSt11char_traitsIcESaIcEEESt14default_deleteIS5_EEERKNSt13tuple_elementIXT_ESt5tupleIJDpT0_EEE4typeERKSD_
FNDA:0,_ZSt3getILy0EJPNSt7__cxx1118basic_stringstreamIcSt11char_traitsIcESaIcEEESt14default_deleteIS5_EEERKNSt13tuple_elementIXT_ESt5tupleIJDpT0_EEE4typeERKSD_
FN:2449,_ZSt3getILy0EJPNSt7__cxx1112basic_stringIcSt11char_traitsIcESaIcEEESt14default_deleteIS5_EEERKNSt13tuple_elementIXT_ESt5tupleIJDpT0_EEE4typeERKSD_
FNDA:0,_ZSt3getILy0EJPNSt7__cxx1112basic_stringIcSt11char_traitsIcESaIcEEESt14default_deleteIS5_EEERKNSt13tuple_elementIXT_ESt5tupleIJDpT0_EEE4typeERKSD_
FNF:29
FNH:0
DA:89,0
DA:90,0
DA:133,0
DA:133,0
DA:198,0
DA:199,0
DA:242,0
DA:242,0
DA:245,0
DA:245,0
DA:293,0
DA:293,0
DA:296,0
DA:296,0
DA:304,0
DA:305,0
DA:556,0
DA:556,0
DA:562,0
DA:563,0
DA:2089,0
DA:2091,0
DA:2427,0
DA:2428,0
DA:2427,0
DA:2428,0
DA:2427,0
DA:2428,0
DA:2427,0
DA:2428,0
DA:2432,0
DA:2433,0
DA:2432,0
DA:2433,0
DA:2443,0
DA:2444,0
DA:2443,0
DA:2444,0
DA:2443,0
DA:2444,0
DA:2443,0
DA:2444,0
DA:2449,0
DA:2450,0
DA:2449,0
DA:2450,0
LF:46
LH:0
end_of_record
SF:C:/msys64/mingw64/include/c++/14.2.0/cmath
FN:1126,_ZSt8isfinitef
FNDA:0,_ZSt8isfinitef
FNF:1
FNH:0
DA:1126,0
DA:1127,0
LF:2
LH:0
end_of_record
SF:C:/Projects/GoogleTestProject/acc_distance_RA_test.cpp
FN:20,_ZL23resetDistancePidStaticsv
FNDA:50,_ZL23resetDistancePidStaticsv
FN:37,_ZN20AccDistancePidRATest5SetUpEv
FNDA:50,_ZN20AccDistancePidRATest5SetUpEv
FN:67,_ZN43AccDistancePidRATest_TC_ACC_DIST_RA_01_TestC1Ev
FNDA:1,_ZN43AccDistancePidRATest_TC_ACC_DIST_RA_01_TestC1Ev
FN:67,_ZN43AccDistancePidRATest_TC_ACC_DIST_RA_01_Test8TestBodyEv
FNDA:1,_ZN43AccDistancePidRATest_TC_ACC_DIST_RA_01_Test8TestBodyEv
FN:67,_ZN43AccDistancePidRATest_TC_ACC_DIST_RA_01_TestD1Ev
FNDA:1,_ZN43AccDistancePidRATest_TC_ACC_DIST_RA_01_TestD1Ev
FN:67,_ZN43AccDistancePidRATest_TC_ACC_DIST_RA_01_TestD0Ev
FNDA:1,_ZN43AccDistancePidRATest_TC_ACC_DIST_RA_01_TestD0Ev
FN:76,_ZN43AccDistancePidRATest_TC_ACC_DIST_RA_02_TestC1Ev
FNDA:1,_ZN43AccDistancePidRATest_TC_ACC_DIST_RA_02_TestC1Ev
FN:76,_ZN43AccDistancePidRATest_TC_ACC_DIST_RA_02_Test8TestBodyEv
FNDA:1,_ZN43AccDistancePidRATest_TC_ACC_DIST_RA_02_Test8TestBodyEv
FN:76,_ZN43AccDistancePidRATest_TC_ACC_DIST_RA_02_TestD1Ev
FNDA:1,_ZN43AccDistancePidRATest_TC_ACC_DIST_RA_02_TestD1Ev
FN:76,_ZN43AccDistancePidRATest_TC_ACC_DIST_RA_02_TestD0Ev
FNDA:1,_ZN43AccDistancePidRATest_TC_ACC_DIST_RA_02_TestD0Ev
FN:87,_ZN43AccDistancePidRATest_TC_ACC_DIST_RA_03_TestC1Ev
FNDA:1,_ZN43AccDistancePidRATest_TC_ACC_DIST_RA_03_TestC1Ev
FN:87,_ZN43AccDistancePidRATest_TC_ACC_DIST_RA_03_TestD1Ev
FNDA:1,_ZN43AccDistancePidRATest_TC_ACC_DIST_RA_03_TestD1Ev
FN:87,_ZN43AccDistancePidRATest_TC_ACC_DIST_RA_03_Test8TestBodyEv
FNDA:1,_ZN43AccDistancePidRATest_TC_ACC_DIST_RA_03_Test8TestBodyEv
FN:87,_ZN43AccDistancePidRATest_TC_ACC_DIST_RA_03_TestD0Ev
FNDA:1,_ZN43AccDistancePidRATest_TC_ACC_DIST_RA_03_TestD0Ev
FN:95,_ZN43AccDistancePidRATest_TC_ACC_DIST_RA_04_TestD0Ev
FNDA:1,_ZN43AccDistancePidRATest_TC_ACC_DIST_RA_04_TestD0Ev
FN:95,_ZN43AccDistancePidRATest_TC_ACC_DIST_RA_04_TestC1Ev
FNDA:1,_ZN43AccDistancePidRATest_TC_ACC_DIST_RA_04_TestC1Ev
FN:95,_ZN43AccDistancePidRATest_TC_ACC_DIST_RA_04_Test8TestBodyEv
FNDA:1,_ZN43AccDistancePidRATest_TC_ACC_DIST_RA_04_Test8TestBodyEv
FN:95,_ZN43AccDistancePidRATest_TC_ACC_DIST_RA_04_TestD1Ev
FNDA:1,_ZN43AccDistancePidRATest_TC_ACC_DIST_RA_04_TestD1Ev
FN:102,_ZN43AccDistancePidRATest_TC_ACC_DIST_RA_05_TestC1Ev
FNDA:1,_ZN43AccDistancePidRATest_TC_ACC_DIST_RA_05_TestC1Ev
FN:102,_ZN43AccDistancePidRATest_TC_ACC_DIST_RA_05_Test8TestBodyEv
FNDA:1,_ZN43AccDistancePidRATest_TC_ACC_DIST_RA_05_Test8TestBodyEv
FN:102,_ZN43AccDistancePidRATest_TC_ACC_DIST_RA_05_TestD0Ev
FNDA:1,_ZN43AccDistancePidRATest_TC_ACC_DIST_RA_05_TestD0Ev
FN:102,_ZN43AccDistancePidRATest_TC_ACC_DIST_RA_05_TestD1Ev
FNDA:1,_ZN43AccDistancePidRATest_TC_ACC_DIST_RA_05_TestD1Ev
FN:109,_ZN43AccDistancePidRATest_TC_ACC_DIST_RA_06_Test8TestBodyEv
FNDA:1,_ZN43AccDistancePidRATest_TC_ACC_DIST_RA_06_Test8TestBodyEv
FN:109,_ZN43AccDistancePidRATest_TC_ACC_DIST_RA_06_TestD1Ev
FNDA:1,_ZN43AccDistancePidRATest_TC_ACC_DIST_RA_06_TestD1Ev
FN:109,_ZN43AccDistancePidRATest_TC_ACC_DIST_RA_06_TestC1Ev
FNDA:1,_ZN43AccDistancePidRATest_TC_ACC_DIST_RA_06_TestC1Ev
FN:109,_ZN43AccDistancePidRATest_TC_ACC_DIST_RA_06_TestD0Ev
FNDA:1,_ZN43AccDistancePidRATest_TC_ACC_DIST_RA_06_TestD0Ev
FN:117,_ZN43AccDistancePidRATest_TC_ACC_DIST_RA_07_TestD1Ev
FNDA:1,_ZN43AccDistancePidRATest_TC_ACC_DIST_RA_07_TestD1Ev
FN:117,_ZN43AccDistancePidRATest_TC_ACC_DIST_RA_07_TestD0Ev
FNDA:1,_ZN43AccDistancePidRATest_TC_ACC_DIST_RA_07_TestD0Ev
FN:117,_ZN43AccDistancePidRATest_TC_ACC_DIST_RA_07_TestC1Ev
FNDA:1,_ZN43AccDistancePidRATest_TC_ACC_DIST_RA_07_TestC1Ev
FN:117,_ZN43AccDistancePidRATest_TC_ACC_DIST_RA_07_Test8TestBodyEv
FNDA:1,_ZN43AccDistancePidRATest_TC_ACC_DIST_RA_07_Test8TestBodyEv
FN:125,_ZN43AccDistancePidRATest_TC_ACC_DIST_RA_08_TestC1Ev
FNDA:1,_ZN43AccDistancePidRATest_TC_ACC_DIST_RA_08_TestC1Ev
FN:125,_ZN43AccDistancePidRATest_TC_ACC_DIST_RA_08_TestD1Ev
FNDA:1,_ZN43AccDistancePidRATest_TC_ACC_DIST_RA_08_TestD1Ev
FN:125,_ZN43AccDistancePidRATest_TC_ACC_DIST_RA_08_TestD0Ev
FNDA:1,_ZN43AccDistancePidRATest_TC_ACC_DIST_RA_08_TestD0Ev
FN:125,_ZN43AccDistancePidRATest_TC_ACC_DIST_RA_08_Test8TestBodyEv
FNDA:1,_ZN43AccDistancePidRATest_TC_ACC_DIST_RA_08_Test8TestBodyEv
FN:135,_ZN43AccDistancePidRATest_TC_ACC_DIST_RA_09_TestC1Ev
FNDA:1,_ZN43AccDistancePidRATest_TC_ACC_DIST_RA_09_TestC1Ev
FN:135,_ZN43AccDistancePidRATest_TC_ACC_DIST_RA_09_TestD1Ev
FNDA:1,_ZN43AccDistancePidRATest_TC_ACC_DIST_RA_09_TestD1Ev
FN:135,_ZN43AccDistancePidRATest_TC_ACC_DIST_RA_09_TestD0Ev
FNDA:1,_ZN43AccDistancePidRATest_TC_ACC_DIST_RA_09_TestD0Ev
FN:135,_ZN43AccDistancePidRATest_TC_ACC_DIST_RA_09_Test8TestBodyEv
FNDA:1,_ZN43AccDistancePidRATest_TC_ACC_DIST_RA_09_Test8TestBodyEv
FN:144,_ZN43AccDistancePidRATest_TC_ACC_DIST_RA_10_TestD1Ev
FNDA:1,_ZN43AccDistancePidRATest_TC_ACC_DIST_RA_10_TestD1Ev
FN:144,_ZN43AccDistancePidRATest_TC_ACC_DIST_RA_10_TestC1Ev
FNDA:1,_ZN43AccDistancePidRATest_TC_ACC_DIST_RA_10_TestC1Ev
FN:144,_ZN43AccDistancePidRATest_TC_ACC_DIST_RA_10_TestD0Ev
FNDA:1,_ZN43AccDistancePidRATest_TC_ACC_DIST_RA_10_TestD0Ev
FN:144,_ZN43AccDistancePidRATest_TC_ACC_DIST_RA_10_Test8TestBodyEv
FNDA:1,_ZN43AccDistancePidRATest_TC_ACC_DIST_RA_10_Test8TestBodyEv
FN:154,_ZN43AccDistancePidRATest_TC_ACC_DIST_RA_11_TestD0Ev
FNDA:1,_ZN43AccDistancePidRATest_TC_ACC_DIST_RA_11_TestD0Ev
FN:154,_ZN43AccDistancePidRATest_TC_ACC_DIST_RA_11_TestD1Ev
FNDA:1,_ZN43AccDistancePidRATest_TC_ACC_DIST_RA_11_TestD1Ev
FN:154,_ZN43AccDistancePidRATest_TC_ACC_DIST_RA_11_Test8TestBodyEv
FNDA:1,_ZN43AccDistancePidRATest_TC_ACC_DIST_RA_11_Test8TestBodyEv
FN:154,_ZN43AccDistancePidRATest_TC_ACC_DIST_RA_11_TestC1Ev
FNDA:1,_ZN43AccDistancePidRATest_TC_ACC_DIST_RA_11_TestC1Ev
FN:167,_ZN43AccDistancePidRATest_TC_ACC_DIST_RA_12_TestC1Ev
FNDA:1,_ZN43AccDistancePidRATest_TC_ACC_DIST_RA_12_TestC1Ev
FN:167,_ZN43AccDistancePidRATest_TC_ACC_DIST_RA_12_TestD0Ev
FNDA:1,_ZN43AccDistancePidRATest_TC_ACC_DIST_RA_12_TestD0Ev
FN:167,_ZN43AccDistancePidRATest_TC_ACC_DIST_RA_12_TestD1Ev
FNDA:1,_ZN43AccDistancePidRATest_TC_ACC_DIST_RA_12_TestD1Ev
FN:167,_ZN43AccDistancePidRATest_TC_ACC_DIST_RA_12_Test8TestBodyEv
FNDA:1,_ZN43AccDistancePidRATest_TC_ACC_DIST_RA_12_Test8TestBodyEv
FN:177,_ZN43AccDistancePidRATest_TC_ACC_DIST_RA_13_TestC1Ev
FNDA:1,_ZN43AccDistancePidRATest_TC_ACC_DIST_RA_13_TestC1Ev
FN:177,_ZN43AccDistancePidRATest_TC_ACC_DIST_RA_13_Test8TestBodyEv
FNDA:1,_ZN43AccDistancePidRATest_TC_ACC_DIST_RA_13_Test8TestBodyEv
FN:177,_ZN43AccDistancePidRATest_TC_ACC_DIST_RA_13_TestD1Ev
FNDA:1,_ZN43AccDistancePidRATest_TC_ACC_DIST_RA_13_TestD1Ev
FN:177,_ZN43AccDistancePidRATest_TC_ACC_DIST_RA_13_TestD0Ev
FNDA:1,_ZN43AccDistancePidRATest_TC_ACC_DIST_RA_13_TestD0Ev
FN:187,_ZN43AccDistancePidRATest_TC_ACC_DIST_RA_14_TestC1Ev
FNDA:1,_ZN43AccDistancePidRATest_TC_ACC_DIST_RA_14_TestC1Ev
FN:187,_ZN43AccDistancePidRATest_TC_ACC_DIST_RA_14_Test8TestBodyEv
FNDA:1,_ZN43AccDistancePidRATest_TC_ACC_DIST_RA_14_Test8TestBodyEv
FN:187,_ZN43AccDistancePidRATest_TC_ACC_DIST_RA_14_TestD1Ev
FNDA:1,_ZN43AccDistancePidRATest_TC_ACC_DIST_RA_14_TestD1Ev
FN:187,_ZN43AccDistancePidRATest_TC_ACC_DIST_RA_14_TestD0Ev
FNDA:1,_ZN43AccDistancePidRATest_TC_ACC_DIST_RA_14_TestD0Ev
FN:196,_ZN43AccDistancePidRATest_TC_ACC_DIST_RA_15_TestD1Ev
FNDA:1,_ZN43AccDistancePidRATest_TC_ACC_DIST_RA_15_TestD1Ev
FN:196,_ZN43AccDistancePidRATest_TC_ACC_DIST_RA_15_Test8TestBodyEv
FNDA:1,_ZN43AccDistancePidRATest_TC_ACC_DIST_RA_15_Test8TestBodyEv
FN:196,_ZN43AccDistancePidRATest_TC_ACC_DIST_RA_15_TestD0Ev
FNDA:1,_ZN43AccDistancePidRATest_TC_ACC_DIST_RA_15_TestD0Ev
FN:196,_ZN43AccDistancePidRATest_TC_ACC_DIST_RA_15_TestC1Ev
FNDA:1,_ZN43AccDistancePidRATest_TC_ACC_DIST_RA_15_TestC1Ev
FN:204,_ZN43AccDistancePidRATest_TC_ACC_DIST_RA_16_TestC1Ev
FNDA:1,_ZN43AccDistancePidRATest_TC_ACC_DIST_RA_16_TestC1Ev
FN:204,_ZN43AccDistancePidRATest_TC_ACC_DIST_RA_16_TestD1Ev
FNDA:1,_ZN43AccDistancePidRATest_TC_ACC_DIST_RA_16_TestD1Ev
FN:204,_ZN43AccDistancePidRATest_TC_ACC_DIST_RA_16_TestD0Ev
FNDA:1,_ZN43AccDistancePidRATest_TC_ACC_DIST_RA_16_TestD0Ev
FN:204,_ZN43AccDistancePidRATest_TC_ACC_DIST_RA_16_Test8TestBodyEv
FNDA:1,_ZN43AccDistancePidRATest_TC_ACC_DIST_RA_16_Test8TestBodyEv
FN:218,_ZN43AccDistancePidRATest_TC_ACC_DIST_RA_17_Test8TestBodyEv
FNDA:1,_ZN43AccDistancePidRATest_TC_ACC_DIST_RA_17_Test8TestBodyEv
FN:218,_ZN43AccDistancePidRATest_TC_ACC_DIST_RA_17_TestD1Ev
FNDA:1,_ZN43AccDistancePidRATest_TC_ACC_DIST_RA_17_TestD1Ev
FN:218,_ZN43AccDistancePidRATest_TC_ACC_DIST_RA_17_TestD0Ev
FNDA:1,_ZN43AccDistancePidRATest_TC_ACC_DIST_RA_17_TestD0Ev
FN:218,_ZN43AccDistancePidRATest_TC_ACC_DIST_RA_17_TestC1Ev
FNDA:1,_ZN43AccDistancePidRATest_TC_ACC_DIST_RA_17_TestC1Ev
FN:230,_ZN43AccDistancePidRATest_TC_ACC_DIST_RA_18_Test8TestBodyEv
FNDA:1,_ZN43AccDistancePidRATest_TC_ACC_DIST_RA_18_Test8TestBodyEv
FN:230,_ZN43AccDistancePidRATest_TC_ACC_DIST_RA_18_TestD1Ev
FNDA:1,_ZN43AccDistancePidRATest_TC_ACC_DIST_RA_18_TestD1Ev
FN:230,_ZN43AccDistancePidRATest_TC_ACC_DIST_RA_18_TestC1Ev
FNDA:1,_ZN43AccDistancePidRATest_TC_ACC_DIST_RA_18_TestC1Ev
FN:230,_ZN43AccDistancePidRATest_TC_ACC_DIST_RA_18_TestD0Ev
FNDA:1,_ZN43AccDistancePidRATest_TC_ACC_DIST_RA_18_TestD0Ev
FN:243,_ZN43AccDistancePidRATest_TC_ACC_DIST_RA_19_Test8TestBodyEv
FNDA:1,_ZN43AccDistancePidRATest_TC_ACC_DIST_RA_19_Test8TestBodyEv
FN:243,_ZN43AccDistancePidRATest_TC_ACC_DIST_RA_19_TestD1Ev
FNDA:1,_ZN43AccDistancePidRATest_TC_ACC_DIST_RA_19_TestD1Ev
FN:243,_ZN43AccDistancePidRATest_TC_ACC_DIST_RA_19_TestD0Ev
FNDA:1,_ZN43AccDistancePidRATest_TC_ACC_DIST_RA_19_TestD0Ev
FN:243,_ZN43AccDistancePidRATest_TC_ACC_DIST_RA_19_TestC1Ev
FNDA:1,_ZN43AccDistancePidRATest_TC_ACC_DIST_RA_19_TestC1Ev
FN:254,_ZN43AccDistancePidRATest_TC_ACC_DIST_RA_20_Test8TestBodyEv
FNDA:1,_ZN43AccDistancePidRATest_TC_ACC_DIST_RA_20_Test8TestBodyEv
FN:254,_ZN43AccDistancePidRATest_TC_ACC_DIST_RA_20_TestC1Ev
FNDA:1,_ZN43AccDistancePidRATest_TC_ACC_DIST_RA_20_TestC1Ev
FN:254,_ZN43AccDistancePidRATest_TC_ACC_DIST_RA_20_TestD0Ev
FNDA:1,_ZN43AccDistancePidRATest_TC_ACC_DIST_RA_20_TestD0Ev
FN:254,_ZN43AccDistancePidRATest_TC_ACC_DIST_RA_20_TestD1Ev
FNDA:1,_ZN43AccDistancePidRATest_TC_ACC_DIST_RA_20_TestD1Ev
FN:267,_ZN43AccDistancePidRATest_TC_ACC_DIST_RA_21_TestD1Ev
FNDA:1,_ZN43AccDistancePidRATest_TC_ACC_DIST_RA_21_TestD1Ev
FN:267,_ZN43AccDistancePidRATest_TC_ACC_DIST_RA_21_TestD0Ev
FNDA:1,_ZN43AccDistancePidRATest_TC_ACC_DIST_RA_21_TestD0Ev
FN:267,_ZN43AccDistancePidRATest_TC_ACC_DIST_RA_21_TestC1Ev
FNDA:1,_ZN43AccDistancePidRATest_TC_ACC_DIST_RA_21_TestC1Ev
FN:267,_ZN43AccDistancePidRATest_TC_ACC_DIST_RA_21_Test8TestBodyEv
FNDA:1,_ZN43AccDistancePidRATest_TC_ACC_DIST_RA_21_Test8TestBodyEv
FN:276,_ZN43AccDistancePidRATest_TC_ACC_DIST_RA_22_TestD0Ev
FNDA:1,_ZN43AccDistancePidRATest_TC_ACC_DIST_RA_22_TestD0Ev
FN:276,_ZN43AccDistancePidRATest_TC_ACC_DIST_RA_22_TestC1Ev
FNDA:1,_ZN43AccDistancePidRATest_TC_ACC_DIST_RA_22_TestC1Ev
FN:276,_ZN43AccDistancePidRATest_TC_ACC_DIST_RA_22_Test8TestBodyEv
FNDA:1,_ZN43AccDistancePidRATest_TC_ACC_DIST_RA_22_Test8TestBodyEv
FN:276,_ZN43AccDistancePidRATest_TC_ACC_DIST_RA_22_TestD1Ev
FNDA:1,_ZN43AccDistancePidRATest_TC_ACC_DIST_RA_22_TestD1Ev
FN:285,_ZN43AccDistancePidRATest_TC_ACC_DIST_RA_23_TestD0Ev
FNDA:1,_ZN43AccDistancePidRATest_TC_ACC_DIST_RA_23_TestD0Ev
FN:285,_ZN43AccDistancePidRATest_TC_ACC_DIST_RA_23_TestD1Ev
FNDA:1,_ZN43AccDistancePidRATest_TC_ACC_DIST_RA_23_TestD1Ev
FN:285,_ZN43AccDistancePidRATest_TC_ACC_DIST_RA_23_Test8TestBodyEv
FNDA:1,_ZN43AccDistancePidRATest_TC_ACC_DIST_RA_23_Test8TestBodyEv
FN:285,_ZN43AccDistancePidRATest_TC_ACC_DIST_RA_23_TestC1Ev
FNDA:1,_ZN43AccDistancePidRATest_TC_ACC_DIST_RA_23_TestC1Ev
FN:294,_ZN43AccDistancePidRATest_TC_ACC_DIST_RA_24_TestD1Ev
FNDA:1,_ZN43AccDistancePidRATest_TC_ACC_DIST_RA_24_TestD1Ev
FN:294,_ZN43AccDistancePidRATest_TC_ACC_DIST_RA_24_TestC1Ev
FNDA:1,_ZN43AccDistancePidRATest_TC_ACC_DIST_RA_24_TestC1Ev
FN:294,_ZN43AccDistancePidRATest_TC_ACC_DIST_RA_24_TestD0Ev
FNDA:1,_ZN43AccDistancePidRATest_TC_ACC_DIST_RA_24_TestD0Ev
FN:294,_ZN43AccDistancePidRATest_TC_ACC_DIST_RA_24_Test8TestBodyEv
FNDA:1,_ZN43AccDistancePidRATest_TC_ACC_DIST_RA_24_Test8TestBodyEv
FN:304,_ZN43AccDistancePidRATest_TC_ACC_DIST_RA_25_TestD0Ev
FNDA:1,_ZN43AccDistancePidRATest_TC_ACC_DIST_RA_25_TestD0Ev
FN:304,_ZN43AccDistancePidRATest_TC_ACC_DIST_RA_25_TestD1Ev
FNDA:1,_ZN43AccDistancePidRATest_TC_ACC_DIST_RA_25_TestD1Ev
FN:304,_ZN43AccDistancePidRATest_TC_ACC_DIST_RA_25_Test8TestBodyEv
FNDA:1,_ZN43AccDistancePidRATest_TC_ACC_DIST_RA_25_Test8TestBodyEv
FN:304,_ZN43AccDistancePidRATest_TC_ACC_DIST_RA_25_TestC1Ev
FNDA:1,_ZN43AccDistancePidRATest_TC_ACC_DIST_RA_25_TestC1Ev
FN:315,_ZN43AccDistancePidRATest_TC_ACC_DIST_RA_26_TestD0Ev
FNDA:1,_ZN43AccDistancePidRATest_TC_ACC_DIST_RA_26_TestD0Ev
FN:315,_ZN43AccDistancePidRATest_TC_ACC_DIST_RA_26_TestD1Ev
FNDA:1,_ZN43AccDistancePidRATest_TC_ACC_DIST_RA_26_TestD1Ev
FN:315,_ZN43AccDistancePidRATest_TC_ACC_DIST_RA_26_Test8TestBodyEv
FNDA:1,_ZN43AccDistancePidRATest_TC_ACC_DIST_RA_26_Test8TestBodyEv
FN:315,_ZN43AccDistancePidRATest_TC_ACC_DIST_RA_26_TestC1Ev
FNDA:1,_ZN43AccDistancePidRATest_TC_ACC_DIST_RA_26_TestC1Ev
FN:327,_ZN43AccDistancePidRATest_TC_ACC_DIST_RA_27_TestD1Ev
FNDA:1,_ZN43AccDistancePidRATest_TC_ACC_DIST_RA_27_TestD1Ev
FN:327,_ZN43AccDistancePidRATest_TC_ACC_DIST_RA_27_Test8TestBodyEv
FNDA:1,_ZN43AccDistancePidRATest_TC_ACC_DIST_RA_27_Test8TestBodyEv
FN:327,_ZN43AccDistancePidRATest_TC_ACC_DIST_RA_27_TestC1Ev
FNDA:1,_ZN43AccDistancePidRATest_TC_ACC_DIST_RA_27_TestC1Ev
FN:327,_ZN43AccDistancePidRATest_TC_ACC_DIST_RA_27_TestD0Ev
FNDA:1,_ZN43AccDistancePidRATest_TC_ACC_DIST_RA_27_TestD0Ev
FN:338,_ZN43AccDistancePidRATest_TC_ACC_DIST_RA_28_Test8TestBodyEv
FNDA:1,_ZN43AccDistancePidRATest_TC_ACC_DIST_RA_28_Test8TestBodyEv
FN:338,_ZN43AccDistancePidRATest_TC_ACC_DIST_RA_28_TestC1Ev
FNDA:1,_ZN43AccDistancePidRATest_TC_ACC_DIST_RA_28_TestC1Ev
FN:338,_ZN43AccDistancePidRATest_TC_ACC_DIST_RA_28_TestD0Ev
FNDA:1,_ZN43AccDistancePidRATest_TC_ACC_DIST_RA_28_TestD0Ev
FN:338,_ZN43AccDistancePidRATest_TC_ACC_DIST_RA_28_TestD1Ev
FNDA:1,_ZN43AccDistancePidRATest_TC_ACC_DIST_RA_28_TestD1Ev
FN:348,_ZN43AccDistancePidRATest_TC_ACC_DIST_RA_29_Test8TestBodyEv
FNDA:1,_ZN43AccDistancePidRATest_TC_ACC_DIST_RA_29_Test8TestBodyEv
FN:348,_ZN43AccDistancePidRATest_TC_ACC_DIST_RA_29_TestC1Ev
FNDA:1,_ZN43AccDistancePidRATest_TC_ACC_DIST_RA_29_TestC1Ev
FN:348,_ZN43AccDistancePidRATest_TC_ACC_DIST_RA_29_TestD0Ev
FNDA:1,_ZN43AccDistancePidRATest_TC_ACC_DIST_RA_29_TestD0Ev
FN:348,_ZN43AccDistancePidRATest_TC_ACC_DIST_RA_29_TestD1Ev
FNDA:1,_ZN43AccDistancePidRATest_TC_ACC_DIST_RA_29_TestD1Ev
FN:357,_ZN43AccDistancePidRATest_TC_ACC_DIST_RA_30_TestD1Ev
FNDA:1,_ZN43AccDistancePidRATest_TC_ACC_DIST_RA_30_TestD1Ev
FN:357,_ZN43AccDistancePidRATest_TC_ACC_DIST_RA_30_Test8TestBodyEv
FNDA:1,_ZN43AccDistancePidRATest_TC_ACC_DIST_RA_30_Test8TestBodyEv
FN:357,_ZN43AccDistancePidRATest_TC_ACC_DIST_RA_30_TestC1Ev
FNDA:1,_ZN43AccDistancePidRATest_TC_ACC_DIST_RA_30_TestC1Ev
FN:357,_ZN43AccDistancePidRATest_TC_ACC_DIST_RA_30_TestD0Ev
FNDA:1,_ZN43AccDistancePidRATest_TC_ACC_DIST_RA_30_TestD0Ev
FN:366,_ZN43AccDistancePidRATest_TC_ACC_DIST_RA_31_Test8TestBodyEv
FNDA:1,_ZN43AccDistancePidRATest_TC_ACC_DIST_RA_31_Test8TestBodyEv
FN:366,_ZN43AccDistancePidRATest_TC_ACC_DIST_RA_31_TestD0Ev
FNDA:1,_ZN43AccDistancePidRATest_TC_ACC_DIST_RA_31_TestD0Ev
FN:366,_ZN43AccDistancePidRATest_TC_ACC_DIST_RA_31_TestD1Ev
FNDA:1,_ZN43AccDistancePidRATest_TC_ACC_DIST_RA_31_TestD1Ev
FN:366,_ZN43AccDistancePidRATest_TC_ACC_DIST_RA_31_TestC1Ev
FNDA:1,_ZN43AccDistancePidRATest_TC_ACC_DIST_RA_31_TestC1Ev
FN:374,_ZN43AccDistancePidRATest_TC_ACC_DIST_RA_32_TestD1Ev
FNDA:1,_ZN43AccDistancePidRATest_TC_ACC_DIST_RA_32_TestD1Ev
FN:374,_ZN43AccDistancePidRATest_TC_ACC_DIST_RA_32_Test8TestBodyEv
FNDA:1,_ZN43AccDistancePidRATest_TC_ACC_DIST_RA_32_Test8TestBodyEv
FN:374,_ZN43AccDistancePidRATest_TC_ACC_DIST_RA_32_TestC1Ev
FNDA:1,_ZN43AccDistancePidRATest_TC_ACC_DIST_RA_32_TestC1Ev
FN:374,_ZN43AccDistancePidRATest_TC_ACC_DIST_RA_32_TestD0Ev
FNDA:1,_ZN43AccDistancePidRATest_TC_ACC_DIST_RA_32_TestD0Ev
FN:382,_ZN43AccDistancePidRATest_TC_ACC_DIST_RA_33_Test8TestBodyEv
FNDA:1,_ZN43AccDistancePidRATest_TC_ACC_DIST_RA_33_Test8TestBodyEv
FN:382,_ZN43AccDistancePidRATest_TC_ACC_DIST_RA_33_TestD1Ev
FNDA:1,_ZN43AccDistancePidRATest_TC_ACC_DIST_RA_33_TestD1Ev
FN:382,_ZN43AccDistancePidRATest_TC_ACC_DIST_RA_33_TestD0Ev
FNDA:1,_ZN43AccDistancePidRATest_TC_ACC_DIST_RA_33_TestD0Ev
FN:382,_ZN43AccDistancePidRATest_TC_ACC_DIST_RA_33_TestC1Ev
FNDA:1,_ZN43AccDistancePidRATest_TC_ACC_DIST_RA_33_TestC1Ev
FN:392,_ZN43AccDistancePidRATest_TC_ACC_DIST_RA_34_TestD0Ev
FNDA:1,_ZN43AccDistancePidRATest_TC_ACC_DIST_RA_34_TestD0Ev
FN:392,_ZN43AccDistancePidRATest_TC_ACC_DIST_RA_34_TestC1Ev
FNDA:1,_ZN43AccDistancePidRATest_TC_ACC_DIST_RA_34_TestC1Ev
FN:392,_ZN43AccDistancePidRATest_TC_ACC_DIST_RA_34_TestD1Ev
FNDA:1,_ZN43AccDistancePidRATest_TC_ACC_DIST_RA_34_TestD1Ev
FN:392,_ZN43AccDistancePidRATest_TC_ACC_DIST_RA_34_Test8TestBodyEv
FNDA:1,_ZN43AccDistancePidRATest_TC_ACC_DIST_RA_34_Test8TestBodyEv
FN:402,_ZN43AccDistancePidRATest_TC_ACC_DIST_RA_35_TestD0Ev
FNDA:1,_ZN43AccDistancePidRATest_TC_ACC_DIST_RA_35_TestD0Ev
FN:402,_ZN43AccDistancePidRATest_TC_ACC_DIST_RA_35_TestD1Ev
FNDA:1,_ZN43AccDistancePidRATest_TC_ACC_DIST_RA_35_TestD1Ev
FN:402,_ZN43AccDistancePidRATest_TC_ACC_DIST_RA_35_TestC1Ev
FNDA:1,_ZN43AccDistancePidRATest_TC_ACC_DIST_RA_35_TestC1Ev
FN:402,_ZN43AccDistancePidRATest_TC_ACC_DIST_RA_35_Test8TestBodyEv
FNDA:1,_ZN43AccDistancePidRATest_TC_ACC_DIST_RA_35_Test8TestBodyEv
FN:412,_ZN43AccDistancePidRATest_TC_ACC_DIST_RA_36_TestC1Ev
FNDA:1,_ZN43AccDistancePidRATest_TC_ACC_DIST_RA_36_TestC1Ev
FN:412,_ZN43AccDistancePidRATest_TC_ACC_DIST_RA_36_TestD0Ev
FNDA:1,_ZN43AccDistancePidRATest_TC_ACC_DIST_RA_36_TestD0Ev
FN:412,_ZN43AccDistancePidRATest_TC_ACC_DIST_RA_36_Test8TestBodyEv
FNDA:1,_ZN43AccDistancePidRATest_TC_ACC_DIST_RA_36_Test8TestBodyEv
FN:412,_ZN43AccDistancePidRATest_TC_ACC_DIST_RA_36_TestD1Ev
FNDA:1,_ZN43AccDistancePidRATest_TC_ACC_DIST_RA_36_TestD1Ev
FN:421,_ZN43AccDistancePidRATest_TC_ACC_DIST_RA_37_TestD0Ev
FNDA:1,_ZN43AccDistancePidRATest_TC_ACC_DIST_RA_37_TestD0Ev
FN:421,_ZN43AccDistancePidRATest_TC_ACC_DIST_RA_37_Test8TestBodyEv
FNDA:1,_ZN43AccDistancePidRATest_TC_ACC_DIST_RA_37_Test8TestBodyEv
FN:421,_ZN43AccDistancePidRATest_TC_ACC_DIST_RA_37_TestC1Ev
FNDA:1,_ZN43AccDistancePidRATest_TC_ACC_DIST_RA_37_TestC1Ev
FN:421,_ZN43AccDistancePidRATest_TC_ACC_DIST_RA_37_TestD1Ev
FNDA:1,_ZN43AccDistancePidRATest_TC_ACC_DIST_RA_37_TestD1Ev
FN:430,_ZN43AccDistancePidRATest_TC_ACC_DIST_RA_38_TestC1Ev
FNDA:1,_ZN43AccDistancePidRATest_TC_ACC_DIST_RA_38_TestC1Ev
FN:430,_ZN43AccDistancePidRATest_TC_ACC_DIST_RA_38_TestD1Ev
FNDA:1,_ZN43AccDistancePidRATest_TC_ACC_DIST_RA_38_TestD1Ev
FN:430,_ZN43AccDistancePidRATest_TC_ACC_DIST_RA_38_TestD0Ev
FNDA:1,_ZN43AccDistancePidRATest_TC_ACC_DIST_RA_38_TestD0Ev
FN:430,_ZN43AccDistancePidRATest_TC_ACC_DIST_RA_38_Test8TestBodyEv
FNDA:1,_ZN43AccDistancePidRATest_TC_ACC_DIST_RA_38_Test8TestBodyEv
FN:439,_ZN43AccDistancePidRATest_TC_ACC_DIST_RA_39_TestD0Ev
FNDA:1,_ZN43AccDistancePidRATest_TC_ACC_DIST_RA_39_TestD0Ev
FN:439,_ZN43AccDistancePidRATest_TC_ACC_DIST_RA_39_Test8TestBodyEv
FNDA:1,_ZN43AccDistancePidRATest_TC_ACC_DIST_RA_39_Test8TestBodyEv
FN:439,_ZN43AccDistancePidRATest_TC_ACC_DIST_RA_39_TestD1Ev
FNDA:1,_ZN43AccDistancePidRATest_TC_ACC_DIST_RA_39_TestD1Ev
FN:439,_ZN43AccDistancePidRATest_TC_ACC_DIST_RA_39_TestC1Ev
FNDA:1,_ZN43AccDistancePidRATest_TC_ACC_DIST_RA_39_TestC1Ev
FN:449,_ZN43AccDistancePidRATest_TC_ACC_DIST_RA_40_Test8TestBodyEv
FNDA:1,_ZN43AccDistancePidRATest_TC_ACC_DIST_RA_40_Test8TestBodyEv
FN:449,_ZN43AccDistancePidRATest_TC_ACC_DIST_RA_40_TestD1Ev
FNDA:1,_ZN43AccDistancePidRATest_TC_ACC_DIST_RA_40_TestD1Ev
FN:449,_ZN43AccDistancePidRATest_TC_ACC_DIST_RA_40_TestD0Ev
FNDA:1,_ZN43AccDistancePidRATest_TC_ACC_DIST_RA_40_TestD0Ev
FN:449,_ZN43AccDistancePidRATest_TC_ACC_DIST_RA_40_TestC1Ev
FNDA:1,_ZN43AccDistancePidRATest_TC_ACC_DIST_RA_40_TestC1Ev
FN:458,_ZN43AccDistancePidRATest_TC_ACC_DIST_RA_41_TestD1Ev
FNDA:1,_ZN43AccDistancePidRATest_TC_ACC_DIST_RA_41_TestD1Ev
FN:458,_ZN43AccDistancePidRATest_TC_ACC_DIST_RA_41_TestD0Ev
FNDA:1,_ZN43AccDistancePidRATest_TC_ACC_DIST_RA_41_TestD0Ev
FN:458,_ZN43AccDistancePidRATest_TC_ACC_DIST_RA_41_Test8TestBodyEv
FNDA:1,_ZN43AccDistancePidRATest_TC_ACC_DIST_RA_41_Test8TestBodyEv
FN:458,_ZN43AccDistancePidRATest_TC_ACC_DIST_RA_41_TestC1Ev
FNDA:1,_ZN43AccDistancePidRATest_TC_ACC_DIST_RA_41_TestC1Ev
FN:468,_ZN43AccDistancePidRATest_TC_ACC_DIST_RA_42_TestD0Ev
FNDA:1,_ZN43AccDistancePidRATest_TC_ACC_DIST_RA_42_TestD0Ev
FN:468,_ZN43AccDistancePidRATest_TC_ACC_DIST_RA_42_TestC1Ev
FNDA:1,_ZN43AccDistancePidRATest_TC_ACC_DIST_RA_42_TestC1Ev
FN:468,_ZN43AccDistancePidRATest_TC_ACC_DIST_RA_42_TestD1Ev
FNDA:1,_ZN43AccDistancePidRATest_TC_ACC_DIST_RA_42_TestD1Ev
FN:468,_ZN43AccDistancePidRATest_TC_ACC_DIST_RA_42_Test8TestBodyEv
FNDA:1,_ZN43AccDistancePidRATest_TC_ACC_DIST_RA_42_Test8TestBodyEv
FN:481,_ZN43AccDistancePidRATest_TC_ACC_DIST_RA_43_TestD0Ev
FNDA:1,_ZN43AccDistancePidRATest_TC_ACC_DIST_RA_43_TestD0Ev
FN:481,_ZN43AccDistancePidRATest_TC_ACC_DIST_RA_43_TestD1Ev
FNDA:1,_ZN43AccDistancePidRATest_TC_ACC_DIST_RA_43_TestD1Ev
FN:481,_ZN43AccDistancePidRATest_TC_ACC_DIST_RA_43_Test8TestBodyEv
FNDA:1,_ZN43AccDistancePidRATest_TC_ACC_DIST_RA_43_Test8TestBodyEv
FN:481,_ZN43AccDistancePidRATest_TC_ACC_DIST_RA_43_TestC1Ev
FNDA:1,_ZN43AccDistancePidRATest_TC_ACC_DIST_RA_43_TestC1Ev
FN:505,_ZN43AccDistancePidRATest_TC_ACC_DIST_RA_44_TestC1Ev
FNDA:1,_ZN43AccDistancePidRATest_TC_ACC_DIST_RA_44_TestC1Ev
FN:505,_ZN43AccDistancePidRATest_TC_ACC_DIST_RA_44_TestD1Ev
FNDA:1,_ZN43AccDistancePidRATest_TC_ACC_DIST_RA_44_TestD1Ev
FN:505,_ZN43AccDistancePidRATest_TC_ACC_DIST_RA_44_TestD0Ev
FNDA:1,_ZN43AccDistancePidRATest_TC_ACC_DIST_RA_44_TestD0Ev
FN:505,_ZN43AccDistancePidRATest_TC_ACC_DIST_RA_44_Test8TestBodyEv
FNDA:1,_ZN43AccDistancePidRATest_TC_ACC_DIST_RA_44_Test8TestBodyEv
FN:516,_ZN43AccDistancePidRATest_TC_ACC_DIST_RA_45_TestD1Ev
FNDA:1,_ZN43AccDistancePidRATest_TC_ACC_DIST_RA_45_TestD1Ev
FN:516,_ZN43AccDistancePidRATest_TC_ACC_DIST_RA_45_Test8TestBodyEv
FNDA:1,_ZN43AccDistancePidRATest_TC_ACC_DIST_RA_45_Test8TestBodyEv
FN:516,_ZN43AccDistancePidRATest_TC_ACC_DIST_RA_45_TestC1Ev
FNDA:1,_ZN43AccDistancePidRATest_TC_ACC_DIST_RA_45_TestC1Ev
FN:516,_ZN43AccDistancePidRATest_TC_ACC_DIST_RA_45_TestD0Ev
FNDA:1,_ZN43AccDistancePidRATest_TC_ACC_DIST_RA_45_TestD0Ev
FN:525,_ZN43AccDistancePidRATest_TC_ACC_DIST_RA_46_TestD1Ev
FNDA:1,_ZN43AccDistancePidRATest_TC_ACC_DIST_RA_46_TestD1Ev
FN:525,_ZN43AccDistancePidRATest_TC_ACC_DIST_RA_46_TestC1Ev
FNDA:1,_ZN43AccDistancePidRATest_TC_ACC_DIST_RA_46_TestC1Ev
FN:525,_ZN43AccDistancePidRATest_TC_ACC_DIST_RA_46_TestD0Ev
FNDA:1,_ZN43AccDistancePidRATest_TC_ACC_DIST_RA_46_TestD0Ev
FN:525,_ZN43AccDistancePidRATest_TC_ACC_DIST_RA_46_Test8TestBodyEv
FNDA:1,_ZN43AccDistancePidRATest_TC_ACC_DIST_RA_46_Test8TestBodyEv
FN:535,_ZN43AccDistancePidRATest_TC_ACC_DIST_RA_47_TestD0Ev
FNDA:1,_ZN43AccDistancePidRATest_TC_ACC_DIST_RA_47_TestD0Ev
FN:535,_ZN43AccDistancePidRATest_TC_ACC_DIST_RA_47_TestD1Ev
FNDA:1,_ZN43AccDistancePidRATest_TC_ACC_DIST_RA_47_TestD1Ev
FN:535,_ZN43AccDistancePidRATest_TC_ACC_DIST_RA_47_TestC1Ev
FNDA:1,_ZN43AccDistancePidRATest_TC_ACC_DIST_RA_47_TestC1Ev
FN:535,_ZN43AccDistancePidRATest_TC_ACC_DIST_RA_47_Test8TestBodyEv
FNDA:1,_ZN43AccDistancePidRATest_TC_ACC_DIST_RA_47_Test8TestBodyEv
FN:545,_ZN43AccDistancePidRATest_TC_ACC_DIST_RA_48_TestD0Ev
FNDA:1,_ZN43AccDistancePidRATest_TC_ACC_DIST_RA_48_TestD0Ev
FN:545,_ZN43AccDistancePidRATest_TC_ACC_DIST_RA_48_TestD1Ev
FNDA:1,_ZN43AccDistancePidRATest_TC_ACC_DIST_RA_48_TestD1Ev
FN:545,_ZN43AccDistancePidRATest_TC_ACC_DIST_RA_48_TestC1Ev
FNDA:1,_ZN43AccDistancePidRATest_TC_ACC_DIST_RA_48_TestC1Ev
FN:545,_ZN43AccDistancePidRATest_TC_ACC_DIST_RA_48_Test8TestBodyEv
FNDA:1,_ZN43AccDistancePidRATest_TC_ACC_DIST_RA_48_Test8TestBodyEv
FN:555,_ZN43AccDistancePidRATest_TC_ACC_DIST_RA_49_TestC1Ev
FNDA:1,_ZN43AccDistancePidRATest_TC_ACC_DIST_RA_49_TestC1Ev
FN:555,_ZN43AccDistancePidRATest_TC_ACC_DIST_RA_49_Test8TestBodyEv
FNDA:1,_ZN43AccDistancePidRATest_TC_ACC_DIST_RA_49_Test8TestBodyEv
FN:555,_ZN43AccDistancePidRATest_TC_ACC_DIST_RA_49_TestD1Ev
FNDA:1,_ZN43AccDistancePidRATest_TC_ACC_DIST_RA_49_TestD1Ev
FN:555,_ZN43AccDistancePidRATest_TC_ACC_DIST_RA_49_TestD0Ev
FNDA:1,_ZN43AccDistancePidRATest_TC_ACC_DIST_RA_49_TestD0Ev
FN:565,_ZN43AccDistancePidRATest_TC_ACC_DIST_RA_50_Test8TestBodyEv
FNDA:1,_ZN43AccDistancePidRATest_TC_ACC_DIST_RA_50_Test8TestBodyEv
FN:565,_ZN43AccDistancePidRATest_TC_ACC_DIST_RA_50_TestC1Ev
FNDA:1,_ZN43AccDistancePidRATest_TC_ACC_DIST_RA_50_TestC1Ev
FN:565,_ZN43AccDistancePidRATest_TC_ACC_DIST_RA_50_TestD1Ev
FNDA:1,_ZN43AccDistancePidRATest_TC_ACC_DIST_RA_50_TestD1Ev
FN:565,_ZN43AccDistancePidRATest_TC_ACC_DIST_RA_50_TestD0Ev
FNDA:1,_ZN43AccDistancePidRATest_TC_ACC_DIST_RA_50_TestD0Ev
FNF:202
FNH:202
DA:20,50
DA:22,50
DA:23,50
DA:24,50
DA:25,50
DA:37,50
DA:40,50
DA:43,50
DA:46,50
DA:47,50
DA:48,50
DA:49,50
DA:50,50
DA:53,50
DA:54,50
DA:55,50
DA:58,50
DA:59,50
DA:67,1
DA:67,1
DA:67,1
DA:67,1
DA:69,1
DA:70,1
DA:72,1
DA:73,1
DA:76,1
DA:76,1
DA:76,1
DA:76,1
DA:78,1
DA:79,1
DA:80,1
DA:81,1
DA:82,1
DA:83,1
DA:84,1
DA:87,1
DA:87,1
DA:87,1
DA:87,1
DA:89,1
DA:90,1
DA:91,1
DA:92,1
DA:95,1
DA:95,1
DA:95,1
DA:95,1
DA:97,1
DA:98,1
DA:99,1
DA:102,1
DA:102,1
DA:102,1
DA:102,1
DA:104,1
DA:105,1
DA:106,1
DA:109,1
DA:109,1
DA:109,1
DA:109,1
DA:111,1
DA:112,1
DA:113,1
DA:114,1
DA:117,1
DA:117,1
DA:117,1
DA:117,1
DA:119,1
DA:120,1
DA:121,1
DA:122,1
DA:125,1
DA:125,1
DA:125,1
DA:125,1
DA:127,1
DA:128,1
DA:129,1
DA:130,1
DA:131,1
DA:132,1
DA:135,1
DA:135,1
DA:135,1
DA:135,1
DA:137,1
DA:138,1
DA:139,1
DA:140,1
DA:141,1
DA:144,1
DA:144,1
DA:144,1
DA:144,1
DA:146,1
DA:147,1
DA:148,1
DA:149,1
DA:150,1
DA:151,1
DA:154,1
DA:154,1
DA:154,1
DA:154,1
DA:156,1
DA:157,1
DA:158,1
DA:159,1
DA:160,1
DA:161,1
DA:162,1
DA:163,1
DA:164,1
DA:167,1
DA:167,1
DA:167,1
DA:167,1
DA:169,1
DA:170,1
DA:171,1
DA:172,1
DA:174,1
DA:177,1
DA:177,1
DA:177,1
DA:177,1
DA:179,1
DA:180,1
DA:181,1
DA:183,1
DA:184,1
DA:187,1
DA:187,1
DA:187,1
DA:187,1
DA:189,1
DA:190,1
DA:191,1
DA:192,1
DA:193,1
DA:196,1
DA:196,1
DA:196,1
DA:196,1
DA:198,1
DA:199,1
DA:200,1
DA:201,1
DA:204,1
DA:204,1
DA:204,1
DA:204,1
DA:207,1
DA:208,1
DA:209,1
DA:210,1
DA:211,1
DA:213,1
DA:214,1
DA:215,1
DA:218,1
DA:218,1
DA:218,1
DA:218,1
DA:220,1
DA:221,1
DA:222,1
DA:223,1
DA:224,1
DA:225,1
DA:226,1
DA:230,1
DA:230,1
DA:230,1
DA:230,1
DA:234,1
DA:235,1
DA:236,1
DA:237,1
DA:238,1
DA:239,1
DA:240,1
DA:243,1
DA:243,1
DA:243,1
DA:243,1
DA:245,1
DA:246,1
DA:247,1
DA:248,1
DA:249,1
DA:250,1
DA:251,1
DA:254,1
DA:254,1
DA:254,1
DA:254,1
DA:256,1
DA:257,1
DA:258,1
DA:259,1
DA:260,1
DA:261,1
DA:262,1
DA:263,1
DA:264,1
DA:267,1
DA:267,1
DA:267,1
DA:267,1
DA:270,1
DA:271,1
DA:272,1
DA:273,1
DA:276,1
DA:276,1
DA:276,1
DA:276,1
DA:278,1
DA:279,1
DA:280,1
DA:281,1
DA:282,1
DA:285,1
DA:285,1
DA:285,1
DA:285,1
DA:288,1
DA:289,1
DA:290,1
DA:291,1
DA:294,1
DA:294,1
DA:294,1
DA:294,1
DA:297,1
DA:298,1
DA:300,1
DA:301,1
DA:304,1
DA:304,1
DA:304,1
DA:304,1
DA:307,1
DA:308,1
DA:309,1
DA:310,1
DA:311,1
DA:312,1
DA:315,1
DA:315,1
DA:315,1
DA:315,1
DA:318,1
DA:320,1
DA:321,1
DA:323,1
DA:324,1
DA:327,1
DA:327,1
DA:327,1
DA:327,1
DA:330,1
DA:331,1
DA:332,1
DA:334,1
DA:335,1
DA:338,1
DA:338,1
DA:338,1
DA:338,1
DA:340,1
DA:341,1
DA:342,1
DA:343,1
DA:344,1
DA:345,1
DA:348,1
DA:348,1
DA:348,1
DA:348,1
DA:351,1
DA:353,1
DA:354,1
DA:357,1
DA:357,1
DA:357,1
DA:357,1
DA:359,1
DA:360,1
DA:362,1
DA:363,1
DA:366,1
DA:366,1
DA:366,1
DA:366,1
DA:368,1
DA:369,1
DA:370,1
DA:371,1
DA:374,1
DA:374,1
DA:374,1
DA:374,1
DA:376,1
DA:377,1
DA:378,1
DA:379,1
DA:382,1
DA:382,1
DA:382,1
DA:382,1
DA:384,1
DA:385,1
DA:386,1
DA:387,1
DA:388,1
DA:389,1
DA:392,1
DA:392,1
DA:392,1
DA:392,1
DA:394,1
DA:395,1
DA:396,1
DA:397,1
DA:398,1
DA:399,1
DA:402,1
DA:402,1
DA:402,1
DA:402,1
DA:404,1
DA:405,1
DA:406,1
DA:407,1
DA:408,1
DA:409,1
DA:412,1
DA:412,1
DA:412,1
DA:412,1
DA:415,1
DA:416,1
DA:417,1
DA:418,1
DA:421,1
DA:421,1
DA:421,1
DA:421,1
DA:424,1
DA:425,1
DA:426,1
DA:427,1
DA:430,1
DA:430,1
DA:430,1
DA:430,1
DA:433,1
DA:435,1
DA:436,1
DA:439,1
DA:439,1
DA:439,1
DA:439,1
DA:441,1
DA:442,1
DA:443,1
DA:444,1
DA:445,1
DA:446,1
DA:449,1
DA:449,1
DA:449,1
DA:449,1
DA:451,1
DA:452,1
DA:453,1
DA:454,1
DA:455,1
DA:458,1
DA:458,1
DA:458,1
DA:458,1
DA:460,1
DA:461,1
DA:462,1
DA:463,1
DA:464,1
DA:465,1
DA:468,1
DA:468,1
DA:468,1
DA:468,1
DA:470,1
DA:471,1
DA:472,1
DA:473,1
DA:474,1
DA:475,1
DA:476,1
DA:477,1
DA:478,1
DA:481,1
DA:481,1
DA:481,1
DA:481,1
DA:483,1
DA:486,1
DA:487,1
DA:488,1
DA:489,1
DA:490,1
DA:493,1
DA:494,1
DA:495,1
DA:496,1
DA:499,1
DA:500,1
DA:501,1
DA:502,1
DA:505,1
DA:505,1
DA:505,1
DA:505,1
DA:508,1
DA:509,1
DA:510,1
DA:512,1
DA:513,1
DA:516,1
DA:516,1
DA:516,1
DA:516,1
DA:519,1
DA:521,1
DA:522,1
DA:525,1
DA:525,1
DA:525,1
DA:525,1
DA:527,1
DA:528,1
DA:529,1
DA:530,1
DA:531,1
DA:532,1
DA:535,1
DA:535,1
DA:535,1
DA:535,1
DA:537,1
DA:538,1
DA:539,1
DA:540,1
DA:541,1
DA:542,1
DA:545,1
DA:545,1
DA:545,1
DA:545,1
DA:547,1
DA:548,1
DA:549,1
DA:550,1
DA:551,1
DA:552,1
DA:555,1
DA:555,1
DA:555,1
DA:555,1
DA:557,1
DA:558,1
DA:559,1
DA:560,1
DA:561,1
DA:562,1
DA:565,1
DA:565,1
DA:565,1
DA:565,1
DA:567,1
DA:568,1
DA:569,1
DA:570,1
DA:571,1
DA:572,1
LF:491
LH:491
end_of_record
SF:C:/Projects/GoogleTestProject/googletest/googletest/include/gtest/gtest.h
FN:255,_ZN7testing4Test14SetUpTestSuiteEv
FNDA:0,_ZN7testing4Test14SetUpTestSuiteEv
FN:263,_ZN7testing4Test17TearDownTestSuiteEv
FNDA:0,_ZN7testing4Test17TearDownTestSuiteEv
FN:268,_ZN7testing4Test16TearDownTestCaseEv
FNDA:0,_ZN7testing4Test16TearDownTestCaseEv
FN:269,_ZN7testing4Test13SetUpTestCaseEv
FNDA:0,_ZN7testing4Test13SetUpTestCaseEv
FN:356,_ZN7testing4Test5SetupEv
FNDA:0,_ZN7testing4Test5SetupEv
FN:1443,_ZN7testing8internal18CmpHelperOpFailureIffEENS_15AssertionResultEPKcS4_RKT_RKT0_S4_
FNDA:0,_ZN7testing8internal18CmpHelperOpFailureIffEENS_15AssertionResultEPKcS4_RKT_RKT0_S4_
FN:1474,_ZN7testing8internal11CmpHelperLEIffEENS_15AssertionResultEPKcS4_RKT_RKT0_
FNDA:0,_ZN7testing8internal11CmpHelperLEIffEENS_15AssertionResultEPKcS4_RKT_RKT0_
FN:1476,_ZN7testing8internal11CmpHelperLTIffEENS_15AssertionResultEPKcS4_RKT_RKT0_
FNDA:0,_ZN7testing8internal11CmpHelperLTIffEENS_15AssertionResultEPKcS4_RKT_RKT0_
FN:1478,_ZN7testing8internal11CmpHelperGEIffEENS_15AssertionResultEPKcS4_RKT_RKT0_
FNDA:0,_ZN7testing8internal11CmpHelperGEIffEENS_15AssertionResultEPKcS4_RKT_RKT0_
FN:1480,_ZN7testing8internal11CmpHelperGTIffEENS_15AssertionResultEPKcS4_RKT_RKT0_
FNDA:0,_ZN7testing8internal11CmpHelperGTIffEENS_15AssertionResultEPKcS4_RKT_RKT0_
FN:1582,_ZN7testing8internal24CmpHelperFloatingPointEQIfEENS_15AssertionResultEPKcS4_T_S5_
FNDA:0,_ZN7testing8internal24CmpHelperFloatingPointEQIfEENS_15AssertionResultEPKcS4_T_S5_
FNF:11
FNH:0
DA:255,0
DA:263,0
DA:268,0
DA:269,0
DA:356,0
DA:1443,0
DA:1446,0
DA:1447,0
DA:1448,0
DA:1449,0
DA:1474,0
DA:1476,0
DA:1478,0
DA:1480,0
DA:1582,0
DA:1585,0
DA:1587,0
DA:1588,0
DA:1591,0
DA:1592,0
DA:1593,0
DA:1595,0
DA:1596,0
DA:1597,0
DA:1600,0
DA:1601,0
DA:1602,0
LF:27
LH:0
end_of_record
SF:C:/Projects/GoogleTestProject/googletest/googletest/include/gtest/gtest-printers.h
FN:383,_ZN7testing8internal19FormatForComparisonIffE6FormatB5cxx11ERKf
FNDA:0,_ZN7testing8internal19FormatForComparisonIffE6FormatB5cxx11ERKf
FN:463,_ZN7testing8internal33FormatForComparisonFailureMessageIffEENSt7__cxx1112basic_stringIcSt11char_traitsIcESaIcEEERKT_RKT0_
FNDA:0,_ZN7testing8internal33FormatForComparisonFailureMessageIffEENSt7__cxx1112basic_stringIcSt11char_traitsIcESaIcEEERKT_RKT0_
FN:555,_ZN7testing8internal21AppropriateResolutionIfEEiT_
FNDA:0,_ZN7testing8internal21AppropriateResolutionIfEEiT_
FN:619,_ZN7testing8internal7PrintToEfPSo
FNDA:0,_ZN7testing8internal7PrintToEfPSo
FN:874,_ZN7testing8internal16UniversalPrinterIfE5PrintERKfPSo
FNDA:0,_ZN7testing8internal16UniversalPrinterIfE5PrintERKfPSo
FN:1064,_ZN7testing8internal21UniversalTersePrinterIfE5PrintERKfPSo
FNDA:0,_ZN7testing8internal21UniversalTersePrinterIfE5PrintERKfPSo
FN:1183,_ZN7testing8internal14UniversalPrintIfEEvRKT_PSo
FNDA:0,_ZN7testing8internal14UniversalPrintIfEEvRKT_PSo
FN:1223,_ZN7testing13PrintToStringIfEENSt7__cxx1112basic_stringIcSt11char_traitsIcESaIcEEERKT_
FNDA:0,_ZN7testing13PrintToStringIfEENSt7__cxx1112basic_stringIcSt11char_traitsIcESaIcEEERKT_
FNF:8
FNH:0
DA:383,0
DA:384,0
DA:463,0
DA:465,0
DA:555,0
DA:556,0
DA:557,0
DA:563,0
DA:564,0
DA:568,0
DA:569,0
DA:570,0
DA:571,0
DA:572,0
DA:573,0
DA:574,0
DA:575,0
DA:576,0
DA:577,0
DA:578,0
DA:579,0
DA:580,0
DA:581,0
DA:582,0
DA:583,0
DA:584,0
DA:585,0
DA:586,0
DA:587,0
DA:589,0
DA:590,0
DA:593,0
DA:594,0
DA:595,0
DA:596,0
DA:597,0
DA:598,0
DA:600,0
DA:601,0
DA:603,0
DA:604,0
DA:605,0
DA:607,0
DA:608,0
DA:611,0
DA:616,0
DA:619,0
DA:620,0
DA:621,0
DA:622,0
DA:623,0
DA:624,0
DA:874,0
DA:883,0
DA:884,0
DA:1064,0
DA:1065,0
DA:1066,0
DA:1183,0
DA:1187,0
DA:1188,0
DA:1223,0
DA:1224,0
DA:1225,0
DA:1226,0
DA:1227,0
LF:66
LH:0
end_of_record
SF:C:/Projects/GoogleTestProject/googletest/googletest/include/gtest/gtest-message.h
FN:132,_ZN7testing7MessagelsIA5_cEERS0_RKT_
FNDA:0,_ZN7testing7MessagelsIA5_cEERS0_RKT_
FN:132,_ZN7testing7MessagelsINSt7__cxx1112basic_stringIcSt11char_traitsIcESaIcEEEEERS0_RKT_
FNDA:0,_ZN7testing7MessagelsINSt7__cxx1112basic_stringIcSt11char_traitsIcESaIcEEEEERS0_RKT_
FN:132,_ZN7testing7MessagelsIA3_cEERS0_RKT_
FNDA:0,_ZN7testing7MessagelsIA3_cEERS0_RKT_
FN:132,_ZN7testing7MessagelsIA12_cEERS0_RKT_
FNDA:0,_ZN7testing7MessagelsIA12_cEERS0_RKT_
FN:181,_ZN7testing7MessagelsIKcEERS0_RKPT_
FNDA:0,_ZN7testing7MessagelsIKcEERS0_RKPT_
FNF:5
FNH:0
DA:132,0
DA:148,0
DA:149,0
DA:132,0
DA:148,0
DA:149,0
DA:132,0
DA:148,0
DA:149,0
DA:132,0
DA:148,0
DA:149,0
DA:181,0
DA:182,0
DA:183,0
DA:185,0
DA:187,0
LF:17
LH:0
end_of_record
SF:C:/msys64/mingw64/include/c++/14.2.0/bits/char_traits.h
FN:136,_ZN9__gnu_cxx11char_traitsIcE2eqERKcS3_
FNDA:0,_ZN9__gnu_cxx11char_traitsIcE2eqERKcS3_
FN:199,_ZN9__gnu_cxx11char_traitsIcE6lengthEPKc
FNDA:0,_ZN9__gnu_cxx11char_traitsIcE6lengthEPKc
FN:385,_ZNSt11char_traitsIcE6lengthEPKc
FNDA:0,_ZNSt11char_traitsIcE6lengthEPKc
FN:419,_ZNSt11char_traitsIcE4copyEPcPKcy
FNDA:0,_ZNSt11char_traitsIcE4copyEPcPKcy
FNF:4
FNH:0
DA:136,0
DA:137,0
DA:199,0
DA:202,0
DA:203,0
DA:204,0
DA:205,0
DA:385,0
DA:388,0
DA:389,0
DA:391,0
DA:419,0
DA:421,0
DA:422,0
DA:427,0
LF:15
LH:0
end_of_record
SF:C:/msys64/mingw64/include/c++/14.2.0/bits/basic_string.tcc
FN:221,_ZNSt7__cxx1112basic_stringIcSt11char_traitsIcESaIcEE12_M_constructIPKcEEvT_S8_St20forward_iterator_tag
FNDA:0,_ZNSt7__cxx1112basic_stringIcSt11char_traitsIcESaIcEE12_M_constructIPKcEEvT_S8_St20forward_iterator_tag
FN:239,_ZZNSt7__cxx1112basic_stringIcSt11char_traitsIcESaIcEE12_M_constructIPKcEEvT_S8_St20forward_iterator_tagEN6_GuardC1EPS4_
FNDA:0,_ZZNSt7__cxx1112basic_stringIcSt11char_traitsIcESaIcEE12_M_constructIPKcEEvT_S8_St20forward_iterator_tagEN6_GuardC1EPS4_
FN:242,_ZZNSt7__cxx1112basic_stringIcSt11char_traitsIcESaIcEE12_M_constructIPKcEEvT_S8_St20forward_iterator_tagEN6_GuardD1Ev
FNDA:0,_ZZNSt7__cxx1112basic_stringIcSt11char_traitsIcESaIcEE12_M_constructIPKcEEvT_S8_St20forward_iterator_tagEN6_GuardD1Ev
FNF:3
FNH:0
DA:221,0
DA:225,0
DA:227,0
DA:229,0
DA:230,0
DA:239,0
DA:242,0
DA:245,0
DA:247,0
DA:249,0
DA:251,0
DA:252,0
LF:12
LH:0
end_of_record
SF:C:/Projects/GoogleTestProject/googletest/googletest/include/gtest/internal/gtest-port.h
FN:1082,_ZN7testing8internal8GTestLog9GetStreamEv
FNDA:0,_ZN7testing8internal8GTestLog9GetStreamEv
FNF:1
FNH:0
DA:1082,0
LF:1
LH:0
end_of_record
SF:C:/msys64/mingw64/include/c++/14.2.0/bits/ios_base.h
FN:752,_ZNKSt8ios_base9precisionEv
FNDA:0,_ZNKSt8ios_base9precisionEv
FN:761,_ZNSt8ios_base9precisionEx
FNDA:0,_ZNSt8ios_base9precisionEx
FNF:2
FNH:0
DA:752,0
DA:753,0
DA:761,0
DA:763,0
DA:764,0
DA:765,0
LF:6
LH:0
end_of_record
SF:C:/msys64/mingw64/include/c++/14.2.0/bits/unique_ptr.h
FN:87,_ZNKSt14default_deleteINSt7__cxx1112basic_stringIcSt11char_traitsIcESaIcEEEEclEPS5_
FNDA:0,_ZNKSt14default_deleteINSt7__cxx1112basic_stringIcSt11char_traitsIcESaIcEEEEclEPS5_
FN:87,_ZNKSt14default_deleteINSt7__cxx1118basic_stringstreamIcSt11char_traitsIcESaIcEEEEclEPS5_
FNDA:0,_ZNKSt14default_deleteINSt7__cxx1118basic_stringstreamIcSt11char_traitsIcESaIcEEEEclEPS5_
FN:168,_ZNSt15__uniq_ptr_implINSt7__cxx1112basic_stringIcSt11char_traitsIcESaIcEEESt14default_deleteIS5_EEC2Ev
FNDA:0,_ZNSt15__uniq_ptr_implINSt7__cxx1112basic_stringIcSt11char_traitsIcESaIcEEESt14default_deleteIS5_EEC2Ev
FN:170,_ZNSt15__uniq_ptr_implINSt7__cxx1112basic_stringIcSt11char_traitsIcESaIcEEESt14default_deleteIS5_EEC2EPS5_
FNDA:0,_ZNSt15__uniq_ptr_implINSt7__cxx1112basic_stringIcSt11char_traitsIcESaIcEEESt14default_deleteIS5_EEC2EPS5_
FN:183,_ZNSt15__uniq_ptr_implINSt7__cxx1112basic_stringIcSt11char_traitsIcESaIcEEESt14default_deleteIS5_EEaSEOS8_
FNDA:0,_ZNSt15__uniq_ptr_implINSt7__cxx1112basic_stringIcSt11char_traitsIcESaIcEEESt14default_deleteIS5_EEaSEOS8_
FN:191,_ZNSt15__uniq_ptr_implINSt7__cxx1112basic_stringIcSt11char_traitsIcESaIcEEESt14default_deleteIS5_EE6_M_ptrEv
FNDA:0,_ZNSt15__uniq_ptr_implINSt7__cxx1112basic_stringIcSt11char_traitsIcESaIcEEESt14default_deleteIS5_EE6_M_ptrEv
FN:191,_ZNSt15__uniq_ptr_implINSt7__cxx1118basic_stringstreamIcSt11char_traitsIcESaIcEEESt14default_deleteIS5_EE6_M_ptrEv
FNDA:0,_ZNSt15__uniq_ptr_implINSt7__cxx1118basic_stringstreamIcSt11char_traitsIcESaIcEEESt14default_deleteIS5_EE6_M_ptrEv
FN:193,_ZNKSt15__uniq_ptr_implINSt7__cxx1112basic_stringIcSt11char_traitsIcESaIcEEESt14default_deleteIS5_EE6_M_ptrEv
FNDA:0,_ZNKSt15__uniq_ptr_implINSt7__cxx1112basic_stringIcSt11char_traitsIcESaIcEEESt14default_deleteIS5_EE6_M_ptrEv
FN:193,_ZNKSt15__uniq_ptr_implINSt7__cxx1118basic_stringstreamIcSt11char_traitsIcESaIcEEESt14default_deleteIS5_EE6_M_ptrEv
FNDA:0,_ZNKSt15__uniq_ptr_implINSt7__cxx1118basic_stringstreamIcSt11char_traitsIcESaIcEEESt14default_deleteIS5_EE6_M_ptrEv
FN:195,_ZNSt15__uniq_ptr_implINSt7__cxx1118basic_stringstreamIcSt11char_traitsIcESaIcEEESt14default_deleteIS5_EE10_M_deleterEv
FNDA:0,_ZNSt15__uniq_ptr_implINSt7__cxx1118basic_stringstreamIcSt11char_traitsIcESaIcEEESt14default_deleteIS5_EE10_M_deleterEv
FN:195,_ZNSt15__uniq_ptr_implINSt7__cxx1112basic_stringIcSt11char_traitsIcESaIcEEESt14default_deleteIS5_EE10_M_deleterEv
FNDA:0,_ZNSt15__uniq_ptr_implINSt7__cxx1112basic_stringIcSt11char_traitsIcESaIcEEESt14default_deleteIS5_EE10_M_deleterEv
FN:200,_ZNSt15__uniq_ptr_implINSt7__cxx1112basic_stringIcSt11char_traitsIcESaIcEEESt14default_deleteIS5_EE5resetEPS5_
FNDA:0,_ZNSt15__uniq_ptr_implINSt7__cxx1112basic_stringIcSt11char_traitsIcESaIcEEESt14default_deleteIS5_EE5resetEPS5_
FN:209,_ZNSt15__uniq_ptr_implINSt7__cxx1112basic_stringIcSt11char_traitsIcESaIcEEESt14default_deleteIS5_EE7releaseEv
FNDA:0,_ZNSt15__uniq_ptr_implINSt7__cxx1112basic_stringIcSt11char_traitsIcESaIcEEESt14default_deleteIS5_EE7releaseEv
FN:237,_ZNSt15__uniq_ptr_dataINSt7__cxx1112basic_stringIcSt11char_traitsIcESaIcEEESt14default_deleteIS5_ELb1ELb1EEaSEOS8_
FNDA:0,_ZNSt15__uniq_ptr_dataINSt7__cxx1112basic_stringIcSt11char_traitsIcESaIcEEESt14default_deleteIS5_ELb1ELb1EEaSEOS8_
FN:298,_ZNSt10unique_ptrINSt7__cxx1112basic_stringIcSt11char_traitsIcESaIcEEESt14default_deleteIS5_EEC1IS7_vEEv
FNDA:0,_ZNSt10unique_ptrINSt7__cxx1112basic_stringIcSt11char_traitsIcESaIcEEESt14default_deleteIS5_EEC1IS7_vEEv
FN:311,_ZNSt10unique_ptrINSt7__cxx1112basic_stringIcSt11char_traitsIcESaIcEEESt14default_deleteIS5_EEC1IS7_vEEPS5_
FNDA:0,_ZNSt10unique_ptrINSt7__cxx1112basic_stringIcSt11char_traitsIcESaIcEEESt14default_deleteIS5_EEC1IS7_vEEPS5_
FN:392,_ZNSt10unique_ptrINSt7__cxx1112basic_stringIcSt11char_traitsIcESaIcEEESt14default_deleteIS5_EED1Ev
FNDA:0,_ZNSt10unique_ptrINSt7__cxx1112basic_stringIcSt11char_traitsIcESaIcEEESt14default_deleteIS5_EED1Ev
FN:392,_ZNSt10unique_ptrINSt7__cxx1118basic_stringstreamIcSt11char_traitsIcESaIcEEESt14default_deleteIS5_EED1Ev
FNDA:0,_ZNSt10unique_ptrINSt7__cxx1118basic_stringstreamIcSt11char_traitsIcESaIcEEESt14default_deleteIS5_EED1Ev
FN:408,_ZNSt10unique_ptrINSt7__cxx1112basic_stringIcSt11char_traitsIcESaIcEEESt14default_deleteIS5_EEaSEOS8_
FNDA:0,_ZNSt10unique_ptrINSt7__cxx1112basic_stringIcSt11char_traitsIcESaIcEEESt14default_deleteIS5_EEaSEOS8_
FN:445,_ZNKSt10unique_ptrINSt7__cxx1118basic_stringstreamIcSt11char_traitsIcESaIcEEESt14default_deleteIS5_EEdeEv
FNDA:0,_ZNKSt10unique_ptrINSt7__cxx1118basic_stringstreamIcSt11char_traitsIcESaIcEEESt14default_deleteIS5_EEdeEv
FN:454,_ZNKSt10unique_ptrINSt7__cxx1112basic_stringIcSt11char_traitsIcESaIcEEESt14default_deleteIS5_EEptEv
FNDA:0,_ZNKSt10unique_ptrINSt7__cxx1112basic_stringIcSt11char_traitsIcESaIcEEESt14default_deleteIS5_EEptEv
FN:463,_ZNKSt10unique_ptrINSt7__cxx1118basic_stringstreamIcSt11char_traitsIcESaIcEEESt14default_deleteIS5_EE3getEv
FNDA:0,_ZNKSt10unique_ptrINSt7__cxx1118basic_stringstreamIcSt11char_traitsIcESaIcEEESt14default_deleteIS5_EE3getEv
FN:463,_ZNKSt10unique_ptrINSt7__cxx1112basic_stringIcSt11char_traitsIcESaIcEEESt14default_deleteIS5_EE3getEv
FNDA:0,_ZNKSt10unique_ptrINSt7__cxx1112basic_stringIcSt11char_traitsIcESaIcEEESt14default_deleteIS5_EE3getEv
FN:469,_ZNSt10unique_ptrINSt7__cxx1118basic_stringstreamIcSt11char_traitsIcESaIcEEESt14default_deleteIS5_EE11get_deleterEv
FNDA:0,_ZNSt10unique_ptrINSt7__cxx1118basic_stringstreamIcSt11char_traitsIcESaIcEEESt14default_deleteIS5_EE11get_deleterEv
FN:469,_ZNSt10unique_ptrINSt7__cxx1112basic_stringIcSt11char_traitsIcESaIcEEESt14default_deleteIS5_EE11get_deleterEv
FNDA:0,_ZNSt10unique_ptrINSt7__cxx1112basic_stringIcSt11char_traitsIcESaIcEEESt14default_deleteIS5_EE11get_deleterEv
FN:480,_ZNKSt10unique_ptrINSt7__cxx1112basic_stringIcSt11char_traitsIcESaIcEEESt14default_deleteIS5_EEcvbEv
FNDA:0,_ZNKSt10unique_ptrINSt7__cxx1112basic_stringIcSt11char_traitsIcESaIcEEESt14default_deleteIS5_EEcvbEv
FN:845,_ZSteqINSt7__cxx1112basic_stringIcSt11char_traitsIcESaIcEEESt14default_deleteIS5_EEbRKSt10unique_ptrIT_T0_EDn
FNDA:0,_ZSteqINSt7__cxx1112basic_stringIcSt11char_traitsIcESaIcEEESt14default_deleteIS5_EEbRKSt10unique_ptrIT_T0_EDn
FN:869,_ZStneINSt7__cxx1112basic_stringIcSt11char_traitsIcESaIcEEESt14default_deleteIS5_EEbRKSt10unique_ptrIT_T0_EDn
FNDA:0,_ZStneINSt7__cxx1112basic_stringIcSt11char_traitsIcESaIcEEESt14default_deleteIS5_EEbRKSt10unique_ptrIT_T0_EDn
FN:1075,_ZSt11make_uniqueINSt7__cxx1112basic_stringIcSt11char_traitsIcESaIcEEEJEENSt8__detail9_MakeUniqIT_E15__single_objectEDpOT0_
FNDA:0,_ZSt11make_uniqueINSt7__cxx1112basic_stringIcSt11char_traitsIcESaIcEEEJEENSt8__detail9_MakeUniqIT_E15__single_objectEDpOT0_
FNF:29
FNH:0
DA:87,0
DA:93,0
DA:94,0
DA:87,0
DA:93,0
DA:94,0
DA:168,0
DA:170,0
DA:183,0
DA:185,0
DA:186,0
DA:187,0
DA:191,0
DA:191,0
DA:193,0
DA:193,0
DA:195,0
DA:195,0
DA:200,0
DA:202,0
DA:203,0
DA:204,0
DA:205,0
DA:206,0
DA:209,0
DA:211,0
DA:212,0
DA:213,0
DA:237,0
DA:298,0
DA:299,0
DA:300,0
DA:311,0
DA:312,0
DA:313,0
DA:392,0
DA:396,0
DA:397,0
DA:398,0
DA:399,0
DA:400,0
DA:392,0
DA:396,0
DA:397,0
DA:398,0
DA:399,0
DA:400,0
DA:408,0
DA:445,0
DA:447,0
DA:448,0
DA:454,0
DA:457,0
DA:463,0
DA:464,0
DA:463,0
DA:464,0
DA:469,0
DA:470,0
DA:469,0
DA:470,0
DA:480,0
DA:481,0
DA:845,0
DA:846,0
DA:869,0
DA:870,0
DA:1075,0
DA:1076,0
LF:69
LH:0
end_of_record
TN:
SF:C:/Projects/GoogleTestProject/googletest/googletest/include/gtest/gtest-message.h
LF:0
LH:0
end_of_record
SF:C:/msys64/mingw64/include/c++/14.2.0/bits/char_traits.h
FN:136,_ZN9__gnu_cxx11char_traitsIcE2eqERKcS3_
FNDA:0,_ZN9__gnu_cxx11char_traitsIcE2eqERKcS3_
FN:199,_ZN9__gnu_cxx11char_traitsIcE6lengthEPKc
FNDA:0,_ZN9__gnu_cxx11char_traitsIcE6lengthEPKc
FN:385,_ZNSt11char_traitsIcE6lengthEPKc
FNDA:0,_ZNSt11char_traitsIcE6lengthEPKc
FN:419,_ZNSt11char_traitsIcE4copyEPcPKcy
FNDA:0,_ZNSt11char_traitsIcE4copyEPcPKcy
FNF:4
FNH:0
DA:136,0
DA:137,0
DA:199,0
DA:202,0
DA:203,0
DA:204,0
DA:205,0
DA:385,0
DA:388,0
DA:389,0
DA:391,0
DA:419,0
DA:421,0
DA:422,0
DA:427,0
LF:15
LH:0
end_of_record
SF:C:/Projects/GoogleTestProject/acc_mode_test.cpp
FN:24,_ZN20AccModeSelectionTest5SetUpEv
FNDA:60,_ZN20AccModeSelectionTest5SetUpEv
FN:57,_ZN41AccModeSelectionTest_TC_ACC_MS_EQ_01_TestC1Ev
FNDA:1,_ZN41AccModeSelectionTest_TC_ACC_MS_EQ_01_TestC1Ev
FN:57,_ZN41AccModeSelectionTest_TC_ACC_MS_EQ_01_Test8TestBodyEv
FNDA:1,_ZN41AccModeSelectionTest_TC_ACC_MS_EQ_01_Test8TestBodyEv
FN:57,_ZN41AccModeSelectionTest_TC_ACC_MS_EQ_01_TestD1Ev
FNDA:1,_ZN41AccModeSelectionTest_TC_ACC_MS_EQ_01_TestD1Ev
FN:57,_ZN41AccModeSelectionTest_TC_ACC_MS_EQ_01_TestD0Ev
FNDA:1,_ZN41AccModeSelectionTest_TC_ACC_MS_EQ_01_TestD0Ev
FN:67,_ZN41AccModeSelectionTest_TC_ACC_MS_EQ_02_TestC1Ev
FNDA:1,_ZN41AccModeSelectionTest_TC_ACC_MS_EQ_02_TestC1Ev
FN:67,_ZN41AccModeSelectionTest_TC_ACC_MS_EQ_02_Test8TestBodyEv
FNDA:1,_ZN41AccModeSelectionTest_TC_ACC_MS_EQ_02_Test8TestBodyEv
FN:67,_ZN41AccModeSelectionTest_TC_ACC_MS_EQ_02_TestD1Ev
FNDA:1,_ZN41AccModeSelectionTest_TC_ACC_MS_EQ_02_TestD1Ev
FN:67,_ZN41AccModeSelectionTest_TC_ACC_MS_EQ_02_TestD0Ev
FNDA:1,_ZN41AccModeSelectionTest_TC_ACC_MS_EQ_02_TestD0Ev
FN:78,_ZN41AccModeSelectionTest_TC_ACC_MS_EQ_03_TestC1Ev
FNDA:1,_ZN41AccModeSelectionTest_TC_ACC_MS_EQ_03_TestC1Ev
FN:78,_ZN41AccModeSelectionTest_TC_ACC_MS_EQ_03_Test8TestBodyEv
FNDA:1,_ZN41AccModeSelectionTest_TC_ACC_MS_EQ_03_Test8TestBodyEv
FN:78,_ZN41AccModeSelectionTest_TC_ACC_MS_EQ_03_TestD1Ev
FNDA:1,_ZN41AccModeSelectionTest_TC_ACC_MS_EQ_03_TestD1Ev
FN:78,_ZN41AccModeSelectionTest_TC_ACC_MS_EQ_03_TestD0Ev
FNDA:1,_ZN41AccModeSelectionTest_TC_ACC_MS_EQ_03_TestD0Ev
FN:86,_ZN41AccModeSelectionTest_TC_ACC_MS_EQ_04_TestC1Ev
FNDA:1,_ZN41AccModeSelectionTest_TC_ACC_MS_EQ_04_TestC1Ev
FN:86,_ZN41AccModeSelectionTest_TC_ACC_MS_EQ_04_Test8TestBodyEv
FNDA:1,_ZN41AccModeSelectionTest_TC_ACC_MS_EQ_04_Test8TestBodyEv
FN:86,_ZN41AccModeSelectionTest_TC_ACC_MS_EQ_04_TestD1Ev
FNDA:1,_ZN41AccModeSelectionTest_TC_ACC_MS_EQ_04_TestD1Ev
FN:86,_ZN41AccModeSelectionTest_TC_ACC_MS_EQ_04_TestD0Ev
FNDA:1,_ZN41AccModeSelectionTest_TC_ACC_MS_EQ_04_TestD0Ev
FN:97,_ZN41AccModeSelectionTest_TC_ACC_MS_EQ_05_TestC1Ev
FNDA:1,_ZN41AccModeSelectionTest_TC_ACC_MS_EQ_05_TestC1Ev
FN:97,_ZN41AccModeSelectionTest_TC_ACC_MS_EQ_05_Test8TestBodyEv
FNDA:1,_ZN41AccModeSelectionTest_TC_ACC_MS_EQ_05_Test8TestBodyEv
FN:97,_ZN41AccModeSelectionTest_TC_ACC_MS_EQ_05_TestD1Ev
FNDA:1,_ZN41AccModeSelectionTest_TC_ACC_MS_EQ_05_TestD1Ev
FN:97,_ZN41AccModeSelectionTest_TC_ACC_MS_EQ_05_TestD0Ev
FNDA:1,_ZN41AccModeSelectionTest_TC_ACC_MS_EQ_05_TestD0Ev
FN:107,_ZN41AccModeSelectionTest_TC_ACC_MS_EQ_06_TestC1Ev
FNDA:1,_ZN41AccModeSelectionTest_TC_ACC_MS_EQ_06_TestC1Ev
FN:107,_ZN41AccModeSelectionTest_TC_ACC_MS_EQ_06_TestD0Ev
FNDA:1,_ZN41AccModeSelectionTest_TC_ACC_MS_EQ_06_TestD0Ev
FN:107,_ZN41AccModeSelectionTest_TC_ACC_MS_EQ_06_TestD1Ev
FNDA:1,_ZN41AccModeSelectionTest_TC_ACC_MS_EQ_06_TestD1Ev
FN:107,_ZN41AccModeSelectionTest_TC_ACC_MS_EQ_06_Test8TestBodyEv
FNDA:1,_ZN41AccModeSelectionTest_TC_ACC_MS_EQ_06_Test8TestBodyEv
FN:116,_ZN41AccModeSelectionTest_TC_ACC_MS_EQ_07_TestC1Ev
FNDA:1,_ZN41AccModeSelectionTest_TC_ACC_MS_EQ_07_TestC1Ev
FN:116,_ZN41AccModeSelectionTest_TC_ACC_MS_EQ_07_Test8TestBodyEv
FNDA:1,_ZN41AccModeSelectionTest_TC_ACC_MS_EQ_07_Test8TestBodyEv
FN:116,_ZN41AccModeSelectionTest_TC_ACC_MS_EQ_07_TestD1Ev
FNDA:1,_ZN41AccModeSelectionTest_TC_ACC_MS_EQ_07_TestD1Ev
FN:116,_ZN41AccModeSelectionTest_TC_ACC_MS_EQ_07_TestD0Ev
FNDA:1,_ZN41AccModeSelectionTest_TC_ACC_MS_EQ_07_TestD0Ev
FN:127,_ZN41AccModeSelectionTest_TC_ACC_MS_EQ_08_TestC1Ev
FNDA:1,_ZN41AccModeSelectionTest_TC_ACC_MS_EQ_08_TestC1Ev
FN:127,_ZN41AccModeSelectionTest_TC_ACC_MS_EQ_08_Test8TestBodyEv
FNDA:1,_ZN41AccModeSelectionTest_TC_ACC_MS_EQ_08_Test8TestBodyEv
FN:127,_ZN41AccModeSelectionTest_TC_ACC_MS_EQ_08_TestD1Ev
FNDA:1,_ZN41AccModeSelectionTest_TC_ACC_MS_EQ_08_TestD1Ev
FN:127,_ZN41AccModeSelectionTest_TC_ACC_MS_EQ_08_TestD0Ev
FNDA:1,_ZN41AccModeSelectionTest_TC_ACC_MS_EQ_08_TestD0Ev
FN:136,_ZN41AccModeSelectionTest_TC_ACC_MS_EQ_09_TestD1Ev
FNDA:1,_ZN41AccModeSelectionTest_TC_ACC_MS_EQ_09_TestD1Ev
FN:136,_ZN41AccModeSelectionTest_TC_ACC_MS_EQ_09_TestC1Ev
FNDA:1,_ZN41AccModeSelectionTest_TC_ACC_MS_EQ_09_TestC1Ev
FN:136,_ZN41AccModeSelectionTest_TC_ACC_MS_EQ_09_TestD0Ev
FNDA:1,_ZN41AccModeSelectionTest_TC_ACC_MS_EQ_09_TestD0Ev
FN:136,_ZN41AccModeSelectionTest_TC_ACC_MS_EQ_09_Test8TestBodyEv
FNDA:1,_ZN41AccModeSelectionTest_TC_ACC_MS_EQ_09_Test8TestBodyEv
FN:145,_ZN41AccModeSelectionTest_TC_ACC_MS_EQ_10_TestD0Ev
FNDA:1,_ZN41AccModeSelectionTest_TC_ACC_MS_EQ_10_TestD0Ev
FN:145,_ZN41AccModeSelectionTest_TC_ACC_MS_EQ_10_TestD1Ev
FNDA:1,_ZN41AccModeSelectionTest_TC_ACC_MS_EQ_10_TestD1Ev
FN:145,_ZN41AccModeSelectionTest_TC_ACC_MS_EQ_10_Test8TestBodyEv
FNDA:1,_ZN41AccModeSelectionTest_TC_ACC_MS_EQ_10_Test8TestBodyEv
FN:145,_ZN41AccModeSelectionTest_TC_ACC_MS_EQ_10_TestC1Ev
FNDA:1,_ZN41AccModeSelectionTest_TC_ACC_MS_EQ_10_TestC1Ev
FN:154,_ZN41AccModeSelectionTest_TC_ACC_MS_EQ_11_TestC1Ev
FNDA:1,_ZN41AccModeSelectionTest_TC_ACC_MS_EQ_11_TestC1Ev
FN:154,_ZN41AccModeSelectionTest_TC_ACC_MS_EQ_11_TestD0Ev
FNDA:1,_ZN41AccModeSelectionTest_TC_ACC_MS_EQ_11_TestD0Ev
FN:154,_ZN41AccModeSelectionTest_TC_ACC_MS_EQ_11_TestD1Ev
FNDA:1,_ZN41AccModeSelectionTest_TC_ACC_MS_EQ_11_TestD1Ev
FN:154,_ZN41AccModeSelectionTest_TC_ACC_MS_EQ_11_Test8TestBodyEv
FNDA:1,_ZN41AccModeSelectionTest_TC_ACC_MS_EQ_11_Test8TestBodyEv
FN:164,_ZN41AccModeSelectionTest_TC_ACC_MS_EQ_12_Test8TestBodyEv
FNDA:1,_ZN41AccModeSelectionTest_TC_ACC_MS_EQ_12_Test8TestBodyEv
FN:164,_ZN41AccModeSelectionTest_TC_ACC_MS_EQ_12_TestD0Ev
FNDA:1,_ZN41AccModeSelectionTest_TC_ACC_MS_EQ_12_TestD0Ev
FN:164,_ZN41AccModeSelectionTest_TC_ACC_MS_EQ_12_TestD1Ev
FNDA:1,_ZN41AccModeSelectionTest_TC_ACC_MS_EQ_12_TestD1Ev
FN:164,_ZN41AccModeSelectionTest_TC_ACC_MS_EQ_12_TestC1Ev
FNDA:1,_ZN41AccModeSelectionTest_TC_ACC_MS_EQ_12_TestC1Ev
FN:173,_ZN41AccModeSelectionTest_TC_ACC_MS_EQ_13_Test8TestBodyEv
FNDA:1,_ZN41AccModeSelectionTest_TC_ACC_MS_EQ_13_Test8TestBodyEv
FN:173,_ZN41AccModeSelectionTest_TC_ACC_MS_EQ_13_TestC1Ev
FNDA:1,_ZN41AccModeSelectionTest_TC_ACC_MS_EQ_13_TestC1Ev
FN:173,_ZN41AccModeSelectionTest_TC_ACC_MS_EQ_13_TestD0Ev
FNDA:1,_ZN41AccModeSelectionTest_TC_ACC_MS_EQ_13_TestD0Ev
FN:173,_ZN41AccModeSelectionTest_TC_ACC_MS_EQ_13_TestD1Ev
FNDA:1,_ZN41AccModeSelectionTest_TC_ACC_MS_EQ_13_TestD1Ev
FN:183,_ZN41AccModeSelectionTest_TC_ACC_MS_EQ_14_TestD0Ev
FNDA:1,_ZN41AccModeSelectionTest_TC_ACC_MS_EQ_14_TestD0Ev
FN:183,_ZN41AccModeSelectionTest_TC_ACC_MS_EQ_14_TestD1Ev
FNDA:1,_ZN41AccModeSelectionTest_TC_ACC_MS_EQ_14_TestD1Ev
FN:183,_ZN41AccModeSelectionTest_TC_ACC_MS_EQ_14_TestC1Ev
FNDA:1,_ZN41AccModeSelectionTest_TC_ACC_MS_EQ_14_TestC1Ev
FN:183,_ZN41AccModeSelectionTest_TC_ACC_MS_EQ_14_Test8TestBodyEv
FNDA:1,_ZN41AccModeSelectionTest_TC_ACC_MS_EQ_14_Test8TestBodyEv
FN:193,_ZN41AccModeSelectionTest_TC_ACC_MS_EQ_15_TestC1Ev
FNDA:1,_ZN41AccModeSelectionTest_TC_ACC_MS_EQ_15_TestC1Ev
FN:193,_ZN41AccModeSelectionTest_TC_ACC_MS_EQ_15_TestD1Ev
FNDA:1,_ZN41AccModeSelectionTest_TC_ACC_MS_EQ_15_TestD1Ev
FN:193,_ZN41AccModeSelectionTest_TC_ACC_MS_EQ_15_Test8TestBodyEv
FNDA:1,_ZN41AccModeSelectionTest_TC_ACC_MS_EQ_15_Test8TestBodyEv
FN:193,_ZN41AccModeSelectionTest_TC_ACC_MS_EQ_15_TestD0Ev
FNDA:1,_ZN41AccModeSelectionTest_TC_ACC_MS_EQ_15_TestD0Ev
FN:203,_ZN41AccModeSelectionTest_TC_ACC_MS_EQ_16_Test8TestBodyEv
FNDA:1,_ZN41AccModeSelectionTest_TC_ACC_MS_EQ_16_Test8TestBodyEv
FN:203,_ZN41AccModeSelectionTest_TC_ACC_MS_EQ_16_TestC1Ev
FNDA:1,_ZN41AccModeSelectionTest_TC_ACC_MS_EQ_16_TestC1Ev
FN:203,_ZN41AccModeSelectionTest_TC_ACC_MS_EQ_16_TestD0Ev
FNDA:1,_ZN41AccModeSelectionTest_TC_ACC_MS_EQ_16_TestD0Ev
FN:203,_ZN41AccModeSelectionTest_TC_ACC_MS_EQ_16_TestD1Ev
FNDA:1,_ZN41AccModeSelectionTest_TC_ACC_MS_EQ_16_TestD1Ev
FN:212,_ZN41AccModeSelectionTest_TC_ACC_MS_EQ_17_Test8TestBodyEv
FNDA:1,_ZN41AccModeSelectionTest_TC_ACC_MS_EQ_17_Test8TestBodyEv
FN:212,_ZN41AccModeSelectionTest_TC_ACC_MS_EQ_17_TestD1Ev
FNDA:1,_ZN41AccModeSelectionTest_TC_ACC_MS_EQ_17_TestD1Ev
FN:212,_ZN41AccModeSelectionTest_TC_ACC_MS_EQ_17_TestC1Ev
FNDA:1,_ZN41AccModeSelectionTest_TC_ACC_MS_EQ_17_TestC1Ev
FN:212,_ZN41AccModeSelectionTest_TC_ACC_MS_EQ_17_TestD0Ev
FNDA:1,_ZN41AccModeSelectionTest_TC_ACC_MS_EQ_17_TestD0Ev
FN:221,_ZN41AccModeSelectionTest_TC_ACC_MS_EQ_18_TestD1Ev
FNDA:1,_ZN41AccModeSelectionTest_TC_ACC_MS_EQ_18_TestD1Ev
FN:221,_ZN41AccModeSelectionTest_TC_ACC_MS_EQ_18_TestD0Ev
FNDA:1,_ZN41AccModeSelectionTest_TC_ACC_MS_EQ_18_TestD0Ev
FN:221,_ZN41AccModeSelectionTest_TC_ACC_MS_EQ_18_TestC1Ev
FNDA:1,_ZN41AccModeSelectionTest_TC_ACC_MS_EQ_18_TestC1Ev
FN:221,_ZN41AccModeSelectionTest_TC_ACC_MS_EQ_18_Test8TestBodyEv
FNDA:1,_ZN41AccModeSelectionTest_TC_ACC_MS_EQ_18_Test8TestBodyEv
FN:230,_ZN41AccModeSelectionTest_TC_ACC_MS_EQ_19_TestD1Ev
FNDA:1,_ZN41AccModeSelectionTest_TC_ACC_MS_EQ_19_TestD1Ev
FN:230,_ZN41AccModeSelectionTest_TC_ACC_MS_EQ_19_Test8TestBodyEv
FNDA:1,_ZN41AccModeSelectionTest_TC_ACC_MS_EQ_19_Test8TestBodyEv
FN:230,_ZN41AccModeSelectionTest_TC_ACC_MS_EQ_19_TestD0Ev
FNDA:1,_ZN41AccModeSelectionTest_TC_ACC_MS_EQ_19_TestD0Ev
FN:230,_ZN41AccModeSelectionTest_TC_ACC_MS_EQ_19_TestC1Ev
FNDA:1,_ZN41AccModeSelectionTest_TC_ACC_MS_EQ_19_TestC1Ev
FN:239,_ZN41AccModeSelectionTest_TC_ACC_MS_EQ_20_TestD1Ev
FNDA:1,_ZN41AccModeSelectionTest_TC_ACC_MS_EQ_20_TestD1Ev
FN:239,_ZN41AccModeSelectionTest_TC_ACC_MS_EQ_20_TestD0Ev
FNDA:1,_ZN41AccModeSelectionTest_TC_ACC_MS_EQ_20_TestD0Ev
FN:239,_ZN41AccModeSelectionTest_TC_ACC_MS_EQ_20_Test8TestBodyEv
FNDA:1,_ZN41AccModeSelectionTest_TC_ACC_MS_EQ_20_Test8TestBodyEv
FN:239,_ZN41AccModeSelectionTest_TC_ACC_MS_EQ_20_TestC1Ev
FNDA:1,_ZN41AccModeSelectionTest_TC_ACC_MS_EQ_20_TestC1Ev
FN:255,_ZN41AccModeSelectionTest_TC_ACC_MS_BV_01_TestD1Ev
FNDA:1,_ZN41AccModeSelectionTest_TC_ACC_MS_BV_01_TestD1Ev
FN:255,_ZN41AccModeSelectionTest_TC_ACC_MS_BV_01_TestD0Ev
FNDA:1,_ZN41AccModeSelectionTest_TC_ACC_MS_BV_01_TestD0Ev
FN:255,_ZN41AccModeSelectionTest_TC_ACC_MS_BV_01_Test8TestBodyEv
FNDA:1,_ZN41AccModeSelectionTest_TC_ACC_MS_BV_01_Test8TestBodyEv
FN:255,_ZN41AccModeSelectionTest_TC_ACC_MS_BV_01_TestC1Ev
FNDA:1,_ZN41AccModeSelectionTest_TC_ACC_MS_BV_01_TestC1Ev
FN:263,_ZN41AccModeSelectionTest_TC_ACC_MS_BV_02_TestD0Ev
FNDA:1,_ZN41AccModeSelectionTest_TC_ACC_MS_BV_02_TestD0Ev
FN:263,_ZN41AccModeSelectionTest_TC_ACC_MS_BV_02_TestD1Ev
FNDA:1,_ZN41AccModeSelectionTest_TC_ACC_MS_BV_02_TestD1Ev
FN:263,_ZN41AccModeSelectionTest_TC_ACC_MS_BV_02_Test8TestBodyEv
FNDA:1,_ZN41AccModeSelectionTest_TC_ACC_MS_BV_02_Test8TestBodyEv
FN:263,_ZN41AccModeSelectionTest_TC_ACC_MS_BV_02_TestC1Ev
FNDA:1,_ZN41AccModeSelectionTest_TC_ACC_MS_BV_02_TestC1Ev
FN:274,_ZN41AccModeSelectionTest_TC_ACC_MS_BV_03_TestD1Ev
FNDA:1,_ZN41AccModeSelectionTest_TC_ACC_MS_BV_03_TestD1Ev
FN:274,_ZN41AccModeSelectionTest_TC_ACC_MS_BV_03_TestC1Ev
FNDA:1,_ZN41AccModeSelectionTest_TC_ACC_MS_BV_03_TestC1Ev
FN:274,_ZN41AccModeSelectionTest_TC_ACC_MS_BV_03_Test8TestBodyEv
FNDA:1,_ZN41AccModeSelectionTest_TC_ACC_MS_BV_03_Test8TestBodyEv
FN:274,_ZN41AccModeSelectionTest_TC_ACC_MS_BV_03_TestD0Ev
FNDA:1,_ZN41AccModeSelectionTest_TC_ACC_MS_BV_03_TestD0Ev
FN:283,_ZN41AccModeSelectionTest_TC_ACC_MS_BV_04_Test8TestBodyEv
FNDA:1,_ZN41AccModeSelectionTest_TC_ACC_MS_BV_04_Test8TestBodyEv
FN:283,_ZN41AccModeSelectionTest_TC_ACC_MS_BV_04_TestD1Ev
FNDA:1,_ZN41AccModeSelectionTest_TC_ACC_MS_BV_04_TestD1Ev
FN:283,_ZN41AccModeSelectionTest_TC_ACC_MS_BV_04_TestD0Ev
FNDA:1,_ZN41AccModeSelectionTest_TC_ACC_MS_BV_04_TestD0Ev
FN:283,_ZN41AccModeSelectionTest_TC_ACC_MS_BV_04_TestC1Ev
FNDA:1,_ZN41AccModeSelectionTest_TC_ACC_MS_BV_04_TestC1Ev
FN:292,_ZN41AccModeSelectionTest_TC_ACC_MS_BV_05_TestC1Ev
FNDA:1,_ZN41AccModeSelectionTest_TC_ACC_MS_BV_05_TestC1Ev
FN:292,_ZN41AccModeSelectionTest_TC_ACC_MS_BV_05_TestD1Ev
FNDA:1,_ZN41AccModeSelectionTest_TC_ACC_MS_BV_05_TestD1Ev
FN:292,_ZN41AccModeSelectionTest_TC_ACC_MS_BV_05_TestD0Ev
FNDA:1,_ZN41AccModeSelectionTest_TC_ACC_MS_BV_05_TestD0Ev
FN:292,_ZN41AccModeSelectionTest_TC_ACC_MS_BV_05_Test8TestBodyEv
FNDA:1,_ZN41AccModeSelectionTest_TC_ACC_MS_BV_05_Test8TestBodyEv
FN:301,_ZN41AccModeSelectionTest_TC_ACC_MS_BV_06_Test8TestBodyEv
FNDA:1,_ZN41AccModeSelectionTest_TC_ACC_MS_BV_06_Test8TestBodyEv
FN:301,_ZN41AccModeSelectionTest_TC_ACC_MS_BV_06_TestC1Ev
FNDA:1,_ZN41AccModeSelectionTest_TC_ACC_MS_BV_06_TestC1Ev
FN:301,_ZN41AccModeSelectionTest_TC_ACC_MS_BV_06_TestD0Ev
FNDA:1,_ZN41AccModeSelectionTest_TC_ACC_MS_BV_06_TestD0Ev
FN:301,_ZN41AccModeSelectionTest_TC_ACC_MS_BV_06_TestD1Ev
FNDA:1,_ZN41AccModeSelectionTest_TC_ACC_MS_BV_06_TestD1Ev
FN:309,_ZN41AccModeSelectionTest_TC_ACC_MS_BV_07_Test8TestBodyEv
FNDA:1,_ZN41AccModeSelectionTest_TC_ACC_MS_BV_07_Test8TestBodyEv
FN:309,_ZN41AccModeSelectionTest_TC_ACC_MS_BV_07_TestD1Ev
FNDA:1,_ZN41AccModeSelectionTest_TC_ACC_MS_BV_07_TestD1Ev
FN:309,_ZN41AccModeSelectionTest_TC_ACC_MS_BV_07_TestD0Ev
FNDA:1,_ZN41AccModeSelectionTest_TC_ACC_MS_BV_07_TestD0Ev
FN:309,_ZN41AccModeSelectionTest_TC_ACC_MS_BV_07_TestC1Ev
FNDA:1,_ZN41AccModeSelectionTest_TC_ACC_MS_BV_07_TestC1Ev
FN:321,_ZN41AccModeSelectionTest_TC_ACC_MS_BV_08_TestC1Ev
FNDA:1,_ZN41AccModeSelectionTest_TC_ACC_MS_BV_08_TestC1Ev
FN:321,_ZN41AccModeSelectionTest_TC_ACC_MS_BV_08_TestD1Ev
FNDA:1,_ZN41AccModeSelectionTest_TC_ACC_MS_BV_08_TestD1Ev
FN:321,_ZN41AccModeSelectionTest_TC_ACC_MS_BV_08_TestD0Ev
FNDA:1,_ZN41AccModeSelectionTest_TC_ACC_MS_BV_08_TestD0Ev
FN:321,_ZN41AccModeSelectionTest_TC_ACC_MS_BV_08_Test8TestBodyEv
FNDA:1,_ZN41AccModeSelectionTest_TC_ACC_MS_BV_08_Test8TestBodyEv
FN:333,_ZN41AccModeSelectionTest_TC_ACC_MS_BV_09_Test8TestBodyEv
FNDA:1,_ZN41AccModeSelectionTest_TC_ACC_MS_BV_09_Test8TestBodyEv
FN:333,_ZN41AccModeSelectionTest_TC_ACC_MS_BV_09_TestC1Ev
FNDA:1,_ZN41AccModeSelectionTest_TC_ACC_MS_BV_09_TestC1Ev
FN:333,_ZN41AccModeSelectionTest_TC_ACC_MS_BV_09_TestD0Ev
FNDA:1,_ZN41AccModeSelectionTest_TC_ACC_MS_BV_09_TestD0Ev
FN:333,_ZN41AccModeSelectionTest_TC_ACC_MS_BV_09_TestD1Ev
FNDA:1,_ZN41AccModeSelectionTest_TC_ACC_MS_BV_09_TestD1Ev
FN:344,_ZN41AccModeSelectionTest_TC_ACC_MS_BV_10_Test8TestBodyEv
FNDA:1,_ZN41AccModeSelectionTest_TC_ACC_MS_BV_10_Test8TestBodyEv
FN:344,_ZN41AccModeSelectionTest_TC_ACC_MS_BV_10_TestD1Ev
FNDA:1,_ZN41AccModeSelectionTest_TC_ACC_MS_BV_10_TestD1Ev
FN:344,_ZN41AccModeSelectionTest_TC_ACC_MS_BV_10_TestC1Ev
FNDA:1,_ZN41AccModeSelectionTest_TC_ACC_MS_BV_10_TestC1Ev
FN:344,_ZN41AccModeSelectionTest_TC_ACC_MS_BV_10_TestD0Ev
FNDA:1,_ZN41AccModeSelectionTest_TC_ACC_MS_BV_10_TestD0Ev
FN:353,_ZN41AccModeSelectionTest_TC_ACC_MS_BV_11_TestD0Ev
FNDA:1,_ZN41AccModeSelectionTest_TC_ACC_MS_BV_11_TestD0Ev
FN:353,_ZN41AccModeSelectionTest_TC_ACC_MS_BV_11_TestC1Ev
FNDA:1,_ZN41AccModeSelectionTest_TC_ACC_MS_BV_11_TestC1Ev
FN:353,_ZN41AccModeSelectionTest_TC_ACC_MS_BV_11_Test8TestBodyEv
FNDA:1,_ZN41AccModeSelectionTest_TC_ACC_MS_BV_11_Test8TestBodyEv
FN:353,_ZN41AccModeSelectionTest_TC_ACC_MS_BV_11_TestD1Ev
FNDA:1,_ZN41AccModeSelectionTest_TC_ACC_MS_BV_11_TestD1Ev
FN:363,_ZN41AccModeSelectionTest_TC_ACC_MS_BV_12_TestC1Ev
FNDA:1,_ZN41AccModeSelectionTest_TC_ACC_MS_BV_12_TestC1Ev
FN:363,_ZN41AccModeSelectionTest_TC_ACC_MS_BV_12_TestD0Ev
FNDA:1,_ZN41AccModeSelectionTest_TC_ACC_MS_BV_12_TestD0Ev
FN:363,_ZN41AccModeSelectionTest_TC_ACC_MS_BV_12_Test8TestBodyEv
FNDA:1,_ZN41AccModeSelectionTest_TC_ACC_MS_BV_12_Test8TestBodyEv
FN:363,_ZN41AccModeSelectionTest_TC_ACC_MS_BV_12_TestD1Ev
FNDA:1,_ZN41AccModeSelectionTest_TC_ACC_MS_BV_12_TestD1Ev
FN:372,_ZN41AccModeSelectionTest_TC_ACC_MS_BV_13_TestD1Ev
FNDA:1,_ZN41AccModeSelectionTest_TC_ACC_MS_BV_13_TestD1Ev
FN:372,_ZN41AccModeSelectionTest_TC_ACC_MS_BV_13_TestC1Ev
FNDA:1,_ZN41AccModeSelectionTest_TC_ACC_MS_BV_13_TestC1Ev
FN:372,_ZN41AccModeSelectionTest_TC_ACC_MS_BV_13_Test8TestBodyEv
FNDA:1,_ZN41AccModeSelectionTest_TC_ACC_MS_BV_13_Test8TestBodyEv
FN:372,_ZN41AccModeSelectionTest_TC_ACC_MS_BV_13_TestD0Ev
FNDA:1,_ZN41AccModeSelectionTest_TC_ACC_MS_BV_13_TestD0Ev
FN:381,_ZN41AccModeSelectionTest_TC_ACC_MS_BV_14_Test8TestBodyEv
FNDA:1,_ZN41AccModeSelectionTest_TC_ACC_MS_BV_14_Test8TestBodyEv
FN:381,_ZN41AccModeSelectionTest_TC_ACC_MS_BV_14_TestC1Ev
FNDA:1,_ZN41AccModeSelectionTest_TC_ACC_MS_BV_14_TestC1Ev
FN:381,_ZN41AccModeSelectionTest_TC_ACC_MS_BV_14_TestD1Ev
FNDA:1,_ZN41AccModeSelectionTest_TC_ACC_MS_BV_14_TestD1Ev
FN:381,_ZN41AccModeSelectionTest_TC_ACC_MS_BV_14_TestD0Ev
FNDA:1,_ZN41AccModeSelectionTest_TC_ACC_MS_BV_14_TestD0Ev
FN:390,_ZN41AccModeSelectionTest_TC_ACC_MS_BV_15_Test8TestBodyEv
FNDA:1,_ZN41AccModeSelectionTest_TC_ACC_MS_BV_15_Test8TestBodyEv
FN:390,_ZN41AccModeSelectionTest_TC_ACC_MS_BV_15_TestD1Ev
FNDA:1,_ZN41AccModeSelectionTest_TC_ACC_MS_BV_15_TestD1Ev
FN:390,_ZN41AccModeSelectionTest_TC_ACC_MS_BV_15_TestD0Ev
FNDA:1,_ZN41AccModeSelectionTest_TC_ACC_MS_BV_15_TestD0Ev
FN:390,_ZN41AccModeSelectionTest_TC_ACC_MS_BV_15_TestC1Ev
FNDA:1,_ZN41AccModeSelectionTest_TC_ACC_MS_BV_15_TestC1Ev
FN:399,_ZN41AccModeSelectionTest_TC_ACC_MS_BV_16_Test8TestBodyEv
FNDA:1,_ZN41AccModeSelectionTest_TC_ACC_MS_BV_16_Test8TestBodyEv
FN:399,_ZN41AccModeSelectionTest_TC_ACC_MS_BV_16_TestD1Ev
FNDA:1,_ZN41AccModeSelectionTest_TC_ACC_MS_BV_16_TestD1Ev
FN:399,_ZN41AccModeSelectionTest_TC_ACC_MS_BV_16_TestD0Ev
FNDA:1,_ZN41AccModeSelectionTest_TC_ACC_MS_BV_16_TestD0Ev
FN:399,_ZN41AccModeSelectionTest_TC_ACC_MS_BV_16_TestC1Ev
FNDA:1,_ZN41AccModeSelectionTest_TC_ACC_MS_BV_16_TestC1Ev
FN:408,_ZN41AccModeSelectionTest_TC_ACC_MS_BV_17_TestC1Ev
FNDA:1,_ZN41AccModeSelectionTest_TC_ACC_MS_BV_17_TestC1Ev
FN:408,_ZN41AccModeSelectionTest_TC_ACC_MS_BV_17_Test8TestBodyEv
FNDA:1,_ZN41AccModeSelectionTest_TC_ACC_MS_BV_17_Test8TestBodyEv
FN:408,_ZN41AccModeSelectionTest_TC_ACC_MS_BV_17_TestD0Ev
FNDA:1,_ZN41AccModeSelectionTest_TC_ACC_MS_BV_17_TestD0Ev
FN:408,_ZN41AccModeSelectionTest_TC_ACC_MS_BV_17_TestD1Ev
FNDA:1,_ZN41AccModeSelectionTest_TC_ACC_MS_BV_17_TestD1Ev
FN:416,_ZN41AccModeSelectionTest_TC_ACC_MS_BV_18_TestD1Ev
FNDA:1,_ZN41AccModeSelectionTest_TC_ACC_MS_BV_18_TestD1Ev
FN:416,_ZN41AccModeSelectionTest_TC_ACC_MS_BV_18_Test8TestBodyEv
FNDA:1,_ZN41AccModeSelectionTest_TC_ACC_MS_BV_18_Test8TestBodyEv
FN:416,_ZN41AccModeSelectionTest_TC_ACC_MS_BV_18_TestD0Ev
FNDA:1,_ZN41AccModeSelectionTest_TC_ACC_MS_BV_18_TestD0Ev
FN:416,_ZN41AccModeSelectionTest_TC_ACC_MS_BV_18_TestC1Ev
FNDA:1,_ZN41AccModeSelectionTest_TC_ACC_MS_BV_18_TestC1Ev
FN:424,_ZN41AccModeSelectionTest_TC_ACC_MS_BV_19_TestD1Ev
FNDA:1,_ZN41AccModeSelectionTest_TC_ACC_MS_BV_19_TestD1Ev
FN:424,_ZN41AccModeSelectionTest_TC_ACC_MS_BV_19_TestD0Ev
FNDA:1,_ZN41AccModeSelectionTest_TC_ACC_MS_BV_19_TestD0Ev
FN:424,_ZN41AccModeSelectionTest_TC_ACC_MS_BV_19_TestC1Ev
FNDA:1,_ZN41AccModeSelectionTest_TC_ACC_MS_BV_19_TestC1Ev
FN:424,_ZN41AccModeSelectionTest_TC_ACC_MS_BV_19_Test8TestBodyEv
FNDA:1,_ZN41AccModeSelectionTest_TC_ACC_MS_BV_19_Test8TestBodyEv
FN:433,_ZN41AccModeSelectionTest_TC_ACC_MS_BV_20_TestD0Ev
FNDA:1,_ZN41AccModeSelectionTest_TC_ACC_MS_BV_20_TestD0Ev
FN:433,_ZN41AccModeSelectionTest_TC_ACC_MS_BV_20_TestD1Ev
FNDA:1,_ZN41AccModeSelectionTest_TC_ACC_MS_BV_20_TestD1Ev
FN:433,_ZN41AccModeSelectionTest_TC_ACC_MS_BV_20_TestC1Ev
FNDA:1,_ZN41AccModeSelectionTest_TC_ACC_MS_BV_20_TestC1Ev
FN:433,_ZN41AccModeSelectionTest_TC_ACC_MS_BV_20_Test8TestBodyEv
FNDA:1,_ZN41AccModeSelectionTest_TC_ACC_MS_BV_20_Test8TestBodyEv
FN:449,_ZN41AccModeSelectionTest_TC_ACC_MS_RA_01_TestD0Ev
FNDA:1,_ZN41AccModeSelectionTest_TC_ACC_MS_RA_01_TestD0Ev
FN:449,_ZN41AccModeSelectionTest_TC_ACC_MS_RA_01_TestD1Ev
FNDA:1,_ZN41AccModeSelectionTest_TC_ACC_MS_RA_01_TestD1Ev
FN:449,_ZN41AccModeSelectionTest_TC_ACC_MS_RA_01_TestC1Ev
FNDA:1,_ZN41AccModeSelectionTest_TC_ACC_MS_RA_01_TestC1Ev
FN:449,_ZN41AccModeSelectionTest_TC_ACC_MS_RA_01_Test8TestBodyEv
FNDA:1,_ZN41AccModeSelectionTest_TC_ACC_MS_RA_01_Test8TestBodyEv
FN:457,_ZN41AccModeSelectionTest_TC_ACC_MS_RA_02_TestD1Ev
FNDA:1,_ZN41AccModeSelectionTest_TC_ACC_MS_RA_02_TestD1Ev
FN:457,_ZN41AccModeSelectionTest_TC_ACC_MS_RA_02_Test8TestBodyEv
FNDA:1,_ZN41AccModeSelectionTest_TC_ACC_MS_RA_02_Test8TestBodyEv
FN:457,_ZN41AccModeSelectionTest_TC_ACC_MS_RA_02_TestD0Ev
FNDA:1,_ZN41AccModeSelectionTest_TC_ACC_MS_RA_02_TestD0Ev
FN:457,_ZN41AccModeSelectionTest_TC_ACC_MS_RA_02_TestC1Ev
FNDA:1,_ZN41AccModeSelectionTest_TC_ACC_MS_RA_02_TestC1Ev
FN:465,_ZN41AccModeSelectionTest_TC_ACC_MS_RA_03_Test8TestBodyEv
FNDA:1,_ZN41AccModeSelectionTest_TC_ACC_MS_RA_03_Test8TestBodyEv
FN:465,_ZN41AccModeSelectionTest_TC_ACC_MS_RA_03_TestD1Ev
FNDA:1,_ZN41AccModeSelectionTest_TC_ACC_MS_RA_03_TestD1Ev
FN:465,_ZN41AccModeSelectionTest_TC_ACC_MS_RA_03_TestD0Ev
FNDA:1,_ZN41AccModeSelectionTest_TC_ACC_MS_RA_03_TestD0Ev
FN:465,_ZN41AccModeSelectionTest_TC_ACC_MS_RA_03_TestC1Ev
FNDA:1,_ZN41AccModeSelectionTest_TC_ACC_MS_RA_03_TestC1Ev
FN:473,_ZN41AccModeSelectionTest_TC_ACC_MS_RA_04_TestC1Ev
FNDA:1,_ZN41AccModeSelectionTest_TC_ACC_MS_RA_04_TestC1Ev
FN:473,_ZN41AccModeSelectionTest_TC_ACC_MS_RA_04_Test8TestBodyEv
FNDA:1,_ZN41AccModeSelectionTest_TC_ACC_MS_RA_04_Test8TestBodyEv
FN:473,_ZN41AccModeSelectionTest_TC_ACC_MS_RA_04_TestD0Ev
FNDA:1,_ZN41AccModeSelectionTest_TC_ACC_MS_RA_04_TestD0Ev
FN:473,_ZN41AccModeSelectionTest_TC_ACC_MS_RA_04_TestD1Ev
FNDA:1,_ZN41AccModeSelectionTest_TC_ACC_MS_RA_04_TestD1Ev
FN:481,_ZN41AccModeSelectionTest_TC_ACC_MS_RA_05_TestC1Ev
FNDA:1,_ZN41AccModeSelectionTest_TC_ACC_MS_RA_05_TestC1Ev
FN:481,_ZN41AccModeSelectionTest_TC_ACC_MS_RA_05_Test8TestBodyEv
FNDA:1,_ZN41AccModeSelectionTest_TC_ACC_MS_RA_05_Test8TestBodyEv
FN:481,_ZN41AccModeSelectionTest_TC_ACC_MS_RA_05_TestD0Ev
FNDA:1,_ZN41AccModeSelectionTest_TC_ACC_MS_RA_05_TestD0Ev
FN:481,_ZN41AccModeSelectionTest_TC_ACC_MS_RA_05_TestD1Ev
FNDA:1,_ZN41AccModeSelectionTest_TC_ACC_MS_RA_05_TestD1Ev
FN:491,_ZN41AccModeSelectionTest_TC_ACC_MS_RA_06_Test8TestBodyEv
FNDA:1,_ZN41AccModeSelectionTest_TC_ACC_MS_RA_06_Test8TestBodyEv
FN:491,_ZN41AccModeSelectionTest_TC_ACC_MS_RA_06_TestC1Ev
FNDA:1,_ZN41AccModeSelectionTest_TC_ACC_MS_RA_06_TestC1Ev
FN:491,_ZN41AccModeSelectionTest_TC_ACC_MS_RA_06_TestD0Ev
FNDA:1,_ZN41AccModeSelectionTest_TC_ACC_MS_RA_06_TestD0Ev
FN:491,_ZN41AccModeSelectionTest_TC_ACC_MS_RA_06_TestD1Ev
FNDA:1,_ZN41AccModeSelectionTest_TC_ACC_MS_RA_06_TestD1Ev
FN:501,_ZN41AccModeSelectionTest_TC_ACC_MS_RA_07_Test8TestBodyEv
FNDA:1,_ZN41AccModeSelectionTest_TC_ACC_MS_RA_07_Test8TestBodyEv
FN:501,_ZN41AccModeSelectionTest_TC_ACC_MS_RA_07_TestC1Ev
FNDA:1,_ZN41AccModeSelectionTest_TC_ACC_MS_RA_07_TestC1Ev
FN:501,_ZN41AccModeSelectionTest_TC_ACC_MS_RA_07_TestD1Ev
FNDA:1,_ZN41AccModeSelectionTest_TC_ACC_MS_RA_07_TestD1Ev
FN:501,_ZN41AccModeSelectionTest_TC_ACC_MS_RA_07_TestD0Ev
FNDA:1,_ZN41AccModeSelectionTest_TC_ACC_MS_RA_07_TestD0Ev
FN:509,_ZN41AccModeSelectionTest_TC_ACC_MS_RA_08_TestD0Ev
FNDA:1,_ZN41AccModeSelectionTest_TC_ACC_MS_RA_08_TestD0Ev
FN:509,_ZN41AccModeSelectionTest_TC_ACC_MS_RA_08_Test8TestBodyEv
FNDA:1,_ZN41AccModeSelectionTest_TC_ACC_MS_RA_08_Test8TestBodyEv
FN:509,_ZN41AccModeSelectionTest_TC_ACC_MS_RA_08_TestC1Ev
FNDA:1,_ZN41AccModeSelectionTest_TC_ACC_MS_RA_08_TestC1Ev
FN:509,_ZN41AccModeSelectionTest_TC_ACC_MS_RA_08_TestD1Ev
FNDA:1,_ZN41AccModeSelectionTest_TC_ACC_MS_RA_08_TestD1Ev
FN:517,_ZN41AccModeSelectionTest_TC_ACC_MS_RA_09_Test8TestBodyEv
FNDA:1,_ZN41AccModeSelectionTest_TC_ACC_MS_RA_09_Test8TestBodyEv
FN:517,_ZN41AccModeSelectionTest_TC_ACC_MS_RA_09_TestC1Ev
FNDA:1,_ZN41AccModeSelectionTest_TC_ACC_MS_RA_09_TestC1Ev
FN:517,_ZN41AccModeSelectionTest_TC_ACC_MS_RA_09_TestD0Ev
FNDA:1,_ZN41AccModeSelectionTest_TC_ACC_MS_RA_09_TestD0Ev
FN:517,_ZN41AccModeSelectionTest_TC_ACC_MS_RA_09_TestD1Ev
FNDA:1,_ZN41AccModeSelectionTest_TC_ACC_MS_RA_09_TestD1Ev
FN:526,_ZN41AccModeSelectionTest_TC_ACC_MS_RA_10_Test8TestBodyEv
FNDA:1,_ZN41AccModeSelectionTest_TC_ACC_MS_RA_10_Test8TestBodyEv
FN:526,_ZN41AccModeSelectionTest_TC_ACC_MS_RA_10_TestC1Ev
FNDA:1,_ZN41AccModeSelectionTest_TC_ACC_MS_RA_10_TestC1Ev
FN:526,_ZN41AccModeSelectionTest_TC_ACC_MS_RA_10_TestD0Ev
FNDA:1,_ZN41AccModeSelectionTest_TC_ACC_MS_RA_10_TestD0Ev
FN:526,_ZN41AccModeSelectionTest_TC_ACC_MS_RA_10_TestD1Ev
FNDA:1,_ZN41AccModeSelectionTest_TC_ACC_MS_RA_10_TestD1Ev
FN:536,_ZN41AccModeSelectionTest_TC_ACC_MS_RA_11_TestC1Ev
FNDA:1,_ZN41AccModeSelectionTest_TC_ACC_MS_RA_11_TestC1Ev
FN:536,_ZN41AccModeSelectionTest_TC_ACC_MS_RA_11_TestD0Ev
FNDA:1,_ZN41AccModeSelectionTest_TC_ACC_MS_RA_11_TestD0Ev
FN:536,_ZN41AccModeSelectionTest_TC_ACC_MS_RA_11_Test8TestBodyEv
FNDA:1,_ZN41AccModeSelectionTest_TC_ACC_MS_RA_11_Test8TestBodyEv
FN:536,_ZN41AccModeSelectionTest_TC_ACC_MS_RA_11_TestD1Ev
FNDA:1,_ZN41AccModeSelectionTest_TC_ACC_MS_RA_11_TestD1Ev
FN:545,_ZN41AccModeSelectionTest_TC_ACC_MS_RA_12_TestD0Ev
FNDA:1,_ZN41AccModeSelectionTest_TC_ACC_MS_RA_12_TestD0Ev
FN:545,_ZN41AccModeSelectionTest_TC_ACC_MS_RA_12_TestD1Ev
FNDA:1,_ZN41AccModeSelectionTest_TC_ACC_MS_RA_12_TestD1Ev
FN:545,_ZN41AccModeSelectionTest_TC_ACC_MS_RA_12_Test8TestBodyEv
FNDA:1,_ZN41AccModeSelectionTest_TC_ACC_MS_RA_12_Test8TestBodyEv
FN:545,_ZN41AccModeSelectionTest_TC_ACC_MS_RA_12_TestC1Ev
FNDA:1,_ZN41AccModeSelectionTest_TC_ACC_MS_RA_12_TestC1Ev
FN:554,_ZN41AccModeSelectionTest_TC_ACC_MS_RA_13_TestD0Ev
FNDA:1,_ZN41AccModeSelectionTest_TC_ACC_MS_RA_13_TestD0Ev
FN:554,_ZN41AccModeSelectionTest_TC_ACC_MS_RA_13_TestD1Ev
FNDA:1,_ZN41AccModeSelectionTest_TC_ACC_MS_RA_13_TestD1Ev
FN:554,_ZN41AccModeSelectionTest_TC_ACC_MS_RA_13_TestC1Ev
FNDA:1,_ZN41AccModeSelectionTest_TC_ACC_MS_RA_13_TestC1Ev
FN:554,_ZN41AccModeSelectionTest_TC_ACC_MS_RA_13_Test8TestBodyEv
FNDA:1,_ZN41AccModeSelectionTest_TC_ACC_MS_RA_13_Test8TestBodyEv
FN:564,_ZN41AccModeSelectionTest_TC_ACC_MS_RA_14_TestD1Ev
FNDA:1,_ZN41AccModeSelectionTest_TC_ACC_MS_RA_14_TestD1Ev
FN:564,_ZN41AccModeSelectionTest_TC_ACC_MS_RA_14_TestC1Ev
FNDA:1,_ZN41AccModeSelectionTest_TC_ACC_MS_RA_14_TestC1Ev
FN:564,_ZN41AccModeSelectionTest_TC_ACC_MS_RA_14_Test8TestBodyEv
FNDA:1,_ZN41AccModeSelectionTest_TC_ACC_MS_RA_14_Test8TestBodyEv
FN:564,_ZN41AccModeSelectionTest_TC_ACC_MS_RA_14_TestD0Ev
FNDA:1,_ZN41AccModeSelectionTest_TC_ACC_MS_RA_14_TestD0Ev
FN:574,_ZN41AccModeSelectionTest_TC_ACC_MS_RA_15_TestD1Ev
FNDA:1,_ZN41AccModeSelectionTest_TC_ACC_MS_RA_15_TestD1Ev
FN:574,_ZN41AccModeSelectionTest_TC_ACC_MS_RA_15_TestD0Ev
FNDA:1,_ZN41AccModeSelectionTest_TC_ACC_MS_RA_15_TestD0Ev
FN:574,_ZN41AccModeSelectionTest_TC_ACC_MS_RA_15_TestC1Ev
FNDA:1,_ZN41AccModeSelectionTest_TC_ACC_MS_RA_15_TestC1Ev
FN:574,_ZN41AccModeSelectionTest_TC_ACC_MS_RA_15_Test8TestBodyEv
FNDA:1,_ZN41AccModeSelectionTest_TC_ACC_MS_RA_15_Test8TestBodyEv
FN:584,_ZN41AccModeSelectionTest_TC_ACC_MS_RA_16_Test8TestBodyEv
FNDA:1,_ZN41AccModeSelectionTest_TC_ACC_MS_RA_16_Test8TestBodyEv
FN:584,_ZN41AccModeSelectionTest_TC_ACC_MS_RA_16_TestD0Ev
FNDA:1,_ZN41AccModeSelectionTest_TC_ACC_MS_RA_16_TestD0Ev
FN:584,_ZN41AccModeSelectionTest_TC_ACC_MS_RA_16_TestD1Ev
FNDA:1,_ZN41AccModeSelectionTest_TC_ACC_MS_RA_16_TestD1Ev
FN:584,_ZN41AccModeSelectionTest_TC_ACC_MS_RA_16_TestC1Ev
FNDA:1,_ZN41AccModeSelectionTest_TC_ACC_MS_RA_16_TestC1Ev
FN:593,_ZN41AccModeSelectionTest_TC_ACC_MS_RA_17_TestC1Ev
FNDA:1,_ZN41AccModeSelectionTest_TC_ACC_MS_RA_17_TestC1Ev
FN:593,_ZN41AccModeSelectionTest_TC_ACC_MS_RA_17_TestD0Ev
FNDA:1,_ZN41AccModeSelectionTest_TC_ACC_MS_RA_17_TestD0Ev
FN:593,_ZN41AccModeSelectionTest_TC_ACC_MS_RA_17_Test8TestBodyEv
FNDA:1,_ZN41AccModeSelectionTest_TC_ACC_MS_RA_17_Test8TestBodyEv
FN:593,_ZN41AccModeSelectionTest_TC_ACC_MS_RA_17_TestD1Ev
FNDA:1,_ZN41AccModeSelectionTest_TC_ACC_MS_RA_17_TestD1Ev
FN:601,_ZN41AccModeSelectionTest_TC_ACC_MS_RA_18_TestC1Ev
FNDA:1,_ZN41AccModeSelectionTest_TC_ACC_MS_RA_18_TestC1Ev
FN:601,_ZN41AccModeSelectionTest_TC_ACC_MS_RA_18_Test8TestBodyEv
FNDA:1,_ZN41AccModeSelectionTest_TC_ACC_MS_RA_18_Test8TestBodyEv
FN:601,_ZN41AccModeSelectionTest_TC_ACC_MS_RA_18_TestD0Ev
FNDA:1,_ZN41AccModeSelectionTest_TC_ACC_MS_RA_18_TestD0Ev
FN:601,_ZN41AccModeSelectionTest_TC_ACC_MS_RA_18_TestD1Ev
FNDA:1,_ZN41AccModeSelectionTest_TC_ACC_MS_RA_18_TestD1Ev
FN:610,_ZN41AccModeSelectionTest_TC_ACC_MS_RA_19_TestC1Ev
FNDA:1,_ZN41AccModeSelectionTest_TC_ACC_MS_RA_19_TestC1Ev
FN:610,_ZN41AccModeSelectionTest_TC_ACC_MS_RA_19_Test8TestBodyEv
FNDA:1,_ZN41AccModeSelectionTest_TC_ACC_MS_RA_19_Test8TestBodyEv
FN:610,_ZN41AccModeSelectionTest_TC_ACC_MS_RA_19_TestD0Ev
FNDA:1,_ZN41AccModeSelectionTest_TC_ACC_MS_RA_19_TestD0Ev
FN:610,_ZN41AccModeSelectionTest_TC_ACC_MS_RA_19_TestD1Ev
FNDA:1,_ZN41AccModeSelectionTest_TC_ACC_MS_RA_19_TestD1Ev
FN:624,_ZN41AccModeSelectionTest_TC_ACC_MS_RA_20_TestD1Ev
FNDA:1,_ZN41AccModeSelectionTest_TC_ACC_MS_RA_20_TestD1Ev
FN:624,_ZN41AccModeSelectionTest_TC_ACC_MS_RA_20_TestC1Ev
FNDA:1,_ZN41AccModeSelectionTest_TC_ACC_MS_RA_20_TestC1Ev
FN:624,_ZN41AccModeSelectionTest_TC_ACC_MS_RA_20_Test8TestBodyEv
FNDA:1,_ZN41AccModeSelectionTest_TC_ACC_MS_RA_20_Test8TestBodyEv
FN:624,_ZN41AccModeSelectionTest_TC_ACC_MS_RA_20_TestD0Ev
FNDA:1,_ZN41AccModeSelectionTest_TC_ACC_MS_RA_20_TestD0Ev
FNF:241
FNH:241
DA:24,60
DA:27,60
DA:28,60
DA:29,60
DA:32,60
DA:33,60
DA:34,60
DA:35,60
DA:36,60
DA:39,60
DA:40,60
DA:43,60
DA:44,60
DA:45,60
DA:46,60
DA:47,60
DA:57,1
DA:57,1
DA:57,1
DA:57,1
DA:59,1
DA:61,1
DA:63,1
DA:64,1
DA:67,1
DA:67,1
DA:67,1
DA:67,1
DA:69,1
DA:70,1
DA:71,1
DA:73,1
DA:74,1
DA:75,1
DA:78,1
DA:78,1
DA:78,1
DA:78,1
DA:80,1
DA:81,1
DA:82,1
DA:83,1
DA:86,1
DA:86,1
DA:86,1
DA:86,1
DA:88,1
DA:89,1
DA:90,1
DA:91,1
DA:93,1
DA:94,1
DA:97,1
DA:97,1
DA:97,1
DA:97,1
DA:99,1
DA:100,1
DA:101,1
DA:102,1
DA:103,1
DA:104,1
DA:107,1
DA:107,1
DA:107,1
DA:107,1
DA:109,1
DA:110,1
DA:111,1
DA:112,1
DA:113,1
DA:116,1
DA:116,1
DA:116,1
DA:116,1
DA:118,1
DA:119,1
DA:120,1
DA:122,1
DA:123,1
DA:124,1
DA:127,1
DA:127,1
DA:127,1
DA:127,1
DA:129,1
DA:131,1
DA:132,1
DA:133,1
DA:136,1
DA:136,1
DA:136,1
DA:136,1
DA:138,1
DA:139,1
DA:140,1
DA:141,1
DA:142,1
DA:145,1
DA:145,1
DA:145,1
DA:145,1
DA:147,1
DA:148,1
DA:149,1
DA:150,1
DA:151,1
DA:154,1
DA:154,1
DA:154,1
DA:154,1
DA:156,1
DA:157,1
DA:159,1
DA:160,1
DA:161,1
DA:164,1
DA:164,1
DA:164,1
DA:164,1
DA:166,1
DA:168,1
DA:169,1
DA:170,1
DA:173,1
DA:173,1
DA:173,1
DA:173,1
DA:175,1
DA:176,1
DA:177,1
DA:178,1
DA:179,1
DA:180,1
DA:183,1
DA:183,1
DA:183,1
DA:183,1
DA:185,1
DA:186,1
DA:187,1
DA:188,1
DA:189,1
DA:190,1
DA:193,1
DA:193,1
DA:193,1
DA:193,1
DA:195,1
DA:197,1
DA:199,1
DA:200,1
DA:203,1
DA:203,1
DA:203,1
DA:203,1
DA:205,1
DA:207,1
DA:208,1
DA:209,1
DA:212,1
DA:212,1
DA:212,1
DA:212,1
DA:214,1
DA:216,1
DA:217,1
DA:218,1
DA:221,1
DA:221,1
DA:221,1
DA:221,1
DA:223,1
DA:224,1
DA:226,1
DA:227,1
DA:230,1
DA:230,1
DA:230,1
DA:230,1
DA:232,1
DA:234,1
DA:235,1
DA:236,1
DA:239,1
DA:239,1
DA:239,1
DA:239,1
DA:241,1
DA:242,1
DA:243,1
DA:244,1
DA:245,1
DA:246,1
DA:255,1
DA:255,1
DA:255,1
DA:255,1
DA:257,1
DA:258,1
DA:259,1
DA:260,1
DA:263,1
DA:263,1
DA:263,1
DA:263,1
DA:265,1
DA:268,1
DA:270,1
DA:271,1
DA:274,1
DA:274,1
DA:274,1
DA:274,1
DA:276,1
DA:277,1
DA:279,1
DA:280,1
DA:283,1
DA:283,1
DA:283,1
DA:283,1
DA:285,1
DA:287,1
DA:288,1
DA:289,1
DA:292,1
DA:292,1
DA:292,1
DA:292,1
DA:294,1
DA:295,1
DA:297,1
DA:298,1
DA:301,1
DA:301,1
DA:301,1
DA:301,1
DA:303,1
DA:304,1
DA:305,1
DA:306,1
DA:309,1
DA:309,1
DA:309,1
DA:309,1
DA:311,1
DA:313,1
DA:314,1
DA:316,1
DA:317,1
DA:318,1
DA:321,1
DA:321,1
DA:321,1
DA:321,1
DA:323,1
DA:326,1
DA:327,1
DA:328,1
DA:329,1
DA:330,1
DA:333,1
DA:333,1
DA:333,1
DA:333,1
DA:335,1
DA:336,1
DA:337,1
DA:339,1
DA:340,1
DA:341,1
DA:344,1
DA:344,1
DA:344,1
DA:344,1
DA:346,1
DA:348,1
DA:349,1
DA:350,1
DA:353,1
DA:353,1
DA:353,1
DA:353,1
DA:355,1
DA:357,1
DA:359,1
DA:360,1
DA:363,1
DA:363,1
DA:363,1
DA:363,1
DA:365,1
DA:367,1
DA:368,1
DA:369,1
DA:372,1
DA:372,1
DA:372,1
DA:372,1
DA:374,1
DA:376,1
DA:377,1
DA:378,1
DA:381,1
DA:381,1
DA:381,1
DA:381,1
DA:383,1
DA:385,1
DA:386,1
DA:387,1
DA:390,1
DA:390,1
DA:390,1
DA:390,1
DA:392,1
DA:393,1
DA:395,1
DA:396,1
DA:399,1
DA:399,1
DA:399,1
DA:399,1
DA:401,1
DA:403,1
DA:404,1
DA:405,1
DA:408,1
DA:408,1
DA:408,1
DA:408,1
DA:410,1
DA:411,1
DA:412,1
DA:413,1
DA:416,1
DA:416,1
DA:416,1
DA:416,1
DA:418,1
DA:419,1
DA:420,1
DA:421,1
DA:424,1
DA:424,1
DA:424,1
DA:424,1
DA:426,1
DA:427,1
DA:428,1
DA:429,1
DA:430,1
DA:433,1
DA:433,1
DA:433,1
DA:433,1
DA:435,1
DA:436,1
DA:438,1
DA:439,1
DA:440,1
DA:449,1
DA:449,1
DA:449,1
DA:449,1
DA:451,1
DA:452,1
DA:453,1
DA:454,1
DA:457,1
DA:457,1
DA:457,1
DA:457,1
DA:459,1
DA:460,1
DA:461,1
DA:462,1
DA:465,1
DA:465,1
DA:465,1
DA:465,1
DA:467,1
DA:468,1
DA:469,1
DA:470,1
DA:473,1
DA:473,1
DA:473,1
DA:473,1
DA:475,1
DA:476,1
DA:477,1
DA:478,1
DA:481,1
DA:481,1
DA:481,1
DA:481,1
DA:483,1
DA:484,1
DA:485,1
DA:486,1
DA:487,1
DA:488,1
DA:491,1
DA:491,1
DA:491,1
DA:491,1
DA:493,1
DA:494,1
DA:495,1
DA:496,1
DA:497,1
DA:498,1
DA:501,1
DA:501,1
DA:501,1
DA:501,1
DA:503,1
DA:504,1
DA:505,1
DA:506,1
DA:509,1
DA:509,1
DA:509,1
DA:509,1
DA:511,1
DA:512,1
DA:513,1
DA:514,1
DA:517,1
DA:517,1
DA:517,1
DA:517,1
DA:519,1
DA:520,1
DA:522,1
DA:523,1
DA:526,1
DA:526,1
DA:526,1
DA:526,1
DA:528,1
DA:529,1
DA:530,1
DA:532,1
DA:533,1
DA:536,1
DA:536,1
DA:536,1
DA:536,1
DA:538,1
DA:539,1
DA:540,1
DA:541,1
DA:542,1
DA:545,1
DA:545,1
DA:545,1
DA:545,1
DA:547,1
DA:548,1
DA:549,1
DA:550,1
DA:551,1
DA:554,1
DA:554,1
DA:554,1
DA:554,1
DA:556,1
DA:557,1
DA:558,1
DA:559,1
DA:560,1
DA:561,1
DA:564,1
DA:564,1
DA:564,1
DA:564,1
DA:566,1
DA:567,1
DA:568,1
DA:569,1
DA:570,1
DA:571,1
DA:574,1
DA:574,1
DA:574,1
DA:574,1
DA:576,1
DA:577,1
DA:578,1
DA:579,1
DA:580,1
DA:581,1
DA:584,1
DA:584,1
DA:584,1
DA:584,1
DA:586,1
DA:588,1
DA:589,1
DA:590,1
DA:593,1
DA:593,1
DA:593,1
DA:593,1
DA:595,1
DA:596,1
DA:597,1
DA:598,1
DA:601,1
DA:601,1
DA:601,1
DA:601,1
DA:603,1
DA:605,1
DA:606,1
DA:607,1
DA:610,1
DA:610,1
DA:610,1
DA:610,1
DA:612,1
DA:613,1
DA:619,1
DA:620,1
DA:621,1
DA:624,1
DA:624,1
DA:624,1
DA:624,1
DA:627,1
DA:628,1
DA:629,1
LF:535
LH:535
end_of_record
SF:C:/msys64/mingw64/include/c++/14.2.0/bits/basic_string.tcc
FN:221,_ZNSt7__cxx1112basic_stringIcSt11char_traitsIcESaIcEE12_M_constructIPKcEEvT_S8_St20forward_iterator_tag
FNDA:0,_ZNSt7__cxx1112basic_stringIcSt11char_traitsIcESaIcEE12_M_constructIPKcEEvT_S8_St20forward_iterator_tag
FN:239,_ZZNSt7__cxx1112basic_stringIcSt11char_traitsIcESaIcEE12_M_constructIPKcEEvT_S8_St20forward_iterator_tagEN6_GuardC1EPS4_
FNDA:0,_ZZNSt7__cxx1112basic_stringIcSt11char_traitsIcESaIcEE12_M_constructIPKcEEvT_S8_St20forward_iterator_tagEN6_GuardC1EPS4_
FN:242,_ZZNSt7__cxx1112basic_stringIcSt11char_traitsIcESaIcEE12_M_constructIPKcEEvT_S8_St20forward_iterator_tagEN6_GuardD1Ev
FNDA:0,_ZZNSt7__cxx1112basic_stringIcSt11char_traitsIcESaIcEE12_M_constructIPKcEEvT_S8_St20forward_iterator_tagEN6_GuardD1Ev
FNF:3
FNH:0
DA:221,0
DA:225,0
DA:227,0
DA:229,0
DA:230,0
DA:239,0
DA:242,0
DA:245,0
DA:247,0
DA:249,0
DA:251,0
DA:252,0
LF:12
LH:0
end_of_record
SF:C:/Projects/GoogleTestProject/googletest/googletest/include/gtest/internal/gtest-port.h
FN:1082,_ZN7testing8internal8GTestLog9GetStreamEv
FNDA:0,_ZN7testing8internal8GTestLog9GetStreamEv
FNF:1
FNH:0
DA:1082,0
LF:1
LH:0
end_of_record
SF:C:/msys64/mingw64/include/c++/14.2.0/bits/unique_ptr.h
FN:87,_ZNKSt14default_deleteINSt7__cxx1112basic_stringIcSt11char_traitsIcESaIcEEEEclEPS5_
FNDA:0,_ZNKSt14default_deleteINSt7__cxx1112basic_stringIcSt11char_traitsIcESaIcEEEEclEPS5_
FN:87,_ZNKSt14default_deleteINSt7__cxx1118basic_stringstreamIcSt11char_traitsIcESaIcEEEEclEPS5_
FNDA:0,_ZNKSt14default_deleteINSt7__cxx1118basic_stringstreamIcSt11char_traitsIcESaIcEEEEclEPS5_
FN:191,_ZNSt15__uniq_ptr_implINSt7__cxx1112basic_stringIcSt11char_traitsIcESaIcEEESt14default_deleteIS5_EE6_M_ptrEv
FNDA:0,_ZNSt15__uniq_ptr_implINSt7__cxx1112basic_stringIcSt11char_traitsIcESaIcEEESt14default_deleteIS5_EE6_M_ptrEv
FN:191,_ZNSt15__uniq_ptr_implINSt7__cxx1118basic_stringstreamIcSt11char_traitsIcESaIcEEESt14default_deleteIS5_EE6_M_ptrEv
FNDA:0,_ZNSt15__uniq_ptr_implINSt7__cxx1118basic_stringstreamIcSt11char_traitsIcESaIcEEESt14default_deleteIS5_EE6_M_ptrEv
FN:193,_ZNKSt15__uniq_ptr_implINSt7__cxx1112basic_stringIcSt11char_traitsIcESaIcEEESt14default_deleteIS5_EE6_M_ptrEv
FNDA:0,_ZNKSt15__uniq_ptr_implINSt7__cxx1112basic_stringIcSt11char_traitsIcESaIcEEESt14default_deleteIS5_EE6_M_ptrEv
FN:195,_ZNSt15__uniq_ptr_implINSt7__cxx1118basic_stringstreamIcSt11char_traitsIcESaIcEEESt14default_deleteIS5_EE10_M_deleterEv
FNDA:0,_ZNSt15__uniq_ptr_implINSt7__cxx1118basic_stringstreamIcSt11char_traitsIcESaIcEEESt14default_deleteIS5_EE10_M_deleterEv
FN:195,_ZNSt15__uniq_ptr_implINSt7__cxx1112basic_stringIcSt11char_traitsIcESaIcEEESt14default_deleteIS5_EE10_M_deleterEv
FNDA:0,_ZNSt15__uniq_ptr_implINSt7__cxx1112basic_stringIcSt11char_traitsIcESaIcEEESt14default_deleteIS5_EE10_M_deleterEv
FN:392,_ZNSt10unique_ptrINSt7__cxx1112basic_stringIcSt11char_traitsIcESaIcEEESt14default_deleteIS5_EED1Ev
FNDA:0,_ZNSt10unique_ptrINSt7__cxx1112basic_stringIcSt11char_traitsIcESaIcEEESt14default_deleteIS5_EED1Ev
FN:392,_ZNSt10unique_ptrINSt7__cxx1118basic_stringstreamIcSt11char_traitsIcESaIcEEESt14default_deleteIS5_EED1Ev
FNDA:0,_ZNSt10unique_ptrINSt7__cxx1118basic_stringstreamIcSt11char_traitsIcESaIcEEESt14default_deleteIS5_EED1Ev
FN:454,_ZNKSt10unique_ptrINSt7__cxx1112basic_stringIcSt11char_traitsIcESaIcEEESt14default_deleteIS5_EEptEv
FNDA:0,_ZNKSt10unique_ptrINSt7__cxx1112basic_stringIcSt11char_traitsIcESaIcEEESt14default_deleteIS5_EEptEv
FN:463,_ZNKSt10unique_ptrINSt7__cxx1112basic_stringIcSt11char_traitsIcESaIcEEESt14default_deleteIS5_EE3getEv
FNDA:0,_ZNKSt10unique_ptrINSt7__cxx1112basic_stringIcSt11char_traitsIcESaIcEEESt14default_deleteIS5_EE3getEv
FN:469,_ZNSt10unique_ptrINSt7__cxx1112basic_stringIcSt11char_traitsIcESaIcEEESt14default_deleteIS5_EE11get_deleterEv
FNDA:0,_ZNSt10unique_ptrINSt7__cxx1112basic_stringIcSt11char_traitsIcESaIcEEESt14default_deleteIS5_EE11get_deleterEv
FN:469,_ZNSt10unique_ptrINSt7__cxx1118basic_stringstreamIcSt11char_traitsIcESaIcEEESt14default_deleteIS5_EE11get_deleterEv
FNDA:0,_ZNSt10unique_ptrINSt7__cxx1118basic_stringstreamIcSt11char_traitsIcESaIcEEESt14default_deleteIS5_EE11get_deleterEv
FN:480,_ZNKSt10unique_ptrINSt7__cxx1112basic_stringIcSt11char_traitsIcESaIcEEESt14default_deleteIS5_EEcvbEv
FNDA:0,_ZNKSt10unique_ptrINSt7__cxx1112basic_stringIcSt11char_traitsIcESaIcEEESt14default_deleteIS5_EEcvbEv
FN:869,_ZStneINSt7__cxx1112basic_stringIcSt11char_traitsIcESaIcEEESt14default_deleteIS5_EEbRKSt10unique_ptrIT_T0_EDn
FNDA:0,_ZStneINSt7__cxx1112basic_stringIcSt11char_traitsIcESaIcEEESt14default_deleteIS5_EEbRKSt10unique_ptrIT_T0_EDn
FNF:15
FNH:0
DA:87,0
DA:93,0
DA:94,0
DA:87,0
DA:93,0
DA:94,0
DA:191,0
DA:191,0
DA:193,0
DA:195,0
DA:195,0
DA:392,0
DA:396,0
DA:397,0
DA:398,0
DA:399,0
DA:400,0
DA:392,0
DA:396,0
DA:397,0
DA:398,0
DA:399,0
DA:400,0
DA:454,0
DA:457,0
DA:463,0
DA:464,0
DA:469,0
DA:470,0
DA:469,0
DA:470,0
DA:480,0
DA:481,0
DA:869,0
DA:870,0
LF:35
LH:0
end_of_record
SF:C:/msys64/mingw64/include/c++/14.2.0/bits/move.h
FN:126,_ZSt4moveIRPNSt7__cxx1112basic_stringIcSt11char_traitsIcESaIcEEEEONSt16remove_referenceIT_E4typeEOS9_
FNDA:0,_ZSt4moveIRPNSt7__cxx1112basic_stringIcSt11char_traitsIcESaIcEEEEONSt16remove_referenceIT_E4typeEOS9_
FN:126,_ZSt4moveIRPNSt7__cxx1118basic_stringstreamIcSt11char_traitsIcESaIcEEEEONSt16remove_referenceIT_E4typeEOS9_
FNDA:0,_ZSt4moveIRPNSt7__cxx1118basic_stringstreamIcSt11char_traitsIcESaIcEEEEONSt16remove_referenceIT_E4typeEOS9_
FN:126,_ZSt4moveIRSaIcEEONSt16remove_referenceIT_E4typeEOS3_
FNDA:0,_ZSt4moveIRSaIcEEONSt16remove_referenceIT_E4typeEOS3_
FN:126,_ZSt4moveIRNSt7__cxx1112basic_stringIcSt11char_traitsIcESaIcEEEEONSt16remove_referenceIT_E4typeEOS8_
FNDA:0,_ZSt4moveIRNSt7__cxx1112basic_stringIcSt11char_traitsIcESaIcEEEEONSt16remove_referenceIT_E4typeEOS8_
FNF:4
FNH:0
DA:126,0
DA:127,0
DA:126,0
DA:127,0
DA:126,0
DA:127,0
DA:126,0
DA:127,0
LF:8
LH:0
end_of_record
SF:C:/msys64/mingw64/include/c++/14.2.0/bits/stl_iterator_base_funcs.h
DA:106,0
DA:151,0
DA:152,0
LF:3
LH:0
end_of_record
SF:C:/msys64/mingw64/include/c++/14.2.0/x86_64-w64-mingw32/bits/c++config.h
DA:550,0
LF:1
LH:0
end_of_record
SF:C:/Projects/GoogleTestProject/googletest/googletest/include/gtest/internal/gtest-internal.h
FN:418,_ZN7testing8internal9GetTypeIdI20AccModeSelectionTestEEPKvv
FNDA:120,_ZN7testing8internal9GetTypeIdI20AccModeSelectionTestEEPKvv
FN:437,_ZN7testing8internal15TestFactoryBaseD2Ev
FNDA:0,_ZN7testing8internal15TestFactoryBaseD2Ev
FN:444,_ZN7testing8internal15TestFactoryBaseC2Ev
FNDA:0,_ZN7testing8internal15TestFactoryBaseC2Ev
FN:456,_ZN7testing8internal15TestFactoryImplI41AccModeSelectionTest_TC_ACC_MS_RA_06_TestE10CreateTestEv
FNDA:1,_ZN7testing8internal15TestFactoryImplI41AccModeSelectionTest_TC_ACC_MS_RA_06_TestE10CreateTestEv
FN:456,_ZN7testing8internal15TestFactoryImplI41AccModeSelectionTest_TC_ACC_MS_BV_13_TestE10CreateTestEv
FNDA:1,_ZN7testing8internal15TestFactoryImplI41AccModeSelectionTest_TC_ACC_MS_BV_13_TestE10CreateTestEv
FN:456,_ZN7testing8internal15TestFactoryImplI41AccModeSelectionTest_TC_ACC_MS_RA_05_TestE10CreateTestEv
FNDA:1,_ZN7testing8internal15TestFactoryImplI41AccModeSelectionTest_TC_ACC_MS_RA_05_TestE10CreateTestEv
FN:456,_ZN7testing8internal15TestFactoryImplI41AccModeSelectionTest_TC_ACC_MS_RA_04_TestE10CreateTestEv
FNDA:1,_ZN7testing8internal15TestFactoryImplI41AccModeSelectionTest_TC_ACC_MS_RA_04_TestE10CreateTestEv
FN:456,_ZN7testing8internal15TestFactoryImplI41AccModeSelectionTest_TC_ACC_MS_RA_03_TestE10CreateTestEv
FNDA:1,_ZN7testing8internal15TestFactoryImplI41AccModeSelectionTest_TC_ACC_MS_RA_03_TestE10CreateTestEv
FN:456,_ZN7testing8internal15TestFactoryImplI41AccModeSelectionTest_TC_ACC_MS_RA_02_TestE10CreateTestEv
FNDA:1,_ZN7testing8internal15TestFactoryImplI41AccModeSelectionTest_TC_ACC_MS_RA_02_TestE10CreateTestEv
FN:456,_ZN7testing8internal15TestFactoryImplI41AccModeSelectionTest_TC_ACC_MS_RA_01_TestE10CreateTestEv
FNDA:1,_ZN7testing8internal15TestFactoryImplI41AccModeSelectionTest_TC_ACC_MS_RA_01_TestE10CreateTestEv
FN:456,_ZN7testing8internal15TestFactoryImplI41AccModeSelectionTest_TC_ACC_MS_BV_20_TestE10CreateTestEv
FNDA:1,_ZN7testing8internal15TestFactoryImplI41AccModeSelectionTest_TC_ACC_MS_BV_20_TestE10CreateTestEv
FN:456,_ZN7testing8internal15TestFactoryImplI41AccModeSelectionTest_TC_ACC_MS_BV_19_TestE10CreateTestEv
FNDA:1,_ZN7testing8internal15TestFactoryImplI41AccModeSelectionTest_TC_ACC_MS_BV_19_TestE10CreateTestEv
FN:456,_ZN7testing8internal15TestFactoryImplI41AccModeSelectionTest_TC_ACC_MS_BV_18_TestE10CreateTestEv
FNDA:1,_ZN7testing8internal15TestFactoryImplI41AccModeSelectionTest_TC_ACC_MS_BV_18_TestE10CreateTestEv
FN:456,_ZN7testing8internal15TestFactoryImplI41AccModeSelectionTest_TC_ACC_MS_BV_17_TestE10CreateTestEv
FNDA:1,_ZN7testing8internal15TestFactoryImplI41AccModeSelectionTest_TC_ACC_MS_BV_17_TestE10CreateTestEv
FN:456,_ZN7testing8internal15TestFactoryImplI41AccModeSelectionTest_TC_ACC_MS_BV_16_TestE10CreateTestEv
FNDA:1,_ZN7testing8internal15TestFactoryImplI41AccModeSelectionTest_TC_ACC_MS_BV_16_TestE10CreateTestEv
FN:456,_ZN7testing8internal15TestFactoryImplI41AccModeSelectionTest_TC_ACC_MS_BV_15_TestE10CreateTestEv
FNDA:1,_ZN7testing8internal15TestFactoryImplI41AccModeSelectionTest_TC_ACC_MS_BV_15_TestE10CreateTestEv
FN:456,_ZN7testing8internal15TestFactoryImplI41AccModeSelectionTest_TC_ACC_MS_EQ_01_TestE10CreateTestEv
FNDA:1,_ZN7testing8internal15TestFactoryImplI41AccModeSelectionTest_TC_ACC_MS_EQ_01_TestE10CreateTestEv
FN:456,_ZN7testing8internal15TestFactoryImplI41AccModeSelectionTest_TC_ACC_MS_BV_14_TestE10CreateTestEv
FNDA:1,_ZN7testing8internal15TestFactoryImplI41AccModeSelectionTest_TC_ACC_MS_BV_14_TestE10CreateTestEv
FN:456,_ZN7testing8internal15TestFactoryImplI41AccModeSelectionTest_TC_ACC_MS_RA_07_TestE10CreateTestEv
FNDA:1,_ZN7testing8internal15TestFactoryImplI41AccModeSelectionTest_TC_ACC_MS_RA_07_TestE10CreateTestEv
FN:456,_ZN7testing8internal15TestFactoryImplI41AccModeSelectionTest_TC_ACC_MS_RA_08_TestE10CreateTestEv
FNDA:1,_ZN7testing8internal15TestFactoryImplI41AccModeSelectionTest_TC_ACC_MS_RA_08_TestE10CreateTestEv
FN:456,_ZN7testing8internal15TestFactoryImplI41AccModeSelectionTest_TC_ACC_MS_RA_09_TestE10CreateTestEv
FNDA:1,_ZN7testing8internal15TestFactoryImplI41AccModeSelectionTest_TC_ACC_MS_RA_09_TestE10CreateTestEv
FN:456,_ZN7testing8internal15TestFactoryImplI41AccModeSelectionTest_TC_ACC_MS_RA_10_TestE10CreateTestEv
FNDA:1,_ZN7testing8internal15TestFactoryImplI41AccModeSelectionTest_TC_ACC_MS_RA_10_TestE10CreateTestEv
FN:456,_ZN7testing8internal15TestFactoryImplI41AccModeSelectionTest_TC_ACC_MS_RA_11_TestE10CreateTestEv
FNDA:1,_ZN7testing8internal15TestFactoryImplI41AccModeSelectionTest_TC_ACC_MS_RA_11_TestE10CreateTestEv
FN:456,_ZN7testing8internal15TestFactoryImplI41AccModeSelectionTest_TC_ACC_MS_RA_12_TestE10CreateTestEv
FNDA:1,_ZN7testing8internal15TestFactoryImplI41AccModeSelectionTest_TC_ACC_MS_RA_12_TestE10CreateTestEv
FN:456,_ZN7testing8internal15TestFactoryImplI41AccModeSelectionTest_TC_ACC_MS_RA_13_TestE10CreateTestEv
FNDA:1,_ZN7testing8internal15TestFactoryImplI41AccModeSelectionTest_TC_ACC_MS_RA_13_TestE10CreateTestEv
FN:456,_ZN7testing8internal15TestFactoryImplI41AccModeSelectionTest_TC_ACC_MS_RA_14_TestE10CreateTestEv
FNDA:1,_ZN7testing8internal15TestFactoryImplI41AccModeSelectionTest_TC_ACC_MS_RA_14_TestE10CreateTestEv
FN:456,_ZN7testing8internal15TestFactoryImplI41AccModeSelectionTest_TC_ACC_MS_RA_15_TestE10CreateTestEv
FNDA:1,_ZN7testing8internal15TestFactoryImplI41AccModeSelectionTest_TC_ACC_MS_RA_15_TestE10CreateTestEv
FN:456,_ZN7testing8internal15TestFactoryImplI41AccModeSelectionTest_TC_ACC_MS_RA_16_TestE10CreateTestEv
FNDA:1,_ZN7testing8internal15TestFactoryImplI41AccModeSelectionTest_TC_ACC_MS_RA_16_TestE10CreateTestEv
FN:456,_ZN7testing8internal15TestFactoryImplI41AccModeSelectionTest_TC_ACC_MS_RA_17_TestE10CreateTestEv
FNDA:1,_ZN7testing8internal15TestFactoryImplI41AccModeSelectionTest_TC_ACC_MS_RA_17_TestE10CreateTestEv
FN:456,_ZN7testing8internal15TestFactoryImplI41AccModeSelectionTest_TC_ACC_MS_RA_18_TestE10CreateTestEv
FNDA:1,_ZN7testing8internal15TestFactoryImplI41AccModeSelectionTest_TC_ACC_MS_RA_18_TestE10CreateTestEv
FN:456,_ZN7testing8internal15TestFactoryImplI41AccModeSelectionTest_TC_ACC_MS_RA_19_TestE10CreateTestEv
FNDA:1,_ZN7testing8internal15TestFactoryImplI41AccModeSelectionTest_TC_ACC_MS_RA_19_TestE10CreateTestEv
FN:456,_ZN7testing8internal15TestFactoryImplI41AccModeSelectionTest_TC_ACC_MS_RA_20_TestE10CreateTestEv
FNDA:1,_ZN7testing8internal15TestFactoryImplI41AccModeSelectionTest_TC_ACC_MS_RA_20_TestE10CreateTestEv
FN:456,_ZN7testing8internal15TestFactoryImplI41AccModeSelectionTest_TC_ACC_MS_EQ_15_TestE10CreateTestEv
FNDA:1,_ZN7testing8internal15TestFactoryImplI41AccModeSelectionTest_TC_ACC_MS_EQ_15_TestE10CreateTestEv
FN:456,_ZN7testing8internal15TestFactoryImplI41AccModeSelectionTest_TC_ACC_MS_EQ_02_TestE10CreateTestEv
FNDA:1,_ZN7testing8internal15TestFactoryImplI41AccModeSelectionTest_TC_ACC_MS_EQ_02_TestE10CreateTestEv
FN:456,_ZN7testing8internal15TestFactoryImplI41AccModeSelectionTest_TC_ACC_MS_EQ_03_TestE10CreateTestEv
FNDA:1,_ZN7testing8internal15TestFactoryImplI41AccModeSelectionTest_TC_ACC_MS_EQ_03_TestE10CreateTestEv
FN:456,_ZN7testing8internal15TestFactoryImplI41AccModeSelectionTest_TC_ACC_MS_EQ_04_TestE10CreateTestEv
FNDA:1,_ZN7testing8internal15TestFactoryImplI41AccModeSelectionTest_TC_ACC_MS_EQ_04_TestE10CreateTestEv
FN:456,_ZN7testing8internal15TestFactoryImplI41AccModeSelectionTest_TC_ACC_MS_EQ_05_TestE10CreateTestEv
FNDA:1,_ZN7testing8internal15TestFactoryImplI41AccModeSelectionTest_TC_ACC_MS_EQ_05_TestE10CreateTestEv
FN:456,_ZN7testing8internal15TestFactoryImplI41AccModeSelectionTest_TC_ACC_MS_EQ_06_TestE10CreateTestEv
FNDA:1,_ZN7testing8internal15TestFactoryImplI41AccModeSelectionTest_TC_ACC_MS_EQ_06_TestE10CreateTestEv
FN:456,_ZN7testing8internal15TestFactoryImplI41AccModeSelectionTest_TC_ACC_MS_EQ_07_TestE10CreateTestEv
FNDA:1,_ZN7testing8internal15TestFactoryImplI41AccModeSelectionTest_TC_ACC_MS_EQ_07_TestE10CreateTestEv
FN:456,_ZN7testing8internal15TestFactoryImplI41AccModeSelectionTest_TC_ACC_MS_EQ_08_TestE10CreateTestEv
FNDA:1,_ZN7testing8internal15TestFactoryImplI41AccModeSelectionTest_TC_ACC_MS_EQ_08_TestE10CreateTestEv
FN:456,_ZN7testing8internal15TestFactoryImplI41AccModeSelectionTest_TC_ACC_MS_EQ_09_TestE10CreateTestEv
FNDA:1,_ZN7testing8internal15TestFactoryImplI41AccModeSelectionTest_TC_ACC_MS_EQ_09_TestE10CreateTestEv
FN:456,_ZN7testing8internal15TestFactoryImplI41AccModeSelectionTest_TC_ACC_MS_EQ_10_TestE10CreateTestEv
FNDA:1,_ZN7testing8internal15TestFactoryImplI41AccModeSelectionTest_TC_ACC_MS_EQ_10_TestE10CreateTestEv
FN:456,_ZN7testing8internal15TestFactoryImplI41AccModeSelectionTest_TC_ACC_MS_EQ_11_TestE10CreateTestEv
FNDA:1,_ZN7testing8internal15TestFactoryImplI41AccModeSelectionTest_TC_ACC_MS_EQ_11_TestE10CreateTestEv
FN:456,_ZN7testing8internal15TestFactoryImplI41AccModeSelectionTest_TC_ACC_MS_EQ_12_TestE10CreateTestEv
FNDA:1,_ZN7testing8internal15TestFactoryImplI41AccModeSelectionTest_TC_ACC_MS_EQ_12_TestE10CreateTestEv
FN:456,_ZN7testing8internal15TestFactoryImplI41AccModeSelectionTest_TC_ACC_MS_EQ_13_TestE10CreateTestEv
FNDA:1,_ZN7testing8internal15TestFactoryImplI41AccModeSelectionTest_TC_ACC_MS_EQ_13_TestE10CreateTestEv
FN:456,_ZN7testing8internal15TestFactoryImplI41AccModeSelectionTest_TC_ACC_MS_EQ_14_TestE10CreateTestEv
FNDA:1,_ZN7testing8internal15TestFactoryImplI41AccModeSelectionTest_TC_ACC_MS_EQ_14_TestE10CreateTestEv
FN:456,_ZN7testing8internal15TestFactoryImplI41AccModeSelectionTest_TC_ACC_MS_BV_12_TestE10CreateTestEv
FNDA:1,_ZN7testing8internal15TestFactoryImplI41AccModeSelectionTest_TC_ACC_MS_BV_12_TestE10CreateTestEv
FN:456,_ZN7testing8internal15TestFactoryImplI41AccModeSelectionTest_TC_ACC_MS_EQ_16_TestE10CreateTestEv
FNDA:1,_ZN7testing8internal15TestFactoryImplI41AccModeSelectionTest_TC_ACC_MS_EQ_16_TestE10CreateTestEv
FN:456,_ZN7testing8internal15TestFactoryImplI41AccModeSelectionTest_TC_ACC_MS_BV_06_TestE10CreateTestEv
FNDA:1,_ZN7testing8internal15TestFactoryImplI41AccModeSelectionTest_TC_ACC_MS_BV_06_TestE10CreateTestEv
FN:456,_ZN7testing8internal15TestFactoryImplI41AccModeSelectionTest_TC_ACC_MS_BV_11_TestE10CreateTestEv
FNDA:1,_ZN7testing8internal15TestFactoryImplI41AccModeSelectionTest_TC_ACC_MS_BV_11_TestE10CreateTestEv
FN:456,_ZN7testing8internal15TestFactoryImplI41AccModeSelectionTest_TC_ACC_MS_BV_10_TestE10CreateTestEv
FNDA:1,_ZN7testing8internal15TestFactoryImplI41AccModeSelectionTest_TC_ACC_MS_BV_10_TestE10CreateTestEv
FN:456,_ZN7testing8internal15TestFactoryImplI41AccModeSelectionTest_TC_ACC_MS_BV_09_TestE10CreateTestEv
FNDA:1,_ZN7testing8internal15TestFactoryImplI41AccModeSelectionTest_TC_ACC_MS_BV_09_TestE10CreateTestEv
FN:456,_ZN7testing8internal15TestFactoryImplI41AccModeSelectionTest_TC_ACC_MS_BV_08_TestE10CreateTestEv
FNDA:1,_ZN7testing8internal15TestFactoryImplI41AccModeSelectionTest_TC_ACC_MS_BV_08_TestE10CreateTestEv
FN:456,_ZN7testing8internal15TestFactoryImplI41AccModeSelectionTest_TC_ACC_MS_BV_07_TestE10CreateTestEv
FNDA:1,_ZN7testing8internal15TestFactoryImplI41AccModeSelectionTest_TC_ACC_MS_BV_07_TestE10CreateTestEv
FN:456,_ZN7testing8internal15TestFactoryImplI41AccModeSelectionTest_TC_ACC_MS_EQ_17_TestE10CreateTestEv
FNDA:1,_ZN7testing8internal15TestFactoryImplI41AccModeSelectionTest_TC_ACC_MS_EQ_17_TestE10CreateTestEv
FN:456,_ZN7testing8internal15TestFactoryImplI41AccModeSelectionTest_TC_ACC_MS_BV_05_TestE10CreateTestEv
FNDA:1,_ZN7testing8internal15TestFactoryImplI41AccModeSelectionTest_TC_ACC_MS_BV_05_TestE10CreateTestEv
FN:456,_ZN7testing8internal15TestFactoryImplI41AccModeSelectionTest_TC_ACC_MS_BV_04_TestE10CreateTestEv
FNDA:1,_ZN7testing8internal15TestFactoryImplI41AccModeSelectionTest_TC_ACC_MS_BV_04_TestE10CreateTestEv
FN:456,_ZN7testing8internal15TestFactoryImplI41AccModeSelectionTest_TC_ACC_MS_BV_03_TestE10CreateTestEv
FNDA:1,_ZN7testing8internal15TestFactoryImplI41AccModeSelectionTest_TC_ACC_MS_BV_03_TestE10CreateTestEv
FN:456,_ZN7testing8internal15TestFactoryImplI41AccModeSelectionTest_TC_ACC_MS_BV_02_TestE10CreateTestEv
FNDA:1,_ZN7testing8internal15TestFactoryImplI41AccModeSelectionTest_TC_ACC_MS_BV_02_TestE10CreateTestEv
FN:456,_ZN7testing8internal15TestFactoryImplI41AccModeSelectionTest_TC_ACC_MS_BV_01_TestE10CreateTestEv
FNDA:1,_ZN7testing8internal15TestFactoryImplI41AccModeSelectionTest_TC_ACC_MS_BV_01_TestE10CreateTestEv
FN:456,_ZN7testing8internal15TestFactoryImplI41AccModeSelectionTest_TC_ACC_MS_EQ_20_TestE10CreateTestEv
FNDA:1,_ZN7testing8internal15TestFactoryImplI41AccModeSelectionTest_TC_ACC_MS_EQ_20_TestE10CreateTestEv
FN:456,_ZN7testing8internal15TestFactoryImplI41AccModeSelectionTest_TC_ACC_MS_EQ_19_TestE10CreateTestEv
FNDA:1,_ZN7testing8internal15TestFactoryImplI41AccModeSelectionTest_TC_ACC_MS_EQ_19_TestE10CreateTestEv
FN:456,_ZN7testing8internal15TestFactoryImplI41AccModeSelectionTest_TC_ACC_MS_EQ_18_TestE10CreateTestEv
FNDA:1,_ZN7testing8internal15TestFactoryImplI41AccModeSelectionTest_TC_ACC_MS_EQ_18_TestE10CreateTestEv
FN:477,_ZN7testing8internal12CodeLocationC1ENSt7__cxx1112basic_stringIcSt11char_traitsIcESaIcEEEi
FNDA:0,_ZN7testing8internal12CodeLocationC1ENSt7__cxx1112basic_stringIcSt11char_traitsIcESaIcEEEi
FN:490,_ZN7testing8internal19GetNotDefaultOrNullEPFvvES2_
FNDA:0,_ZN7testing8internal19GetNotDefaultOrNullEPFvvES2_
FN:505,_ZN7testing8internal16SuiteApiResolverI20AccModeSelectionTestE19GetSetUpCaseOrSuiteEPKci
FNDA:120,_ZN7testing8internal16SuiteApiResolverI20AccModeSelectionTestE19GetSetUpCaseOrSuiteEPKci
FN:526,_ZN7testing8internal16SuiteApiResolverI20AccModeSelectionTestE22GetTearDownCaseOrSuiteEPKci
FNDA:120,_ZN7testing8internal16SuiteApiResolverI20AccModeSelectionTestE22GetTearDownCaseOrSuiteEPKci
FNF:67
FNH:63
DA:418,120
DA:423,120
DA:437,0
DA:444,0
DA:456,1
DA:456,1
DA:456,1
DA:456,1
DA:456,1
DA:456,1
DA:456,1
DA:456,1
DA:456,1
DA:456,1
DA:456,1
DA:456,1
DA:456,1
DA:456,1
DA:456,1
DA:456,1
DA:456,1
DA:456,1
DA:456,1
DA:456,1
DA:456,1
DA:456,1
DA:456,1
DA:456,1
DA:456,1
DA:456,1
DA:456,1
DA:456,1
DA:456,1
DA:456,1
DA:456,1
DA:456,1
DA:456,1
DA:456,1
DA:456,1
DA:456,1
DA:456,1
DA:456,1
DA:456,1
DA:456,1
DA:456,1
DA:456,1
DA:456,1
DA:456,1
DA:456,1
DA:456,1
DA:456,1
DA:456,1
DA:456,1
DA:456,1
DA:456,1
DA:456,1
DA:456,1
DA:456,1
DA:456,1
DA:456,1
DA:456,1
DA:456,1
DA:456,1
DA:456,1
DA:477,0
DA:478,0
DA:490,0
DA:492,0
DA:505,120
DA:509,120
DA:511,120
DA:513,120
DA:516,0
DA:518,120
DA:526,120
DA:530,120
DA:532,120
DA:534,120
DA:537,0
DA:539,120
LF:80
LH:72
end_of_record
SF:C:/msys64/mingw64/include/c++/14.2.0/bits/allocator.h
LF:0
LH:0
end_of_record
SF:C:/msys64/mingw64/include/c++/14.2.0/bits/stl_iterator_base_types.h
DA:240,0
LF:1
LH:0
end_of_record
SF:C:/Projects/GoogleTestProject/googletest/googletest/include/gtest/gtest-assertion-result.h
FN:174,_ZNK7testing15AssertionResultcvbEv
FNDA:0,_ZNK7testing15AssertionResultcvbEv
FN:183,_ZNK7testing15AssertionResult7messageEv
FNDA:0,_ZNK7testing15AssertionResult7messageEv
FN:187,_ZNK7testing15AssertionResult15failure_messageEv
FNDA:0,_ZNK7testing15AssertionResult15failure_messageEv
FNF:3
FNH:0
DA:174,0
DA:183,0
DA:184,0
DA:187,0
LF:4
LH:0
end_of_record
SF:C:/msys64/mingw64/include/c++/14.2.0/tuple
FN:133,_ZNSt10_Head_baseILy1ESt14default_deleteINSt7__cxx1118basic_stringstreamIcSt11char_traitsIcESaIcEEEELb1EE7_M_headERS8_
FNDA:0,_ZNSt10_Head_baseILy1ESt14default_deleteINSt7__cxx1118basic_stringstreamIcSt11char_traitsIcESaIcEEEELb1EE7_M_headERS8_
FN:133,_ZNSt10_Head_baseILy1ESt14default_deleteINSt7__cxx1112basic_stringIcSt11char_traitsIcESaIcEEEELb1EE7_M_headERS8_
FNDA:0,_ZNSt10_Head_baseILy1ESt14default_deleteINSt7__cxx1112basic_stringIcSt11char_traitsIcESaIcEEEELb1EE7_M_headERS8_
FN:242,_ZNSt10_Head_baseILy0EPNSt7__cxx1112basic_stringIcSt11char_traitsIcESaIcEEELb0EE7_M_headERS7_
FNDA:0,_ZNSt10_Head_baseILy0EPNSt7__cxx1112basic_stringIcSt11char_traitsIcESaIcEEELb0EE7_M_headERS7_
FN:242,_ZNSt10_Head_baseILy0EPNSt7__cxx1118basic_stringstreamIcSt11char_traitsIcESaIcEEELb0EE7_M_headERS7_
FNDA:0,_ZNSt10_Head_baseILy0EPNSt7__cxx1118basic_stringstreamIcSt11char_traitsIcESaIcEEELb0EE7_M_headERS7_
FN:245,_ZNSt10_Head_baseILy0EPNSt7__cxx1112basic_stringIcSt11char_traitsIcESaIcEEELb0EE7_M_headERKS7_
FNDA:0,_ZNSt10_Head_baseILy0EPNSt7__cxx1112basic_stringIcSt11char_traitsIcESaIcEEELb0EE7_M_headERKS7_
FN:293,_ZNSt11_Tuple_implILy0EJPNSt7__cxx1112basic_stringIcSt11char_traitsIcESaIcEEESt14default_deleteIS5_EEE7_M_headERS9_
FNDA:0,_ZNSt11_Tuple_implILy0EJPNSt7__cxx1112basic_stringIcSt11char_traitsIcESaIcEEESt14default_deleteIS5_EEE7_M_headERS9_
FN:293,_ZNSt11_Tuple_implILy0EJPNSt7__cxx1118basic_stringstreamIcSt11char_traitsIcESaIcEEESt14default_deleteIS5_EEE7_M_headERS9_
FNDA:0,_ZNSt11_Tuple_implILy0EJPNSt7__cxx1118basic_stringstreamIcSt11char_traitsIcESaIcEEESt14default_deleteIS5_EEE7_M_headERS9_
FN:296,_ZNSt11_Tuple_implILy0EJPNSt7__cxx1112basic_stringIcSt11char_traitsIcESaIcEEESt14default_deleteIS5_EEE7_M_headERKS9_
FNDA:0,_ZNSt11_Tuple_implILy0EJPNSt7__cxx1112basic_stringIcSt11char_traitsIcESaIcEEESt14default_deleteIS5_EEE7_M_headERKS9_
FN:556,_ZNSt11_Tuple_implILy1EJSt14default_deleteINSt7__cxx1118basic_stringstreamIcSt11char_traitsIcESaIcEEEEEE7_M_headERS8_
FNDA:0,_ZNSt11_Tuple_implILy1EJSt14default_deleteINSt7__cxx1118basic_stringstreamIcSt11char_traitsIcESaIcEEEEEE7_M_headERS8_
FN:556,_ZNSt11_Tuple_implILy1EJSt14default_deleteINSt7__cxx1112basic_stringIcSt11char_traitsIcESaIcEEEEEE7_M_headERS8_
FNDA:0,_ZNSt11_Tuple_implILy1EJSt14default_deleteINSt7__cxx1112basic_stringIcSt11char_traitsIcESaIcEEEEEE7_M_headERS8_
FN:2427,_ZSt12__get_helperILy1ESt14default_deleteINSt7__cxx1118basic_stringstreamIcSt11char_traitsIcESaIcEEEEJEERT0_RSt11_Tuple_implIXT_EJS8_DpT1_EE
FNDA:0,_ZSt12__get_helperILy1ESt14default_deleteINSt7__cxx1118basic_stringstreamIcSt11char_traitsIcESaIcEEEEJEERT0_RSt11_Tuple_implIXT_EJS8_DpT1_EE
FN:2427,_ZSt12__get_helperILy0EPNSt7__cxx1118basic_stringstreamIcSt11char_traitsIcESaIcEEEJSt14default_deleteIS5_EEERT0_RSt11_Tuple_implIXT_EJS9_DpT1_EE
FNDA:0,_ZSt12__get_helperILy0EPNSt7__cxx1118basic_stringstreamIcSt11char_traitsIcESaIcEEEJSt14default_deleteIS5_EEERT0_RSt11_Tuple_implIXT_EJS9_DpT1_EE
FN:2427,_ZSt12__get_helperILy0EPNSt7__cxx1112basic_stringIcSt11char_traitsIcESaIcEEEJSt14default_deleteIS5_EEERT0_RSt11_Tuple_implIXT_EJS9_DpT1_EE
FNDA:0,_ZSt12__get_helperILy0EPNSt7__cxx1112basic_stringIcSt11char_traitsIcESaIcEEEJSt14default_deleteIS5_EEERT0_RSt11_Tuple_implIXT_EJS9_DpT1_EE
FN:2427,_ZSt12__get_helperILy1ESt14default_deleteINSt7__cxx1112basic_stringIcSt11char_traitsIcESaIcEEEEJEERT0_RSt11_Tuple_implIXT_EJS8_DpT1_EE
FNDA:0,_ZSt12__get_helperILy1ESt14default_deleteINSt7__cxx1112basic_stringIcSt11char_traitsIcESaIcEEEEJEERT0_RSt11_Tuple_implIXT_EJS8_DpT1_EE
FN:2432,_ZSt12__get_helperILy0EPNSt7__cxx1112basic_stringIcSt11char_traitsIcESaIcEEEJSt14default_deleteIS5_EEERKT0_RKSt11_Tuple_implIXT_EJS9_DpT1_EE
FNDA:0,_ZSt12__get_helperILy0EPNSt7__cxx1112basic_stringIcSt11char_traitsIcESaIcEEEJSt14default_deleteIS5_EEERKT0_RKSt11_Tuple_implIXT_EJS9_DpT1_EE
FN:2443,_ZSt3getILy1EJPNSt7__cxx1118basic_stringstreamIcSt11char_traitsIcESaIcEEESt14default_deleteIS5_EEERNSt13tuple_elementIXT_ESt5tupleIJDpT0_EEE4typeERSD_
FNDA:0,_ZSt3getILy1EJPNSt7__cxx1118basic_stringstreamIcSt11char_traitsIcESaIcEEESt14default_deleteIS5_EEERNSt13tuple_elementIXT_ESt5tupleIJDpT0_EEE4typeERSD_
FN:2443,_ZSt3getILy1EJPNSt7__cxx1112basic_stringIcSt11char_traitsIcESaIcEEESt14default_deleteIS5_EEERNSt13tuple_elementIXT_ESt5tupleIJDpT0_EEE4typeERSD_
FNDA:0,_ZSt3getILy1EJPNSt7__cxx1112basic_stringIcSt11char_traitsIcESaIcEEESt14default_deleteIS5_EEERNSt13tuple_elementIXT_ESt5tupleIJDpT0_EEE4typeERSD_
FN:2443,_ZSt3getILy0EJPNSt7__cxx1112basic_stringIcSt11char_traitsIcESaIcEEESt14default_deleteIS5_EEERNSt13tuple_elementIXT_ESt5tupleIJDpT0_EEE4typeERSD_
FNDA:0,_ZSt3getILy0EJPNSt7__cxx1112basic_stringIcSt11char_traitsIcESaIcEEESt14default_deleteIS5_EEERNSt13tuple_elementIXT_ESt5tupleIJDpT0_EEE4typeERSD_
FN:2443,_ZSt3getILy0EJPNSt7__cxx1118basic_stringstreamIcSt11char_traitsIcESaIcEEESt14default_deleteIS5_EEERNSt13tuple_elementIXT_ESt5tupleIJDpT0_EEE4typeERSD_
FNDA:0,_ZSt3getILy0EJPNSt7__cxx1118basic_stringstreamIcSt11char_traitsIcESaIcEEESt14default_deleteIS5_EEERNSt13tuple_elementIXT_ESt5tupleIJDpT0_EEE4typeERSD_
FN:2449,_ZSt3getILy0EJPNSt7__cxx1112basic_stringIcSt11char_traitsIcESaIcEEESt14default_deleteIS5_EEERKNSt13tuple_elementIXT_ESt5tupleIJDpT0_EEE4typeERKSD_
FNDA:0,_ZSt3getILy0EJPNSt7__cxx1112basic_stringIcSt11char_traitsIcESaIcEEESt14default_deleteIS5_EEERKNSt13tuple_elementIXT_ESt5tupleIJDpT0_EEE4typeERKSD_
FNF:20
FNH:0
DA:133,0
DA:133,0
DA:242,0
DA:242,0
DA:245,0
DA:293,0
DA:293,0
DA:296,0
DA:556,0
DA:556,0
DA:2427,0
DA:2428,0
DA:2427,0
DA:2428,0
DA:2427,0
DA:2428,0
DA:2427,0
DA:2428,0
DA:2432,0
DA:2433,0
DA:2443,0
DA:2444,0
DA:2443,0
DA:2444,0
DA:2443,0
DA:2444,0
DA:2443,0
DA:2444,0
DA:2449,0
DA:2450,0
LF:30
LH:0
end_of_record
SF:C:/msys64/mingw64/include/c++/14.2.0/bits/basic_string.h
FN:646,_ZNSt7__cxx1112basic_stringIcSt11char_traitsIcESaIcEEC1IS3_EEPKcRKS3_
FNDA:0,_ZNSt7__cxx1112basic_stringIcSt11char_traitsIcESaIcEEC1IS3_EEPKcRKS3_
FNF:1
FNH:0
DA:360,0
DA:646,0
DA:647,0
DA:650,0
DA:651,0
DA:653,0
DA:654,0
DA:655,0
LF:8
LH:0
end_of_record
SF:C:/msys64/mingw64/include/c++/14.2.0/bits/new_allocator.h
FN:104,_ZNSt15__new_allocatorIcED2Ev
FNDA:0,_ZNSt15__new_allocatorIcED2Ev
FNF:1
FNH:0
DA:104,0
LF:1
LH:0
end_of_record
SF:C:/Projects/GoogleTestProject/googletest/googletest/include/gtest/gtest.h
FN:255,_ZN7testing4Test14SetUpTestSuiteEv
FNDA:0,_ZN7testing4Test14SetUpTestSuiteEv
FN:263,_ZN7testing4Test17TearDownTestSuiteEv
FNDA:0,_ZN7testing4Test17TearDownTestSuiteEv
FN:268,_ZN7testing4Test16TearDownTestCaseEv
FNDA:0,_ZN7testing4Test16TearDownTestCaseEv
FN:269,_ZN7testing4Test13SetUpTestCaseEv
FNDA:0,_ZN7testing4Test13SetUpTestCaseEv
FN:356,_ZN7testing4Test5SetupEv
FNDA:0,_ZN7testing4Test5SetupEv
FN:1374,_ZN7testing8internal18CmpHelperEQFailureI10ACC_Mode_eS2_EENS_15AssertionResultEPKcS5_RKT_RKT0_
FNDA:0,_ZN7testing8internal18CmpHelperEQFailureI10ACC_Mode_eS2_EENS_15AssertionResultEPKcS5_RKT_RKT0_
FN:1391,_ZN7testing8internal11CmpHelperEQI10ACC_Mode_eS2_EENS_15AssertionResultEPKcS5_RKT_RKT0_
FNDA:60,_ZN7testing8internal11CmpHelperEQI10ACC_Mode_eS2_EENS_15AssertionResultEPKcS5_RKT_RKT0_
FN:1410,_ZN7testing8internal8EqHelper7CompareI10ACC_Mode_eS3_LPv0EEENS_15AssertionResultEPKcS7_RKT_RKT0_
FNDA:60,_ZN7testing8internal8EqHelper7CompareI10ACC_Mode_eS3_LPv0EEENS_15AssertionResultEPKcS7_RKT_RKT0_
FNF:8
FNH:2
DA:255,0
DA:263,0
DA:268,0
DA:269,0
DA:356,0
DA:1374,0
DA:1378,0
DA:1379,0
DA:1391,60
DA:1394,60
DA:1395,60
DA:1398,0
DA:1410,60
DA:1413,60
LF:14
LH:5
end_of_record
SF:C:/Projects/GoogleTestProject/googletest/googletest/include/gtest/gtest-printers.h
FN:248,_ZN7testing8internal52internal_stream_operator_without_lexical_name_lookup13StreamPrinter10PrintValueI10ACC_Mode_evEEDTcvvlsdefp0_fp_ERKT_PSo
FNDA:0,_ZN7testing8internal52internal_stream_operator_without_lexical_name_lookup13StreamPrinter10PrintValueI10ACC_Mode_evEEDTcvvlsdefp0_fp_ERKT_PSo
FN:352,_ZN7testing8internal17PrintWithFallbackI10ACC_Mode_eEEvRKT_PSo
FNDA:0,_ZN7testing8internal17PrintWithFallbackI10ACC_Mode_eEEvRKT_PSo
FN:383,_ZN7testing8internal19FormatForComparisonI10ACC_Mode_eS2_E6FormatB5cxx11ERKS2_
FNDA:0,_ZN7testing8internal19FormatForComparisonI10ACC_Mode_eS2_E6FormatB5cxx11ERKS2_
FN:463,_ZN7testing8internal33FormatForComparisonFailureMessageI10ACC_Mode_eS2_EENSt7__cxx1112basic_stringIcSt11char_traitsIcESaIcEEERKT_RKT0_
FNDA:0,_ZN7testing8internal33FormatForComparisonFailureMessageI10ACC_Mode_eS2_EENSt7__cxx1112basic_stringIcSt11char_traitsIcESaIcEEERKT_RKT0_
FN:490,_ZN7testing8internal7PrintToI10ACC_Mode_eEEvRKT_PSo
FNDA:0,_ZN7testing8internal7PrintToI10ACC_Mode_eEEvRKT_PSo
FN:874,_ZN7testing8internal16UniversalPrinterI10ACC_Mode_eE5PrintERKS2_PSo
FNDA:0,_ZN7testing8internal16UniversalPrinterI10ACC_Mode_eE5PrintERKS2_PSo
FN:1064,_ZN7testing8internal21UniversalTersePrinterI10ACC_Mode_eE5PrintERKS2_PSo
FNDA:0,_ZN7testing8internal21UniversalTersePrinterI10ACC_Mode_eE5PrintERKS2_PSo
FN:1183,_ZN7testing8internal14UniversalPrintI10ACC_Mode_eEEvRKT_PSo
FNDA:0,_ZN7testing8internal14UniversalPrintI10ACC_Mode_eEEvRKT_PSo
FN:1223,_ZN7testing13PrintToStringI10ACC_Mode_eEENSt7__cxx1112basic_stringIcSt11char_traitsIcESaIcEEERKT_
FNDA:0,_ZN7testing13PrintToStringI10ACC_Mode_eEENSt7__cxx1112basic_stringIcSt11char_traitsIcESaIcEEERKT_
FNF:9
FNH:0
DA:248,0
DA:252,0
DA:253,0
DA:352,0
DA:362,0
DA:363,0
DA:383,0
DA:384,0
DA:463,0
DA:465,0
DA:490,0
DA:491,0
DA:492,0
DA:874,0
DA:883,0
DA:884,0
DA:1064,0
DA:1065,0
DA:1066,0
DA:1183,0
DA:1187,0
DA:1188,0
DA:1223,0
DA:1224,0
DA:1225,0
DA:1226,0
DA:1227,0
LF:27
LH:0
end_of_record
TN:
SF:C:/msys64/mingw64/include/c++/14.2.0/bits/basic_string.tcc
FN:221,_ZNSt7__cxx1112basic_stringIcSt11char_traitsIcESaIcEE12_M_constructIPKcEEvT_S8_St20forward_iterator_tag
FNDA:0,_ZNSt7__cxx1112basic_stringIcSt11char_traitsIcESaIcEE12_M_constructIPKcEEvT_S8_St20forward_iterator_tag
FN:239,_ZZNSt7__cxx1112basic_stringIcSt11char_traitsIcESaIcEE12_M_constructIPKcEEvT_S8_St20forward_iterator_tagEN6_GuardC1EPS4_
FNDA:0,_ZZNSt7__cxx1112basic_stringIcSt11char_traitsIcESaIcEE12_M_constructIPKcEEvT_S8_St20forward_iterator_tagEN6_GuardC1EPS4_
FN:242,_ZZNSt7__cxx1112basic_stringIcSt11char_traitsIcESaIcEE12_M_constructIPKcEEvT_S8_St20forward_iterator_tagEN6_GuardD1Ev
FNDA:0,_ZZNSt7__cxx1112basic_stringIcSt11char_traitsIcESaIcEE12_M_constructIPKcEEvT_S8_St20forward_iterator_tagEN6_GuardD1Ev
FNF:3
FNH:0
DA:221,0
DA:225,0
DA:227,0
DA:229,0
DA:230,0
DA:239,0
DA:242,0
DA:245,0
DA:247,0
DA:249,0
DA:251,0
DA:252,0
LF:12
LH:0
end_of_record
SF:C:/Projects/GoogleTestProject/googletest/googletest/include/gtest/internal/gtest-port.h
FN:1082,_ZN7testing8internal8GTestLog9GetStreamEv
FNDA:0,_ZN7testing8internal8GTestLog9GetStreamEv
FNF:1
FNH:0
DA:1082,0
LF:1
LH:0
end_of_record
SF:C:/msys64/mingw64/include/c++/14.2.0/bits/ios_base.h
FN:761,_ZNSt8ios_base9precisionEx
FNDA:0,_ZNSt8ios_base9precisionEx
FNF:1
FNH:0
DA:761,0
DA:763,0
DA:764,0
DA:765,0
LF:4
LH:0
end_of_record
SF:C:/msys64/mingw64/include/c++/14.2.0/bits/unique_ptr.h
FN:87,_ZNKSt14default_deleteINSt7__cxx1112basic_stringIcSt11char_traitsIcESaIcEEEEclEPS5_
FNDA:0,_ZNKSt14default_deleteINSt7__cxx1112basic_stringIcSt11char_traitsIcESaIcEEEEclEPS5_
FN:87,_ZNKSt14default_deleteINSt7__cxx1118basic_stringstreamIcSt11char_traitsIcESaIcEEEEclEPS5_
FNDA:0,_ZNKSt14default_deleteINSt7__cxx1118basic_stringstreamIcSt11char_traitsIcESaIcEEEEclEPS5_
FN:168,_ZNSt15__uniq_ptr_implINSt7__cxx1112basic_stringIcSt11char_traitsIcESaIcEEESt14default_deleteIS5_EEC2Ev
FNDA:0,_ZNSt15__uniq_ptr_implINSt7__cxx1112basic_stringIcSt11char_traitsIcESaIcEEESt14default_deleteIS5_EEC2Ev
FN:191,_ZNSt15__uniq_ptr_implINSt7__cxx1112basic_stringIcSt11char_traitsIcESaIcEEESt14default_deleteIS5_EE6_M_ptrEv
FNDA:0,_ZNSt15__uniq_ptr_implINSt7__cxx1112basic_stringIcSt11char_traitsIcESaIcEEESt14default_deleteIS5_EE6_M_ptrEv
FN:191,_ZNSt15__uniq_ptr_implINSt7__cxx1118basic_stringstreamIcSt11char_traitsIcESaIcEEESt14default_deleteIS5_EE6_M_ptrEv
FNDA:0,_ZNSt15__uniq_ptr_implINSt7__cxx1118basic_stringstreamIcSt11char_traitsIcESaIcEEESt14default_deleteIS5_EE6_M_ptrEv
FN:193,_ZNKSt15__uniq_ptr_implINSt7__cxx1112basic_stringIcSt11char_traitsIcESaIcEEESt14default_deleteIS5_EE6_M_ptrEv
FNDA:0,_ZNKSt15__uniq_ptr_implINSt7__cxx1112basic_stringIcSt11char_traitsIcESaIcEEESt14default_deleteIS5_EE6_M_ptrEv
FN:195,_ZNSt15__uniq_ptr_implINSt7__cxx1118basic_stringstreamIcSt11char_traitsIcESaIcEEESt14default_deleteIS5_EE10_M_deleterEv
FNDA:0,_ZNSt15__uniq_ptr_implINSt7__cxx1118basic_stringstreamIcSt11char_traitsIcESaIcEEESt14default_deleteIS5_EE10_M_deleterEv
FN:195,_ZNSt15__uniq_ptr_implINSt7__cxx1112basic_stringIcSt11char_traitsIcESaIcEEESt14default_deleteIS5_EE10_M_deleterEv
FNDA:0,_ZNSt15__uniq_ptr_implINSt7__cxx1112basic_stringIcSt11char_traitsIcESaIcEEESt14default_deleteIS5_EE10_M_deleterEv
FN:298,_ZNSt10unique_ptrINSt7__cxx1112basic_stringIcSt11char_traitsIcESaIcEEESt14default_deleteIS5_EEC1IS7_vEEv
FNDA:0,_ZNSt10unique_ptrINSt7__cxx1112basic_stringIcSt11char_traitsIcESaIcEEESt14default_deleteIS5_EEC1IS7_vEEv
FN:392,_ZNSt10unique_ptrINSt7__cxx1118basic_stringstreamIcSt11char_traitsIcESaIcEEESt14default_deleteIS5_EED1Ev
FNDA:0,_ZNSt10unique_ptrINSt7__cxx1118basic_stringstreamIcSt11char_traitsIcESaIcEEESt14default_deleteIS5_EED1Ev
FN:392,_ZNSt10unique_ptrINSt7__cxx1112basic_stringIcSt11char_traitsIcESaIcEEESt14default_deleteIS5_EED1Ev
FNDA:0,_ZNSt10unique_ptrINSt7__cxx1112basic_stringIcSt11char_traitsIcESaIcEEESt14default_deleteIS5_EED1Ev
FN:454,_ZNKSt10unique_ptrINSt7__cxx1112basic_stringIcSt11char_traitsIcESaIcEEESt14default_deleteIS5_EEptEv
FNDA:0,_ZNKSt10unique_ptrINSt7__cxx1112basic_stringIcSt11char_traitsIcESaIcEEESt14default_deleteIS5_EEptEv
FN:463,_ZNKSt10unique_ptrINSt7__cxx1112basic_stringIcSt11char_traitsIcESaIcEEESt14default_deleteIS5_EE3getEv
FNDA:0,_ZNKSt10unique_ptrINSt7__cxx1112basic_stringIcSt11char_traitsIcESaIcEEESt14default_deleteIS5_EE3getEv
FN:469,_ZNSt10unique_ptrINSt7__cxx1118basic_stringstreamIcSt11char_traitsIcESaIcEEESt14default_deleteIS5_EE11get_deleterEv
FNDA:0,_ZNSt10unique_ptrINSt7__cxx1118basic_stringstreamIcSt11char_traitsIcESaIcEEESt14default_deleteIS5_EE11get_deleterEv
FN:469,_ZNSt10unique_ptrINSt7__cxx1112basic_stringIcSt11char_traitsIcESaIcEEESt14default_deleteIS5_EE11get_deleterEv
FNDA:0,_ZNSt10unique_ptrINSt7__cxx1112basic_stringIcSt11char_traitsIcESaIcEEESt14default_deleteIS5_EE11get_deleterEv
FN:480,_ZNKSt10unique_ptrINSt7__cxx1112basic_stringIcSt11char_traitsIcESaIcEEESt14default_deleteIS5_EEcvbEv
FNDA:0,_ZNKSt10unique_ptrINSt7__cxx1112basic_stringIcSt11char_traitsIcESaIcEEESt14default_deleteIS5_EEcvbEv
FN:869,_ZStneINSt7__cxx1112basic_stringIcSt11char_traitsIcESaIcEEESt14default_deleteIS5_EEbRKSt10unique_ptrIT_T0_EDn
FNDA:0,_ZStneINSt7__cxx1112basic_stringIcSt11char_traitsIcESaIcEEESt14default_deleteIS5_EEbRKSt10unique_ptrIT_T0_EDn
FNF:17
FNH:0
DA:87,0
DA:93,0
DA:94,0
DA:87,0
DA:93,0
DA:94,0
DA:168,0
DA:191,0
DA:191,0
DA:193,0
DA:195,0
DA:195,0
DA:298,0
DA:299,0
DA:300,0
DA:392,0
DA:396,0
DA:397,0
DA:398,0
DA:399,0
DA:400,0
DA:392,0
DA:396,0
DA:397,0
DA:398,0
DA:399,0
DA:400,0
DA:454,0
DA:457,0
DA:463,0
DA:464,0
DA:469,0
DA:470,0
DA:469,0
DA:470,0
DA:480,0
DA:481,0
DA:869,0
DA:870,0
LF:39
LH:0
end_of_record
SF:C:/Projects/GoogleTestProject/googletest/googletest/include/gtest/gtest-message.h
LF:0
LH:0
end_of_record
SF:C:/Projects/GoogleTestProject/acc_out_test.cpp
FN:27,_ZN22AccOutputSelectionTest5SetUpEv
FNDA:30,_ZN22AccOutputSelectionTest5SetUpEv
FN:42,_ZN44AccOutputSelectionTest_TC_ACC_OUT_EQ_01_TestC1Ev
FNDA:1,_ZN44AccOutputSelectionTest_TC_ACC_OUT_EQ_01_TestC1Ev
FN:42,_ZN44AccOutputSelectionTest_TC_ACC_OUT_EQ_01_Test8TestBodyEv
FNDA:1,_ZN44AccOutputSelectionTest_TC_ACC_OUT_EQ_01_Test8TestBodyEv
FN:42,_ZN44AccOutputSelectionTest_TC_ACC_OUT_EQ_01_TestD1Ev
FNDA:1,_ZN44AccOutputSelectionTest_TC_ACC_OUT_EQ_01_TestD1Ev
FN:42,_ZN44AccOutputSelectionTest_TC_ACC_OUT_EQ_01_TestD0Ev
FNDA:1,_ZN44AccOutputSelectionTest_TC_ACC_OUT_EQ_01_TestD0Ev
FN:54,_ZN44AccOutputSelectionTest_TC_ACC_OUT_EQ_02_TestC1Ev
FNDA:1,_ZN44AccOutputSelectionTest_TC_ACC_OUT_EQ_02_TestC1Ev
FN:54,_ZN44AccOutputSelectionTest_TC_ACC_OUT_EQ_02_Test8TestBodyEv
FNDA:1,_ZN44AccOutputSelectionTest_TC_ACC_OUT_EQ_02_Test8TestBodyEv
FN:54,_ZN44AccOutputSelectionTest_TC_ACC_OUT_EQ_02_TestD1Ev
FNDA:1,_ZN44AccOutputSelectionTest_TC_ACC_OUT_EQ_02_TestD1Ev
FN:54,_ZN44AccOutputSelectionTest_TC_ACC_OUT_EQ_02_TestD0Ev
FNDA:1,_ZN44AccOutputSelectionTest_TC_ACC_OUT_EQ_02_TestD0Ev
FN:66,_ZN44AccOutputSelectionTest_TC_ACC_OUT_EQ_03_TestC1Ev
FNDA:1,_ZN44AccOutputSelectionTest_TC_ACC_OUT_EQ_03_TestC1Ev
FN:66,_ZN44AccOutputSelectionTest_TC_ACC_OUT_EQ_03_Test8TestBodyEv
FNDA:1,_ZN44AccOutputSelectionTest_TC_ACC_OUT_EQ_03_Test8TestBodyEv
FN:66,_ZN44AccOutputSelectionTest_TC_ACC_OUT_EQ_03_TestD0Ev
FNDA:1,_ZN44AccOutputSelectionTest_TC_ACC_OUT_EQ_03_TestD0Ev
FN:66,_ZN44AccOutputSelectionTest_TC_ACC_OUT_EQ_03_TestD1Ev
FNDA:1,_ZN44AccOutputSelectionTest_TC_ACC_OUT_EQ_03_TestD1Ev
FN:78,_ZN44AccOutputSelectionTest_TC_ACC_OUT_EQ_04_TestD1Ev
FNDA:1,_ZN44AccOutputSelectionTest_TC_ACC_OUT_EQ_04_TestD1Ev
FN:78,_ZN44AccOutputSelectionTest_TC_ACC_OUT_EQ_04_TestC1Ev
FNDA:1,_ZN44AccOutputSelectionTest_TC_ACC_OUT_EQ_04_TestC1Ev
FN:78,_ZN44AccOutputSelectionTest_TC_ACC_OUT_EQ_04_Test8TestBodyEv
FNDA:1,_ZN44AccOutputSelectionTest_TC_ACC_OUT_EQ_04_Test8TestBodyEv
FN:78,_ZN44AccOutputSelectionTest_TC_ACC_OUT_EQ_04_TestD0Ev
FNDA:1,_ZN44AccOutputSelectionTest_TC_ACC_OUT_EQ_04_TestD0Ev
FN:90,_ZN44AccOutputSelectionTest_TC_ACC_OUT_EQ_05_TestC1Ev
FNDA:1,_ZN44AccOutputSelectionTest_TC_ACC_OUT_EQ_05_TestC1Ev
FN:90,_ZN44AccOutputSelectionTest_TC_ACC_OUT_EQ_05_Test8TestBodyEv
FNDA:1,_ZN44AccOutputSelectionTest_TC_ACC_OUT_EQ_05_Test8TestBodyEv
FN:90,_ZN44AccOutputSelectionTest_TC_ACC_OUT_EQ_05_TestD0Ev
FNDA:1,_ZN44AccOutputSelectionTest_TC_ACC_OUT_EQ_05_TestD0Ev
FN:90,_ZN44AccOutputSelectionTest_TC_ACC_OUT_EQ_05_TestD1Ev
FNDA:1,_ZN44AccOutputSelectionTest_TC_ACC_OUT_EQ_05_TestD1Ev
FN:102,_ZN44AccOutputSelectionTest_TC_ACC_OUT_EQ_06_TestC1Ev
FNDA:1,_ZN44AccOutputSelectionTest_TC_ACC_OUT_EQ_06_TestC1Ev
FN:102,_ZN44AccOutputSelectionTest_TC_ACC_OUT_EQ_06_TestD0Ev
FNDA:1,_ZN44AccOutputSelectionTest_TC_ACC_OUT_EQ_06_TestD0Ev
FN:102,_ZN44AccOutputSelectionTest_TC_ACC_OUT_EQ_06_TestD1Ev
FNDA:1,_ZN44AccOutputSelectionTest_TC_ACC_OUT_EQ_06_TestD1Ev
FN:102,_ZN44AccOutputSelectionTest_TC_ACC_OUT_EQ_06_Test8TestBodyEv
FNDA:1,_ZN44AccOutputSelectionTest_TC_ACC_OUT_EQ_06_Test8TestBodyEv
FN:114,_ZN44AccOutputSelectionTest_TC_ACC_OUT_EQ_07_TestC1Ev
FNDA:1,_ZN44AccOutputSelectionTest_TC_ACC_OUT_EQ_07_TestC1Ev
FN:114,_ZN44AccOutputSelectionTest_TC_ACC_OUT_EQ_07_TestD0Ev
FNDA:1,_ZN44AccOutputSelectionTest_TC_ACC_OUT_EQ_07_TestD0Ev
FN:114,_ZN44AccOutputSelectionTest_TC_ACC_OUT_EQ_07_TestD1Ev
FNDA:1,_ZN44AccOutputSelectionTest_TC_ACC_OUT_EQ_07_TestD1Ev
FN:114,_ZN44AccOutputSelectionTest_TC_ACC_OUT_EQ_07_Test8TestBodyEv
FNDA:1,_ZN44AccOutputSelectionTest_TC_ACC_OUT_EQ_07_Test8TestBodyEv
FN:126,_ZN44AccOutputSelectionTest_TC_ACC_OUT_EQ_08_TestD1Ev
FNDA:1,_ZN44AccOutputSelectionTest_TC_ACC_OUT_EQ_08_TestD1Ev
FN:126,_ZN44AccOutputSelectionTest_TC_ACC_OUT_EQ_08_Test8TestBodyEv
FNDA:1,_ZN44AccOutputSelectionTest_TC_ACC_OUT_EQ_08_Test8TestBodyEv
FN:126,_ZN44AccOutputSelectionTest_TC_ACC_OUT_EQ_08_TestC1Ev
FNDA:1,_ZN44AccOutputSelectionTest_TC_ACC_OUT_EQ_08_TestC1Ev
FN:126,_ZN44AccOutputSelectionTest_TC_ACC_OUT_EQ_08_TestD0Ev
FNDA:1,_ZN44AccOutputSelectionTest_TC_ACC_OUT_EQ_08_TestD0Ev
FN:137,_ZN44AccOutputSelectionTest_TC_ACC_OUT_EQ_09_TestD1Ev
FNDA:1,_ZN44AccOutputSelectionTest_TC_ACC_OUT_EQ_09_TestD1Ev
FN:137,_ZN44AccOutputSelectionTest_TC_ACC_OUT_EQ_09_TestC1Ev
FNDA:1,_ZN44AccOutputSelectionTest_TC_ACC_OUT_EQ_09_TestC1Ev
FN:137,_ZN44AccOutputSelectionTest_TC_ACC_OUT_EQ_09_TestD0Ev
FNDA:1,_ZN44AccOutputSelectionTest_TC_ACC_OUT_EQ_09_TestD0Ev
FN:137,_ZN44AccOutputSelectionTest_TC_ACC_OUT_EQ_09_Test8TestBodyEv
FNDA:1,_ZN44AccOutputSelectionTest_TC_ACC_OUT_EQ_09_Test8TestBodyEv
FN:149,_ZN44AccOutputSelectionTest_TC_ACC_OUT_EQ_10_TestD0Ev
FNDA:1,_ZN44AccOutputSelectionTest_TC_ACC_OUT_EQ_10_TestD0Ev
FN:149,_ZN44AccOutputSelectionTest_TC_ACC_OUT_EQ_10_TestD1Ev
FNDA:1,_ZN44AccOutputSelectionTest_TC_ACC_OUT_EQ_10_TestD1Ev
FN:149,_ZN44AccOutputSelectionTest_TC_ACC_OUT_EQ_10_Test8TestBodyEv
FNDA:1,_ZN44AccOutputSelectionTest_TC_ACC_OUT_EQ_10_Test8TestBodyEv
FN:149,_ZN44AccOutputSelectionTest_TC_ACC_OUT_EQ_10_TestC1Ev
FNDA:1,_ZN44AccOutputSelectionTest_TC_ACC_OUT_EQ_10_TestC1Ev
FN:166,_ZN44AccOutputSelectionTest_TC_ACC_OUT_BV_01_TestC1Ev
FNDA:1,_ZN44AccOutputSelectionTest_TC_ACC_OUT_BV_01_TestC1Ev
FN:166,_ZN44AccOutputSelectionTest_TC_ACC_OUT_BV_01_TestD0Ev
FNDA:1,_ZN44AccOutputSelectionTest_TC_ACC_OUT_BV_01_TestD0Ev
FN:166,_ZN44AccOutputSelectionTest_TC_ACC_OUT_BV_01_TestD1Ev
FNDA:1,_ZN44AccOutputSelectionTest_TC_ACC_OUT_BV_01_TestD1Ev
FN:166,_ZN44AccOutputSelectionTest_TC_ACC_OUT_BV_01_Test8TestBodyEv
FNDA:1,_ZN44AccOutputSelectionTest_TC_ACC_OUT_BV_01_Test8TestBodyEv
FN:177,_ZN44AccOutputSelectionTest_TC_ACC_OUT_BV_02_TestC1Ev
FNDA:1,_ZN44AccOutputSelectionTest_TC_ACC_OUT_BV_02_TestC1Ev
FN:177,_ZN44AccOutputSelectionTest_TC_ACC_OUT_BV_02_Test8TestBodyEv
FNDA:1,_ZN44AccOutputSelectionTest_TC_ACC_OUT_BV_02_Test8TestBodyEv
FN:177,_ZN44AccOutputSelectionTest_TC_ACC_OUT_BV_02_TestD0Ev
FNDA:1,_ZN44AccOutputSelectionTest_TC_ACC_OUT_BV_02_TestD0Ev
FN:177,_ZN44AccOutputSelectionTest_TC_ACC_OUT_BV_02_TestD1Ev
FNDA:1,_ZN44AccOutputSelectionTest_TC_ACC_OUT_BV_02_TestD1Ev
FN:188,_ZN44AccOutputSelectionTest_TC_ACC_OUT_BV_03_TestC1Ev
FNDA:1,_ZN44AccOutputSelectionTest_TC_ACC_OUT_BV_03_TestC1Ev
FN:188,_ZN44AccOutputSelectionTest_TC_ACC_OUT_BV_03_Test8TestBodyEv
FNDA:1,_ZN44AccOutputSelectionTest_TC_ACC_OUT_BV_03_Test8TestBodyEv
FN:188,_ZN44AccOutputSelectionTest_TC_ACC_OUT_BV_03_TestD0Ev
FNDA:1,_ZN44AccOutputSelectionTest_TC_ACC_OUT_BV_03_TestD0Ev
FN:188,_ZN44AccOutputSelectionTest_TC_ACC_OUT_BV_03_TestD1Ev
FNDA:1,_ZN44AccOutputSelectionTest_TC_ACC_OUT_BV_03_TestD1Ev
FN:199,_ZN44AccOutputSelectionTest_TC_ACC_OUT_BV_04_TestC1Ev
FNDA:1,_ZN44AccOutputSelectionTest_TC_ACC_OUT_BV_04_TestC1Ev
FN:199,_ZN44AccOutputSelectionTest_TC_ACC_OUT_BV_04_Test8TestBodyEv
FNDA:1,_ZN44AccOutputSelectionTest_TC_ACC_OUT_BV_04_Test8TestBodyEv
FN:199,_ZN44AccOutputSelectionTest_TC_ACC_OUT_BV_04_TestD0Ev
FNDA:1,_ZN44AccOutputSelectionTest_TC_ACC_OUT_BV_04_TestD0Ev
FN:199,_ZN44AccOutputSelectionTest_TC_ACC_OUT_BV_04_TestD1Ev
FNDA:1,_ZN44AccOutputSelectionTest_TC_ACC_OUT_BV_04_TestD1Ev
FN:210,_ZN44AccOutputSelectionTest_TC_ACC_OUT_BV_05_Test8TestBodyEv
FNDA:1,_ZN44AccOutputSelectionTest_TC_ACC_OUT_BV_05_Test8TestBodyEv
FN:210,_ZN44AccOutputSelectionTest_TC_ACC_OUT_BV_05_TestC1Ev
FNDA:1,_ZN44AccOutputSelectionTest_TC_ACC_OUT_BV_05_TestC1Ev
FN:210,_ZN44AccOutputSelectionTest_TC_ACC_OUT_BV_05_TestD1Ev
FNDA:1,_ZN44AccOutputSelectionTest_TC_ACC_OUT_BV_05_TestD1Ev
FN:210,_ZN44AccOutputSelectionTest_TC_ACC_OUT_BV_05_TestD0Ev
FNDA:1,_ZN44AccOutputSelectionTest_TC_ACC_OUT_BV_05_TestD0Ev
FN:221,_ZN44AccOutputSelectionTest_TC_ACC_OUT_BV_06_TestD0Ev
FNDA:1,_ZN44AccOutputSelectionTest_TC_ACC_OUT_BV_06_TestD0Ev
FN:221,_ZN44AccOutputSelectionTest_TC_ACC_OUT_BV_06_Test8TestBodyEv
FNDA:1,_ZN44AccOutputSelectionTest_TC_ACC_OUT_BV_06_Test8TestBodyEv
FN:221,_ZN44AccOutputSelectionTest_TC_ACC_OUT_BV_06_TestC1Ev
FNDA:1,_ZN44AccOutputSelectionTest_TC_ACC_OUT_BV_06_TestC1Ev
FN:221,_ZN44AccOutputSelectionTest_TC_ACC_OUT_BV_06_TestD1Ev
FNDA:1,_ZN44AccOutputSelectionTest_TC_ACC_OUT_BV_06_TestD1Ev
FN:232,_ZN44AccOutputSelectionTest_TC_ACC_OUT_BV_07_Test8TestBodyEv
FNDA:1,_ZN44AccOutputSelectionTest_TC_ACC_OUT_BV_07_Test8TestBodyEv
FN:232,_ZN44AccOutputSelectionTest_TC_ACC_OUT_BV_07_TestC1Ev
FNDA:1,_ZN44AccOutputSelectionTest_TC_ACC_OUT_BV_07_TestC1Ev
FN:232,_ZN44AccOutputSelectionTest_TC_ACC_OUT_BV_07_TestD0Ev
FNDA:1,_ZN44AccOutputSelectionTest_TC_ACC_OUT_BV_07_TestD0Ev
FN:232,_ZN44AccOutputSelectionTest_TC_ACC_OUT_BV_07_TestD1Ev
FNDA:1,_ZN44AccOutputSelectionTest_TC_ACC_OUT_BV_07_TestD1Ev
FN:243,_ZN44AccOutputSelectionTest_TC_ACC_OUT_BV_08_TestD1Ev
FNDA:1,_ZN44AccOutputSelectionTest_TC_ACC_OUT_BV_08_TestD1Ev
FN:243,_ZN44AccOutputSelectionTest_TC_ACC_OUT_BV_08_Test8TestBodyEv
FNDA:1,_ZN44AccOutputSelectionTest_TC_ACC_OUT_BV_08_Test8TestBodyEv
FN:243,_ZN44AccOutputSelectionTest_TC_ACC_OUT_BV_08_TestC1Ev
FNDA:1,_ZN44AccOutputSelectionTest_TC_ACC_OUT_BV_08_TestC1Ev
FN:243,_ZN44AccOutputSelectionTest_TC_ACC_OUT_BV_08_TestD0Ev
FNDA:1,_ZN44AccOutputSelectionTest_TC_ACC_OUT_BV_08_TestD0Ev
FN:254,_ZN44AccOutputSelectionTest_TC_ACC_OUT_BV_09_TestD0Ev
FNDA:1,_ZN44AccOutputSelectionTest_TC_ACC_OUT_BV_09_TestD0Ev
FN:254,_ZN44AccOutputSelectionTest_TC_ACC_OUT_BV_09_TestD1Ev
FNDA:1,_ZN44AccOutputSelectionTest_TC_ACC_OUT_BV_09_TestD1Ev
FN:254,_ZN44AccOutputSelectionTest_TC_ACC_OUT_BV_09_Test8TestBodyEv
FNDA:1,_ZN44AccOutputSelectionTest_TC_ACC_OUT_BV_09_Test8TestBodyEv
FN:254,_ZN44AccOutputSelectionTest_TC_ACC_OUT_BV_09_TestC1Ev
FNDA:1,_ZN44AccOutputSelectionTest_TC_ACC_OUT_BV_09_TestC1Ev
FN:265,_ZN44AccOutputSelectionTest_TC_ACC_OUT_BV_10_Test8TestBodyEv
FNDA:1,_ZN44AccOutputSelectionTest_TC_ACC_OUT_BV_10_Test8TestBodyEv
FN:265,_ZN44AccOutputSelectionTest_TC_ACC_OUT_BV_10_TestD1Ev
FNDA:1,_ZN44AccOutputSelectionTest_TC_ACC_OUT_BV_10_TestD1Ev
FN:265,_ZN44AccOutputSelectionTest_TC_ACC_OUT_BV_10_TestD0Ev
FNDA:1,_ZN44AccOutputSelectionTest_TC_ACC_OUT_BV_10_TestD0Ev
FN:265,_ZN44AccOutputSelectionTest_TC_ACC_OUT_BV_10_TestC1Ev
FNDA:1,_ZN44AccOutputSelectionTest_TC_ACC_OUT_BV_10_TestC1Ev
FN:283,_ZN44AccOutputSelectionTest_TC_ACC_OUT_RA_01_Test8TestBodyEv
FNDA:1,_ZN44AccOutputSelectionTest_TC_ACC_OUT_RA_01_Test8TestBodyEv
FN:283,_ZN44AccOutputSelectionTest_TC_ACC_OUT_RA_01_TestC1Ev
FNDA:1,_ZN44AccOutputSelectionTest_TC_ACC_OUT_RA_01_TestC1Ev
FN:283,_ZN44AccOutputSelectionTest_TC_ACC_OUT_RA_01_TestD1Ev
FNDA:1,_ZN44AccOutputSelectionTest_TC_ACC_OUT_RA_01_TestD1Ev
FN:283,_ZN44AccOutputSelectionTest_TC_ACC_OUT_RA_01_TestD0Ev
FNDA:1,_ZN44AccOutputSelectionTest_TC_ACC_OUT_RA_01_TestD0Ev
FN:294,_ZN44AccOutputSelectionTest_TC_ACC_OUT_RA_02_TestD1Ev
FNDA:1,_ZN44AccOutputSelectionTest_TC_ACC_OUT_RA_02_TestD1Ev
FN:294,_ZN44AccOutputSelectionTest_TC_ACC_OUT_RA_02_Test8TestBodyEv
FNDA:1,_ZN44AccOutputSelectionTest_TC_ACC_OUT_RA_02_Test8TestBodyEv
FN:294,_ZN44AccOutputSelectionTest_TC_ACC_OUT_RA_02_TestC1Ev
FNDA:1,_ZN44AccOutputSelectionTest_TC_ACC_OUT_RA_02_TestC1Ev
FN:294,_ZN44AccOutputSelectionTest_TC_ACC_OUT_RA_02_TestD0Ev
FNDA:1,_ZN44AccOutputSelectionTest_TC_ACC_OUT_RA_02_TestD0Ev
FN:305,_ZN44AccOutputSelectionTest_TC_ACC_OUT_RA_03_TestC1Ev
FNDA:1,_ZN44AccOutputSelectionTest_TC_ACC_OUT_RA_03_TestC1Ev
FN:305,_ZN44AccOutputSelectionTest_TC_ACC_OUT_RA_03_TestD0Ev
FNDA:1,_ZN44AccOutputSelectionTest_TC_ACC_OUT_RA_03_TestD0Ev
FN:305,_ZN44AccOutputSelectionTest_TC_ACC_OUT_RA_03_TestD1Ev
FNDA:1,_ZN44AccOutputSelectionTest_TC_ACC_OUT_RA_03_TestD1Ev
FN:305,_ZN44AccOutputSelectionTest_TC_ACC_OUT_RA_03_Test8TestBodyEv
FNDA:1,_ZN44AccOutputSelectionTest_TC_ACC_OUT_RA_03_Test8TestBodyEv
FN:316,_ZN44AccOutputSelectionTest_TC_ACC_OUT_RA_04_TestC1Ev
FNDA:1,_ZN44AccOutputSelectionTest_TC_ACC_OUT_RA_04_TestC1Ev
FN:316,_ZN44AccOutputSelectionTest_TC_ACC_OUT_RA_04_Test8TestBodyEv
FNDA:1,_ZN44AccOutputSelectionTest_TC_ACC_OUT_RA_04_Test8TestBodyEv
FN:316,_ZN44AccOutputSelectionTest_TC_ACC_OUT_RA_04_TestD1Ev
FNDA:1,_ZN44AccOutputSelectionTest_TC_ACC_OUT_RA_04_TestD1Ev
FN:316,_ZN44AccOutputSelectionTest_TC_ACC_OUT_RA_04_TestD0Ev
FNDA:1,_ZN44AccOutputSelectionTest_TC_ACC_OUT_RA_04_TestD0Ev
FN:328,_ZN44AccOutputSelectionTest_TC_ACC_OUT_RA_05_TestC1Ev
FNDA:1,_ZN44AccOutputSelectionTest_TC_ACC_OUT_RA_05_TestC1Ev
FN:328,_ZN44AccOutputSelectionTest_TC_ACC_OUT_RA_05_Test8TestBodyEv
FNDA:1,_ZN44AccOutputSelectionTest_TC_ACC_OUT_RA_05_Test8TestBodyEv
FN:328,_ZN44AccOutputSelectionTest_TC_ACC_OUT_RA_05_TestD1Ev
FNDA:1,_ZN44AccOutputSelectionTest_TC_ACC_OUT_RA_05_TestD1Ev
FN:328,_ZN44AccOutputSelectionTest_TC_ACC_OUT_RA_05_TestD0Ev
FNDA:1,_ZN44AccOutputSelectionTest_TC_ACC_OUT_RA_05_TestD0Ev
FN:339,_ZN44AccOutputSelectionTest_TC_ACC_OUT_RA_06_TestD0Ev
FNDA:1,_ZN44AccOutputSelectionTest_TC_ACC_OUT_RA_06_TestD0Ev
FN:339,_ZN44AccOutputSelectionTest_TC_ACC_OUT_RA_06_Test8TestBodyEv
FNDA:1,_ZN44AccOutputSelectionTest_TC_ACC_OUT_RA_06_Test8TestBodyEv
FN:339,_ZN44AccOutputSelectionTest_TC_ACC_OUT_RA_06_TestC1Ev
FNDA:1,_ZN44AccOutputSelectionTest_TC_ACC_OUT_RA_06_TestC1Ev
FN:339,_ZN44AccOutputSelectionTest_TC_ACC_OUT_RA_06_TestD1Ev
FNDA:1,_ZN44AccOutputSelectionTest_TC_ACC_OUT_RA_06_TestD1Ev
FN:349,_ZN44AccOutputSelectionTest_TC_ACC_OUT_RA_07_TestD1Ev
FNDA:1,_ZN44AccOutputSelectionTest_TC_ACC_OUT_RA_07_TestD1Ev
FN:349,_ZN44AccOutputSelectionTest_TC_ACC_OUT_RA_07_Test8TestBodyEv
FNDA:1,_ZN44AccOutputSelectionTest_TC_ACC_OUT_RA_07_Test8TestBodyEv
FN:349,_ZN44AccOutputSelectionTest_TC_ACC_OUT_RA_07_TestD0Ev
FNDA:1,_ZN44AccOutputSelectionTest_TC_ACC_OUT_RA_07_TestD0Ev
FN:349,_ZN44AccOutputSelectionTest_TC_ACC_OUT_RA_07_TestC1Ev
FNDA:1,_ZN44AccOutputSelectionTest_TC_ACC_OUT_RA_07_TestC1Ev
FN:365,_ZN44AccOutputSelectionTest_TC_ACC_OUT_RA_08_Test8TestBodyEv
FNDA:1,_ZN44AccOutputSelectionTest_TC_ACC_OUT_RA_08_Test8TestBodyEv
FN:365,_ZN44AccOutputSelectionTest_TC_ACC_OUT_RA_08_TestD1Ev
FNDA:1,_ZN44AccOutputSelectionTest_TC_ACC_OUT_RA_08_TestD1Ev
FN:365,_ZN44AccOutputSelectionTest_TC_ACC_OUT_RA_08_TestD0Ev
FNDA:1,_ZN44AccOutputSelectionTest_TC_ACC_OUT_RA_08_TestD0Ev
FN:365,_ZN44AccOutputSelectionTest_TC_ACC_OUT_RA_08_TestC1Ev
FNDA:1,_ZN44AccOutputSelectionTest_TC_ACC_OUT_RA_08_TestC1Ev
FN:378,_ZN44AccOutputSelectionTest_TC_ACC_OUT_RA_09_Test8TestBodyEv
FNDA:1,_ZN44AccOutputSelectionTest_TC_ACC_OUT_RA_09_Test8TestBodyEv
FN:378,_ZN44AccOutputSelectionTest_TC_ACC_OUT_RA_09_TestD1Ev
FNDA:1,_ZN44AccOutputSelectionTest_TC_ACC_OUT_RA_09_TestD1Ev
FN:378,_ZN44AccOutputSelectionTest_TC_ACC_OUT_RA_09_TestD0Ev
FNDA:1,_ZN44AccOutputSelectionTest_TC_ACC_OUT_RA_09_TestD0Ev
FN:378,_ZN44AccOutputSelectionTest_TC_ACC_OUT_RA_09_TestC1Ev
FNDA:1,_ZN44AccOutputSelectionTest_TC_ACC_OUT_RA_09_TestC1Ev
FN:390,_ZN44AccOutputSelectionTest_TC_ACC_OUT_RA_10_Test8TestBodyEv
FNDA:1,_ZN44AccOutputSelectionTest_TC_ACC_OUT_RA_10_Test8TestBodyEv
FN:390,_ZN44AccOutputSelectionTest_TC_ACC_OUT_RA_10_TestD1Ev
FNDA:1,_ZN44AccOutputSelectionTest_TC_ACC_OUT_RA_10_TestD1Ev
FN:390,_ZN44AccOutputSelectionTest_TC_ACC_OUT_RA_10_TestD0Ev
FNDA:1,_ZN44AccOutputSelectionTest_TC_ACC_OUT_RA_10_TestD0Ev
FN:390,_ZN44AccOutputSelectionTest_TC_ACC_OUT_RA_10_TestC1Ev
FNDA:1,_ZN44AccOutputSelectionTest_TC_ACC_OUT_RA_10_TestC1Ev
FNF:121
FNH:121
DA:27,30
DA:30,30
DA:31,30
DA:32,30
DA:33,30
DA:42,1
DA:42,1
DA:42,1
DA:42,1
DA:44,1
DA:45,1
DA:46,1
DA:48,1
DA:50,1
DA:51,1
DA:54,1
DA:54,1
DA:54,1
DA:54,1
DA:56,1
DA:57,1
DA:58,1
DA:60,1
DA:62,1
DA:63,1
DA:66,1
DA:66,1
DA:66,1
DA:66,1
DA:68,1
DA:69,1
DA:70,1
DA:72,1
DA:74,1
DA:75,1
DA:78,1
DA:78,1
DA:78,1
DA:78,1
DA:80,1
DA:81,1
DA:82,1
DA:84,1
DA:86,1
DA:87,1
DA:90,1
DA:90,1
DA:90,1
DA:90,1
DA:92,1
DA:93,1
DA:94,1
DA:96,1
DA:98,1
DA:99,1
DA:102,1
DA:102,1
DA:102,1
DA:102,1
DA:104,1
DA:105,1
DA:106,1
DA:108,1
DA:110,1
DA:111,1
DA:114,1
DA:114,1
DA:114,1
DA:114,1
DA:117,1
DA:118,1
DA:119,1
DA:121,1
DA:122,1
DA:123,1
DA:126,1
DA:126,1
DA:126,1
DA:126,1
DA:128,1
DA:129,1
DA:130,1
DA:132,1
DA:133,1
DA:134,1
DA:137,1
DA:137,1
DA:137,1
DA:137,1
DA:139,1
DA:140,1
DA:141,1
DA:143,1
DA:145,1
DA:146,1
DA:149,1
DA:149,1
DA:149,1
DA:149,1
DA:151,1
DA:152,1
DA:153,1
DA:155,1
DA:157,1
DA:158,1
DA:166,1
DA:166,1
DA:166,1
DA:166,1
DA:168,1
DA:169,1
DA:170,1
DA:172,1
DA:173,1
DA:174,1
DA:177,1
DA:177,1
DA:177,1
DA:177,1
DA:179,1
DA:180,1
DA:181,1
DA:183,1
DA:184,1
DA:185,1
DA:188,1
DA:188,1
DA:188,1
DA:188,1
DA:190,1
DA:191,1
DA:192,1
DA:194,1
DA:195,1
DA:196,1
DA:199,1
DA:199,1
DA:199,1
DA:199,1
DA:201,1
DA:202,1
DA:203,1
DA:205,1
DA:206,1
DA:207,1
DA:210,1
DA:210,1
DA:210,1
DA:210,1
DA:212,1
DA:213,1
DA:214,1
DA:216,1
DA:217,1
DA:218,1
DA:221,1
DA:221,1
DA:221,1
DA:221,1
DA:223,1
DA:224,1
DA:225,1
DA:227,1
DA:228,1
DA:229,1
DA:232,1
DA:232,1
DA:232,1
DA:232,1
DA:234,1
DA:235,1
DA:236,1
DA:238,1
DA:239,1
DA:240,1
DA:243,1
DA:243,1
DA:243,1
DA:243,1
DA:245,1
DA:246,1
DA:247,1
DA:249,1
DA:250,1
DA:251,1
DA:254,1
DA:254,1
DA:254,1
DA:254,1
DA:256,1
DA:257,1
DA:258,1
DA:260,1
DA:261,1
DA:262,1
DA:265,1
DA:265,1
DA:265,1
DA:265,1
DA:267,1
DA:268,1
DA:269,1
DA:271,1
DA:274,1
DA:275,1
DA:283,1
DA:283,1
DA:283,1
DA:283,1
DA:285,1
DA:286,1
DA:287,1
DA:289,1
DA:290,1
DA:291,1
DA:294,1
DA:294,1
DA:294,1
DA:294,1
DA:296,1
DA:297,1
DA:298,1
DA:300,1
DA:301,1
DA:302,1
DA:305,1
DA:305,1
DA:305,1
DA:305,1
DA:307,1
DA:308,1
DA:309,1
DA:311,1
DA:312,1
DA:313,1
DA:316,1
DA:316,1
DA:316,1
DA:316,1
DA:319,1
DA:320,1
DA:321,1
DA:323,1
DA:324,1
DA:325,1
DA:328,1
DA:328,1
DA:328,1
DA:328,1
DA:330,1
DA:331,1
DA:332,1
DA:334,1
DA:335,1
DA:336,1
DA:339,1
DA:339,1
DA:339,1
DA:339,1
DA:342,1
DA:343,1
DA:344,1
DA:345,1
DA:346,1
DA:349,1
DA:349,1
DA:349,1
DA:349,1
DA:353,1
DA:354,1
DA:355,1
DA:358,1
DA:359,1
DA:361,1
DA:362,1
DA:365,1
DA:365,1
DA:365,1
DA:365,1
DA:368,1
DA:369,1
DA:370,1
DA:372,1
DA:373,1
DA:374,1
DA:375,1
DA:378,1
DA:378,1
DA:378,1
DA:378,1
DA:381,1
DA:382,1
DA:383,1
DA:385,1
DA:386,1
DA:387,1
DA:390,1
DA:390,1
DA:390,1
DA:390,1
DA:393,1
DA:394,1
DA:395,1
DA:397,1
DA:398,1
DA:399,1
LF:306
LH:306
end_of_record
SF:C:/msys64/mingw64/include/c++/14.2.0/bits/char_traits.h
FN:136,_ZN9__gnu_cxx11char_traitsIcE2eqERKcS3_
FNDA:0,_ZN9__gnu_cxx11char_traitsIcE2eqERKcS3_
FN:199,_ZN9__gnu_cxx11char_traitsIcE6lengthEPKc
FNDA:0,_ZN9__gnu_cxx11char_traitsIcE6lengthEPKc
FN:385,_ZNSt11char_traitsIcE6lengthEPKc
FNDA:0,_ZNSt11char_traitsIcE6lengthEPKc
FN:419,_ZNSt11char_traitsIcE4copyEPcPKcy
FNDA:0,_ZNSt11char_traitsIcE4copyEPcPKcy
FNF:4
FNH:0
DA:136,0
DA:137,0
DA:199,0
DA:202,0
DA:203,0
DA:204,0
DA:205,0
DA:385,0
DA:388,0
DA:389,0
DA:391,0
DA:419,0
DA:421,0
DA:422,0
DA:427,0
LF:15
LH:0
end_of_record
SF:C:/Projects/GoogleTestProject/googletest/googletest/include/gtest/gtest-assertion-result.h
FN:155,_ZN7testing15AssertionResultC1IbEERKT_PNSt9enable_ifIXntsrSt14is_convertibleIS2_S0_E5valueEvE4typeE
FNDA:0,_ZN7testing15AssertionResultC1IbEERKT_PNSt9enable_ifIXntsrSt14is_convertibleIS2_S0_E5valueEvE4typeE
FN:174,_ZNK7testing15AssertionResultcvbEv
FNDA:0,_ZNK7testing15AssertionResultcvbEv
FN:183,_ZNK7testing15AssertionResult7messageEv
FNDA:0,_ZNK7testing15AssertionResult7messageEv
FN:187,_ZNK7testing15AssertionResult15failure_messageEv
FNDA:0,_ZNK7testing15AssertionResult15failure_messageEv
FNF:4
FNH:0
DA:155,0
DA:161,0
DA:174,0
DA:183,0
DA:184,0
DA:187,0
LF:6
LH:0
end_of_record
SF:C:/msys64/mingw64/include/c++/14.2.0/bits/new_allocator.h
FN:104,_ZNSt15__new_allocatorIcED2Ev
FNDA:0,_ZNSt15__new_allocatorIcED2Ev
FNF:1
FNH:0
DA:104,0
LF:1
LH:0
end_of_record
SF:C:/msys64/mingw64/include/c++/14.2.0/bits/basic_string.h
FN:646,_ZNSt7__cxx1112basic_stringIcSt11char_traitsIcESaIcEEC1IS3_EEPKcRKS3_
FNDA:0,_ZNSt7__cxx1112basic_stringIcSt11char_traitsIcESaIcEEC1IS3_EEPKcRKS3_
FNF:1
FNH:0
DA:360,0
DA:646,0
DA:647,0
DA:650,0
DA:651,0
DA:653,0
DA:654,0
DA:655,0
LF:8
LH:0
end_of_record
SF:C:/msys64/mingw64/include/c++/14.2.0/tuple
FN:89,_ZNSt10_Head_baseILy1ESt14default_deleteINSt7__cxx1112basic_stringIcSt11char_traitsIcESaIcEEEELb1EEC2Ev
FNDA:0,_ZNSt10_Head_baseILy1ESt14default_deleteINSt7__cxx1112basic_stringIcSt11char_traitsIcESaIcEEEELb1EEC2Ev
FN:133,_ZNSt10_Head_baseILy1ESt14default_deleteINSt7__cxx1118basic_stringstreamIcSt11char_traitsIcESaIcEEEELb1EE7_M_headERS8_
FNDA:0,_ZNSt10_Head_baseILy1ESt14default_deleteINSt7__cxx1118basic_stringstreamIcSt11char_traitsIcESaIcEEEELb1EE7_M_headERS8_
FN:133,_ZNSt10_Head_baseILy1ESt14default_deleteINSt7__cxx1112basic_stringIcSt11char_traitsIcESaIcEEEELb1EE7_M_headERS8_
FNDA:0,_ZNSt10_Head_baseILy1ESt14default_deleteINSt7__cxx1112basic_stringIcSt11char_traitsIcESaIcEEEELb1EE7_M_headERS8_
FN:198,_ZNSt10_Head_baseILy0EPNSt7__cxx1112basic_stringIcSt11char_traitsIcESaIcEEELb0EEC2Ev
FNDA:0,_ZNSt10_Head_baseILy0EPNSt7__cxx1112basic_stringIcSt11char_traitsIcESaIcEEELb0EEC2Ev
FN:242,_ZNSt10_Head_baseILy0EPNSt7__cxx1112basic_stringIcSt11char_traitsIcESaIcEEELb0EE7_M_headERS7_
FNDA:0,_ZNSt10_Head_baseILy0EPNSt7__cxx1112basic_stringIcSt11char_traitsIcESaIcEEELb0EE7_M_headERS7_
FN:242,_ZNSt10_Head_baseILy0EPNSt7__cxx1118basic_stringstreamIcSt11char_traitsIcESaIcEEELb0EE7_M_headERS7_
FNDA:0,_ZNSt10_Head_baseILy0EPNSt7__cxx1118basic_stringstreamIcSt11char_traitsIcESaIcEEELb0EE7_M_headERS7_
FN:245,_ZNSt10_Head_baseILy0EPNSt7__cxx1112basic_stringIcSt11char_traitsIcESaIcEEELb0EE7_M_headERKS7_
FNDA:0,_ZNSt10_Head_baseILy0EPNSt7__cxx1112basic_stringIcSt11char_traitsIcESaIcEEELb0EE7_M_headERKS7_
FN:293,_ZNSt11_Tuple_implILy0EJPNSt7__cxx1112basic_stringIcSt11char_traitsIcESaIcEEESt14default_deleteIS5_EEE7_M_headERS9_
FNDA:0,_ZNSt11_Tuple_implILy0EJPNSt7__cxx1112basic_stringIcSt11char_traitsIcESaIcEEESt14default_deleteIS5_EEE7_M_headERS9_
FN:293,_ZNSt11_Tuple_implILy0EJPNSt7__cxx1118basic_stringstreamIcSt11char_traitsIcESaIcEEESt14default_deleteIS5_EEE7_M_headERS9_
FNDA:0,_ZNSt11_Tuple_implILy0EJPNSt7__cxx1118basic_stringstreamIcSt11char_traitsIcESaIcEEESt14default_deleteIS5_EEE7_M_headERS9_
FN:296,_ZNSt11_Tuple_implILy0EJPNSt7__cxx1112basic_stringIcSt11char_traitsIcESaIcEEESt14default_deleteIS5_EEE7_M_headERKS9_
FNDA:0,_ZNSt11_Tuple_implILy0EJPNSt7__cxx1112basic_stringIcSt11char_traitsIcESaIcEEESt14default_deleteIS5_EEE7_M_headERKS9_
FN:304,_ZNSt11_Tuple_implILy0EJPNSt7__cxx1112basic_stringIcSt11char_traitsIcESaIcEEESt14default_deleteIS5_EEEC2Ev
FNDA:0,_ZNSt11_Tuple_implILy0EJPNSt7__cxx1112basic_stringIcSt11char_traitsIcESaIcEEESt14default_deleteIS5_EEEC2Ev
FN:556,_ZNSt11_Tuple_implILy1EJSt14default_deleteINSt7__cxx1118basic_stringstreamIcSt11char_traitsIcESaIcEEEEEE7_M_headERS8_
FNDA:0,_ZNSt11_Tuple_implILy1EJSt14default_deleteINSt7__cxx1118basic_stringstreamIcSt11char_traitsIcESaIcEEEEEE7_M_headERS8_
FN:556,_ZNSt11_Tuple_implILy1EJSt14default_deleteINSt7__cxx1112basic_stringIcSt11char_traitsIcESaIcEEEEEE7_M_headERS8_
FNDA:0,_ZNSt11_Tuple_implILy1EJSt14default_deleteINSt7__cxx1112basic_stringIcSt11char_traitsIcESaIcEEEEEE7_M_headERS8_
FN:562,_ZNSt11_Tuple_implILy1EJSt14default_deleteINSt7__cxx1112basic_stringIcSt11char_traitsIcESaIcEEEEEEC2Ev
FNDA:0,_ZNSt11_Tuple_implILy1EJSt14default_deleteINSt7__cxx1112basic_stringIcSt11char_traitsIcESaIcEEEEEEC2Ev
FN:2089,_ZNSt5tupleIJPNSt7__cxx1112basic_stringIcSt11char_traitsIcESaIcEEESt14default_deleteIS5_EEEC1ILb1ELb1EEEv
FNDA:0,_ZNSt5tupleIJPNSt7__cxx1112basic_stringIcSt11char_traitsIcESaIcEEESt14default_deleteIS5_EEEC1ILb1ELb1EEEv
FN:2427,_ZSt12__get_helperILy0EPNSt7__cxx1118basic_stringstreamIcSt11char_traitsIcESaIcEEEJSt14default_deleteIS5_EEERT0_RSt11_Tuple_implIXT_EJS9_DpT1_EE
FNDA:0,_ZSt12__get_helperILy0EPNSt7__cxx1118basic_stringstreamIcSt11char_traitsIcESaIcEEEJSt14default_deleteIS5_EEERT0_RSt11_Tuple_implIXT_EJS9_DpT1_EE
FN:2427,_ZSt12__get_helperILy0EPNSt7__cxx1112basic_stringIcSt11char_traitsIcESaIcEEEJSt14default_deleteIS5_EEERT0_RSt11_Tuple_implIXT_EJS9_DpT1_EE
FNDA:0,_ZSt12__get_helperILy0EPNSt7__cxx1112basic_stringIcSt11char_traitsIcESaIcEEEJSt14default_deleteIS5_EEERT0_RSt11_Tuple_implIXT_EJS9_DpT1_EE
FN:2427,_ZSt12__get_helperILy1ESt14default_deleteINSt7__cxx1112basic_stringIcSt11char_traitsIcESaIcEEEEJEERT0_RSt11_Tuple_implIXT_EJS8_DpT1_EE
FNDA:0,_ZSt12__get_helperILy1ESt14default_deleteINSt7__cxx1112basic_stringIcSt11char_traitsIcESaIcEEEEJEERT0_RSt11_Tuple_implIXT_EJS8_DpT1_EE
FN:2427,_ZSt12__get_helperILy1ESt14default_deleteINSt7__cxx1118basic_stringstreamIcSt11char_traitsIcESaIcEEEEJEERT0_RSt11_Tuple_implIXT_EJS8_DpT1_EE
FNDA:0,_ZSt12__get_helperILy1ESt14default_deleteINSt7__cxx1118basic_stringstreamIcSt11char_traitsIcESaIcEEEEJEERT0_RSt11_Tuple_implIXT_EJS8_DpT1_EE
FN:2432,_ZSt12__get_helperILy0EPNSt7__cxx1112basic_stringIcSt11char_traitsIcESaIcEEEJSt14default_deleteIS5_EEERKT0_RKSt11_Tuple_implIXT_EJS9_DpT1_EE
FNDA:0,_ZSt12__get_helperILy0EPNSt7__cxx1112basic_stringIcSt11char_traitsIcESaIcEEEJSt14default_deleteIS5_EEERKT0_RKSt11_Tuple_implIXT_EJS9_DpT1_EE
FN:2443,_ZSt3getILy1EJPNSt7__cxx1118basic_stringstreamIcSt11char_traitsIcESaIcEEESt14default_deleteIS5_EEERNSt13tuple_elementIXT_ESt5tupleIJDpT0_EEE4typeERSD_
FNDA:0,_ZSt3getILy1EJPNSt7__cxx1118basic_stringstreamIcSt11char_traitsIcESaIcEEESt14default_deleteIS5_EEERNSt13tuple_elementIXT_ESt5tupleIJDpT0_EEE4typeERSD_
FN:2443,_ZSt3getILy1EJPNSt7__cxx1112basic_stringIcSt11char_traitsIcESaIcEEESt14default_deleteIS5_EEERNSt13tuple_elementIXT_ESt5tupleIJDpT0_EEE4typeERSD_
FNDA:0,_ZSt3getILy1EJPNSt7__cxx1112basic_stringIcSt11char_traitsIcESaIcEEESt14default_deleteIS5_EEERNSt13tuple_elementIXT_ESt5tupleIJDpT0_EEE4typeERSD_
FN:2443,_ZSt3getILy0EJPNSt7__cxx1112basic_stringIcSt11char_traitsIcESaIcEEESt14default_deleteIS5_EEERNSt13tuple_elementIXT_ESt5tupleIJDpT0_EEE4typeERSD_
FNDA:0,_ZSt3getILy0EJPNSt7__cxx1112basic_stringIcSt11char_traitsIcESaIcEEESt14default_deleteIS5_EEERNSt13tuple_elementIXT_ESt5tupleIJDpT0_EEE4typeERSD_
FN:2443,_ZSt3getILy0EJPNSt7__cxx1118basic_stringstreamIcSt11char_traitsIcESaIcEEESt14default_deleteIS5_EEERNSt13tuple_elementIXT_ESt5tupleIJDpT0_EEE4typeERSD_
FNDA:0,_ZSt3getILy0EJPNSt7__cxx1118basic_stringstreamIcSt11char_traitsIcESaIcEEESt14default_deleteIS5_EEERNSt13tuple_elementIXT_ESt5tupleIJDpT0_EEE4typeERSD_
FN:2449,_ZSt3getILy0EJPNSt7__cxx1112basic_stringIcSt11char_traitsIcESaIcEEESt14default_deleteIS5_EEERKNSt13tuple_elementIXT_ESt5tupleIJDpT0_EEE4typeERKSD_
FNDA:0,_ZSt3getILy0EJPNSt7__cxx1112basic_stringIcSt11char_traitsIcESaIcEEESt14default_deleteIS5_EEERKNSt13tuple_elementIXT_ESt5tupleIJDpT0_EEE4typeERKSD_
FNF:25
FNH:0
DA:89,0
DA:90,0
DA:133,0
DA:133,0
DA:198,0
DA:199,0
DA:242,0
DA:242,0
DA:245,0
DA:293,0
DA:293,0
DA:296,0
DA:304,0
DA:305,0
DA:556,0
DA:556,0
DA:562,0
DA:563,0
DA:2089,0
DA:2091,0
DA:2427,0
DA:2428,0
DA:2427,0
DA:2428,0
DA:2427,0
DA:2428,0
DA:2427,0
DA:2428,0
DA:2432,0
DA:2433,0
DA:2443,0
DA:2444,0
DA:2443,0
DA:2444,0
DA:2443,0
DA:2444,0
DA:2443,0
DA:2444,0
DA:2449,0
DA:2450,0
LF:40
LH:0
end_of_record
SF:C:/msys64/mingw64/include/c++/14.2.0/cmath
FN:1126,_ZSt8isfinitef
FNDA:0,_ZSt8isfinitef
FNF:1
FNH:0
DA:1126,0
DA:1127,0
LF:2
LH:0
end_of_record
SF:C:/Projects/GoogleTestProject/googletest/googletest/include/gtest/gtest.h
FN:255,_ZN7testing4Test14SetUpTestSuiteEv
FNDA:0,_ZN7testing4Test14SetUpTestSuiteEv
FN:263,_ZN7testing4Test17TearDownTestSuiteEv
FNDA:0,_ZN7testing4Test17TearDownTestSuiteEv
FN:268,_ZN7testing4Test16TearDownTestCaseEv
FNDA:0,_ZN7testing4Test16TearDownTestCaseEv
FN:269,_ZN7testing4Test13SetUpTestCaseEv
FNDA:0,_ZN7testing4Test13SetUpTestCaseEv
FN:356,_ZN7testing4Test5SetupEv
FNDA:0,_ZN7testing4Test5SetupEv
FN:1582,_ZN7testing8internal24CmpHelperFloatingPointEQIfEENS_15AssertionResultEPKcS4_T_S5_
FNDA:0,_ZN7testing8internal24CmpHelperFloatingPointEQIfEENS_15AssertionResultEPKcS4_T_S5_
FNF:6
FNH:0
DA:255,0
DA:263,0
DA:268,0
DA:269,0
DA:356,0
DA:1582,0
DA:1585,0
DA:1587,0
DA:1588,0
DA:1591,0
DA:1592,0
DA:1593,0
DA:1595,0
DA:1596,0
DA:1597,0
DA:1600,0
DA:1601,0
DA:1602,0
LF:18
LH:0
end_of_record
SF:C:/msys64/mingw64/include/c++/14.2.0/bits/move.h
FN:126,_ZSt4moveIRPNSt7__cxx1112basic_stringIcSt11char_traitsIcESaIcEEEEONSt16remove_referenceIT_E4typeEOS9_
FNDA:0,_ZSt4moveIRPNSt7__cxx1112basic_stringIcSt11char_traitsIcESaIcEEEEONSt16remove_referenceIT_E4typeEOS9_
FN:126,_ZSt4moveIRPNSt7__cxx1118basic_stringstreamIcSt11char_traitsIcESaIcEEEEONSt16remove_referenceIT_E4typeEOS9_
FNDA:0,_ZSt4moveIRPNSt7__cxx1118basic_stringstreamIcSt11char_traitsIcESaIcEEEEONSt16remove_referenceIT_E4typeEOS9_
FN:126,_ZSt4moveIRSaIcEEONSt16remove_referenceIT_E4typeEOS3_
FNDA:0,_ZSt4moveIRSaIcEEONSt16remove_referenceIT_E4typeEOS3_
FN:126,_ZSt4moveIRNSt7__cxx1112basic_stringIcSt11char_traitsIcESaIcEEEEONSt16remove_referenceIT_E4typeEOS8_
FNDA:0,_ZSt4moveIRNSt7__cxx1112basic_stringIcSt11char_traitsIcESaIcEEEEONSt16remove_referenceIT_E4typeEOS8_
FNF:4
FNH:0
DA:126,0
DA:127,0
DA:126,0
DA:127,0
DA:126,0
DA:127,0
DA:126,0
DA:127,0
LF:8
LH:0
end_of_record
SF:C:/msys64/mingw64/include/c++/14.2.0/x86_64-w64-mingw32/bits/c++config.h
DA:550,0
LF:1
LH:0
end_of_record
SF:C:/msys64/mingw64/include/c++/14.2.0/bits/stl_iterator_base_funcs.h
DA:106,0
DA:151,0
DA:152,0
LF:3
LH:0
end_of_record
SF:C:/msys64/mingw64/include/c++/14.2.0/bits/allocator.h
LF:0
LH:0
end_of_record
SF:C:/Projects/GoogleTestProject/googletest/googletest/include/gtest/internal/gtest-internal.h
FN:293,_ZN7testing8internal13FloatingPointIfEC1ERKf
FNDA:0,_ZN7testing8internal13FloatingPointIfEC1ERKf
FN:315,_ZNK7testing8internal13FloatingPointIfE13exponent_bitsEv
FNDA:0,_ZNK7testing8internal13FloatingPointIfE13exponent_bitsEv
FN:318,_ZNK7testing8internal13FloatingPointIfE13fraction_bitsEv
FNDA:0,_ZNK7testing8internal13FloatingPointIfE13fraction_bitsEv
FN:324,_ZNK7testing8internal13FloatingPointIfE6is_nanEv
FNDA:0,_ZNK7testing8internal13FloatingPointIfE6is_nanEv
FN:336,_ZNK7testing8internal13FloatingPointIfE12AlmostEqualsERKS2_
FNDA:0,_ZNK7testing8internal13FloatingPointIfE12AlmostEqualsERKS2_
FN:367,_ZN7testing8internal13FloatingPointIfE24SignAndMagnitudeToBiasedERKj
FNDA:0,_ZN7testing8internal13FloatingPointIfE24SignAndMagnitudeToBiasedERKj
FN:379,_ZN7testing8internal13FloatingPointIfE38DistanceBetweenSignAndMagnitudeNumbersERKjS4_
FNDA:0,_ZN7testing8internal13FloatingPointIfE38DistanceBetweenSignAndMagnitudeNumbersERKjS4_
FN:418,_ZN7testing8internal9GetTypeIdI22AccOutputSelectionTestEEPKvv
FNDA:60,_ZN7testing8internal9GetTypeIdI22AccOutputSelectionTestEEPKvv
FN:437,_ZN7testing8internal15TestFactoryBaseD2Ev
FNDA:0,_ZN7testing8internal15TestFactoryBaseD2Ev
FN:444,_ZN7testing8internal15TestFactoryBaseC2Ev
FNDA:0,_ZN7testing8internal15TestFactoryBaseC2Ev
FN:456,_ZN7testing8internal15TestFactoryImplI44AccOutputSelectionTest_TC_ACC_OUT_RA_03_TestE10CreateTestEv
FNDA:1,_ZN7testing8internal15TestFactoryImplI44AccOutputSelectionTest_TC_ACC_OUT_RA_03_TestE10CreateTestEv
FN:456,_ZN7testing8internal15TestFactoryImplI44AccOutputSelectionTest_TC_ACC_OUT_RA_10_TestE10CreateTestEv
FNDA:1,_ZN7testing8internal15TestFactoryImplI44AccOutputSelectionTest_TC_ACC_OUT_RA_10_TestE10CreateTestEv
FN:456,_ZN7testing8internal15TestFactoryImplI44AccOutputSelectionTest_TC_ACC_OUT_RA_09_TestE10CreateTestEv
FNDA:1,_ZN7testing8internal15TestFactoryImplI44AccOutputSelectionTest_TC_ACC_OUT_RA_09_TestE10CreateTestEv
FN:456,_ZN7testing8internal15TestFactoryImplI44AccOutputSelectionTest_TC_ACC_OUT_RA_08_TestE10CreateTestEv
FNDA:1,_ZN7testing8internal15TestFactoryImplI44AccOutputSelectionTest_TC_ACC_OUT_RA_08_TestE10CreateTestEv
FN:456,_ZN7testing8internal15TestFactoryImplI44AccOutputSelectionTest_TC_ACC_OUT_RA_07_TestE10CreateTestEv
FNDA:1,_ZN7testing8internal15TestFactoryImplI44AccOutputSelectionTest_TC_ACC_OUT_RA_07_TestE10CreateTestEv
FN:456,_ZN7testing8internal15TestFactoryImplI44AccOutputSelectionTest_TC_ACC_OUT_RA_06_TestE10CreateTestEv
FNDA:1,_ZN7testing8internal15TestFactoryImplI44AccOutputSelectionTest_TC_ACC_OUT_RA_06_TestE10CreateTestEv
FN:456,_ZN7testing8internal15TestFactoryImplI44AccOutputSelectionTest_TC_ACC_OUT_RA_05_TestE10CreateTestEv
FNDA:1,_ZN7testing8internal15TestFactoryImplI44AccOutputSelectionTest_TC_ACC_OUT_RA_05_TestE10CreateTestEv
FN:456,_ZN7testing8internal15TestFactoryImplI44AccOutputSelectionTest_TC_ACC_OUT_RA_04_TestE10CreateTestEv
FNDA:1,_ZN7testing8internal15TestFactoryImplI44AccOutputSelectionTest_TC_ACC_OUT_RA_04_TestE10CreateTestEv
FN:456,_ZN7testing8internal15TestFactoryImplI44AccOutputSelectionTest_TC_ACC_OUT_EQ_01_TestE10CreateTestEv
FNDA:1,_ZN7testing8internal15TestFactoryImplI44AccOutputSelectionTest_TC_ACC_OUT_EQ_01_TestE10CreateTestEv
FN:456,_ZN7testing8internal15TestFactoryImplI44AccOutputSelectionTest_TC_ACC_OUT_RA_02_TestE10CreateTestEv
FNDA:1,_ZN7testing8internal15TestFactoryImplI44AccOutputSelectionTest_TC_ACC_OUT_RA_02_TestE10CreateTestEv
FN:456,_ZN7testing8internal15TestFactoryImplI44AccOutputSelectionTest_TC_ACC_OUT_EQ_09_TestE10CreateTestEv
FNDA:1,_ZN7testing8internal15TestFactoryImplI44AccOutputSelectionTest_TC_ACC_OUT_EQ_09_TestE10CreateTestEv
FN:456,_ZN7testing8internal15TestFactoryImplI44AccOutputSelectionTest_TC_ACC_OUT_EQ_02_TestE10CreateTestEv
FNDA:1,_ZN7testing8internal15TestFactoryImplI44AccOutputSelectionTest_TC_ACC_OUT_EQ_02_TestE10CreateTestEv
FN:456,_ZN7testing8internal15TestFactoryImplI44AccOutputSelectionTest_TC_ACC_OUT_EQ_03_TestE10CreateTestEv
FNDA:1,_ZN7testing8internal15TestFactoryImplI44AccOutputSelectionTest_TC_ACC_OUT_EQ_03_TestE10CreateTestEv
FN:456,_ZN7testing8internal15TestFactoryImplI44AccOutputSelectionTest_TC_ACC_OUT_EQ_04_TestE10CreateTestEv
FNDA:1,_ZN7testing8internal15TestFactoryImplI44AccOutputSelectionTest_TC_ACC_OUT_EQ_04_TestE10CreateTestEv
FN:456,_ZN7testing8internal15TestFactoryImplI44AccOutputSelectionTest_TC_ACC_OUT_EQ_05_TestE10CreateTestEv
FNDA:1,_ZN7testing8internal15TestFactoryImplI44AccOutputSelectionTest_TC_ACC_OUT_EQ_05_TestE10CreateTestEv
FN:456,_ZN7testing8internal15TestFactoryImplI44AccOutputSelectionTest_TC_ACC_OUT_EQ_06_TestE10CreateTestEv
FNDA:1,_ZN7testing8internal15TestFactoryImplI44AccOutputSelectionTest_TC_ACC_OUT_EQ_06_TestE10CreateTestEv
FN:456,_ZN7testing8internal15TestFactoryImplI44AccOutputSelectionTest_TC_ACC_OUT_EQ_07_TestE10CreateTestEv
FNDA:1,_ZN7testing8internal15TestFactoryImplI44AccOutputSelectionTest_TC_ACC_OUT_EQ_07_TestE10CreateTestEv
FN:456,_ZN7testing8internal15TestFactoryImplI44AccOutputSelectionTest_TC_ACC_OUT_EQ_08_TestE10CreateTestEv
FNDA:1,_ZN7testing8internal15TestFactoryImplI44AccOutputSelectionTest_TC_ACC_OUT_EQ_08_TestE10CreateTestEv
FN:456,_ZN7testing8internal15TestFactoryImplI44AccOutputSelectionTest_TC_ACC_OUT_RA_01_TestE10CreateTestEv
FNDA:1,_ZN7testing8internal15TestFactoryImplI44AccOutputSelectionTest_TC_ACC_OUT_RA_01_TestE10CreateTestEv
FN:456,_ZN7testing8internal15TestFactoryImplI44AccOutputSelectionTest_TC_ACC_OUT_EQ_10_TestE10CreateTestEv
FNDA:1,_ZN7testing8internal15TestFactoryImplI44AccOutputSelectionTest_TC_ACC_OUT_EQ_10_TestE10CreateTestEv
FN:456,_ZN7testing8internal15TestFactoryImplI44AccOutputSelectionTest_TC_ACC_OUT_BV_01_TestE10CreateTestEv
FNDA:1,_ZN7testing8internal15TestFactoryImplI44AccOutputSelectionTest_TC_ACC_OUT_BV_01_TestE10CreateTestEv
FN:456,_ZN7testing8internal15TestFactoryImplI44AccOutputSelectionTest_TC_ACC_OUT_BV_02_TestE10CreateTestEv
FNDA:1,_ZN7testing8internal15TestFactoryImplI44AccOutputSelectionTest_TC_ACC_OUT_BV_02_TestE10CreateTestEv
FN:456,_ZN7testing8internal15TestFactoryImplI44AccOutputSelectionTest_TC_ACC_OUT_BV_03_TestE10CreateTestEv
FNDA:1,_ZN7testing8internal15TestFactoryImplI44AccOutputSelectionTest_TC_ACC_OUT_BV_03_TestE10CreateTestEv
FN:456,_ZN7testing8internal15TestFactoryImplI44AccOutputSelectionTest_TC_ACC_OUT_BV_04_TestE10CreateTestEv
FNDA:1,_ZN7testing8internal15TestFactoryImplI44AccOutputSelectionTest_TC_ACC_OUT_BV_04_TestE10CreateTestEv
FN:456,_ZN7testing8internal15TestFactoryImplI44AccOutputSelectionTest_TC_ACC_OUT_BV_05_TestE10CreateTestEv
FNDA:1,_ZN7testing8internal15TestFactoryImplI44AccOutputSelectionTest_TC_ACC_OUT_BV_05_TestE10CreateTestEv
FN:456,_ZN7testing8internal15TestFactoryImplI44AccOutputSelectionTest_TC_ACC_OUT_BV_06_TestE10CreateTestEv
FNDA:1,_ZN7testing8internal15TestFactoryImplI44AccOutputSelectionTest_TC_ACC_OUT_BV_06_TestE10CreateTestEv
FN:456,_ZN7testing8internal15TestFactoryImplI44AccOutputSelectionTest_TC_ACC_OUT_BV_07_TestE10CreateTestEv
FNDA:1,_ZN7testing8internal15TestFactoryImplI44AccOutputSelectionTest_TC_ACC_OUT_BV_07_TestE10CreateTestEv
FN:456,_ZN7testing8internal15TestFactoryImplI44AccOutputSelectionTest_TC_ACC_OUT_BV_08_TestE10CreateTestEv
FNDA:1,_ZN7testing8internal15TestFactoryImplI44AccOutputSelectionTest_TC_ACC_OUT_BV_08_TestE10CreateTestEv
FN:456,_ZN7testing8internal15TestFactoryImplI44AccOutputSelectionTest_TC_ACC_OUT_BV_09_TestE10CreateTestEv
FNDA:1,_ZN7testing8internal15TestFactoryImplI44AccOutputSelectionTest_TC_ACC_OUT_BV_09_TestE10CreateTestEv
FN:456,_ZN7testing8internal15TestFactoryImplI44AccOutputSelectionTest_TC_ACC_OUT_BV_10_TestE10CreateTestEv
FNDA:1,_ZN7testing8internal15TestFactoryImplI44AccOutputSelectionTest_TC_ACC_OUT_BV_10_TestE10CreateTestEv
FN:477,_ZN7testing8internal12CodeLocationC1ENSt7__cxx1112basic_stringIcSt11char_traitsIcESaIcEEEi
FNDA:0,_ZN7testing8internal12CodeLocationC1ENSt7__cxx1112basic_stringIcSt11char_traitsIcESaIcEEEi
FN:490,_ZN7testing8internal19GetNotDefaultOrNullEPFvvES2_
FNDA:0,_ZN7testing8internal19GetNotDefaultOrNullEPFvvES2_
FN:505,_ZN7testing8internal16SuiteApiResolverI22AccOutputSelectionTestE19GetSetUpCaseOrSuiteEPKci
FNDA:60,_ZN7testing8internal16SuiteApiResolverI22AccOutputSelectionTestE19GetSetUpCaseOrSuiteEPKci
FN:526,_ZN7testing8internal16SuiteApiResolverI22AccOutputSelectionTestE22GetTearDownCaseOrSuiteEPKci
FNDA:60,_ZN7testing8internal16SuiteApiResolverI22AccOutputSelectionTestE22GetTearDownCaseOrSuiteEPKci
FNF:44
FNH:33
DA:293,0
DA:315,0
DA:318,0
DA:324,0
DA:327,0
DA:336,0
DA:339,0
DA:341,0
DA:342,0
DA:367,0
DA:368,0
DA:370,0
DA:373,0
DA:379,0
DA:381,0
DA:382,0
DA:383,0
DA:418,60
DA:423,60
DA:437,0
DA:444,0
DA:456,1
DA:456,1
DA:456,1
DA:456,1
DA:456,1
DA:456,1
DA:456,1
DA:456,1
DA:456,1
DA:456,1
DA:456,1
DA:456,1
DA:456,1
DA:456,1
DA:456,1
DA:456,1
DA:456,1
DA:456,1
DA:456,1
DA:456,1
DA:456,1
DA:456,1
DA:456,1
DA:456,1
DA:456,1
DA:456,1
DA:456,1
DA:456,1
DA:456,1
DA:456,1
DA:477,0
DA:478,0
DA:490,0
DA:492,0
DA:505,60
DA:509,60
DA:511,60
DA:513,60
DA:516,0
DA:518,60
DA:526,60
DA:530,60
DA:532,60
DA:534,60
DA:537,0
DA:539,60
LF:67
LH:42
end_of_record
SF:C:/msys64/mingw64/include/c++/14.2.0/bits/stl_iterator_base_types.h
DA:240,0
LF:1
LH:0
end_of_record
TN:
SF:C:/msys64/mingw64/include/c++/14.2.0/x86_64-w64-mingw32/bits/c++config.h
DA:550,0
DA:606,0
LF:2
LH:0
end_of_record
SF:C:/msys64/mingw64/include/c++/14.2.0/bits/stl_iterator_base_funcs.h
DA:106,0
DA:151,0
DA:152,0
LF:3
LH:0
end_of_record
SF:C:/msys64/mingw64/include/c++/14.2.0/bits/move.h
FN:70,_ZSt7forwardISt14default_deleteINSt7__cxx1112basic_stringIcSt11char_traitsIcESaIcEEEEEOT_RNSt16remove_referenceIS8_E4typeE
FNDA:0,_ZSt7forwardISt14default_deleteINSt7__cxx1112basic_stringIcSt11char_traitsIcESaIcEEEEEOT_RNSt16remove_referenceIS8_E4typeE
FN:126,_ZSt4moveIRPNSt7__cxx1112basic_stringIcSt11char_traitsIcESaIcEEEEONSt16remove_referenceIT_E4typeEOS9_
FNDA:0,_ZSt4moveIRPNSt7__cxx1112basic_stringIcSt11char_traitsIcESaIcEEEEONSt16remove_referenceIT_E4typeEOS9_
FN:126,_ZSt4moveIRPNSt7__cxx1118basic_stringstreamIcSt11char_traitsIcESaIcEEEEONSt16remove_referenceIT_E4typeEOS9_
FNDA:0,_ZSt4moveIRPNSt7__cxx1118basic_stringstreamIcSt11char_traitsIcESaIcEEEEONSt16remove_referenceIT_E4typeEOS9_
FN:126,_ZSt4moveIRSaIcEEONSt16remove_referenceIT_E4typeEOS3_
FNDA:0,_ZSt4moveIRSaIcEEONSt16remove_referenceIT_E4typeEOS3_
FN:126,_ZSt4moveIRNSt7__cxx1112basic_stringIcSt11char_traitsIcESaIcEEEEONSt16remove_referenceIT_E4typeEOS8_
FNDA:0,_ZSt4moveIRNSt7__cxx1112basic_stringIcSt11char_traitsIcESaIcEEEEONSt16remove_referenceIT_E4typeEOS8_
FNF:5
FNH:0
DA:70,0
DA:71,0
DA:126,0
DA:127,0
DA:126,0
DA:127,0
DA:126,0
DA:127,0
DA:126,0
DA:127,0
LF:10
LH:0
end_of_record
SF:C:/msys64/mingw64/include/c++/14.2.0/bits/stl_iterator_base_types.h
DA:240,0
LF:1
LH:0
end_of_record
SF:C:/msys64/mingw64/include/c++/14.2.0/bits/allocator.h
LF:0
LH:0
end_of_record
SF:C:/Projects/GoogleTestProject/googletest/googletest/include/gtest/internal/gtest-internal.h
FN:293,_ZN7testing8internal13FloatingPointIfEC1ERKf
FNDA:0,_ZN7testing8internal13FloatingPointIfEC1ERKf
FN:315,_ZNK7testing8internal13FloatingPointIfE13exponent_bitsEv
FNDA:0,_ZNK7testing8internal13FloatingPointIfE13exponent_bitsEv
FN:318,_ZNK7testing8internal13FloatingPointIfE13fraction_bitsEv
FNDA:0,_ZNK7testing8internal13FloatingPointIfE13fraction_bitsEv
FN:324,_ZNK7testing8internal13FloatingPointIfE6is_nanEv
FNDA:0,_ZNK7testing8internal13FloatingPointIfE6is_nanEv
FN:336,_ZNK7testing8internal13FloatingPointIfE12AlmostEqualsERKS2_
FNDA:0,_ZNK7testing8internal13FloatingPointIfE12AlmostEqualsERKS2_
FN:367,_ZN7testing8internal13FloatingPointIfE24SignAndMagnitudeToBiasedERKj
FNDA:0,_ZN7testing8internal13FloatingPointIfE24SignAndMagnitudeToBiasedERKj
FN:379,_ZN7testing8internal13FloatingPointIfE38DistanceBetweenSignAndMagnitudeNumbersERKjS4_
FNDA:0,_ZN7testing8internal13FloatingPointIfE38DistanceBetweenSignAndMagnitudeNumbersERKjS4_
FN:418,_ZN7testing8internal9GetTypeIdI15AccSpeedPidTestEEPKvv
FNDA:180,_ZN7testing8internal9GetTypeIdI15AccSpeedPidTestEEPKvv
FN:437,_ZN7testing8internal15TestFactoryBaseD2Ev
FNDA:0,_ZN7testing8internal15TestFactoryBaseD2Ev
FN:444,_ZN7testing8internal15TestFactoryBaseC2Ev
FNDA:0,_ZN7testing8internal15TestFactoryBaseC2Ev
FN:456,_ZN7testing8internal15TestFactoryImplI39AccSpeedPidTest_TC_ACC_SPEED_RA_10_TestE10CreateTestEv
FNDA:1,_ZN7testing8internal15TestFactoryImplI39AccSpeedPidTest_TC_ACC_SPEED_RA_10_TestE10CreateTestEv
FN:456,_ZN7testing8internal15TestFactoryImplI39AccSpeedPidTest_TC_ACC_SPEED_BV_22_TestE10CreateTestEv
FNDA:1,_ZN7testing8internal15TestFactoryImplI39AccSpeedPidTest_TC_ACC_SPEED_BV_22_TestE10CreateTestEv
FN:456,_ZN7testing8internal15TestFactoryImplI39AccSpeedPidTest_TC_ACC_SPEED_RA_09_TestE10CreateTestEv
FNDA:1,_ZN7testing8internal15TestFactoryImplI39AccSpeedPidTest_TC_ACC_SPEED_RA_09_TestE10CreateTestEv
FN:456,_ZN7testing8internal15TestFactoryImplI39AccSpeedPidTest_TC_ACC_SPEED_RA_08_TestE10CreateTestEv
FNDA:1,_ZN7testing8internal15TestFactoryImplI39AccSpeedPidTest_TC_ACC_SPEED_RA_08_TestE10CreateTestEv
FN:456,_ZN7testing8internal15TestFactoryImplI39AccSpeedPidTest_TC_ACC_SPEED_RA_07_TestE10CreateTestEv
FNDA:1,_ZN7testing8internal15TestFactoryImplI39AccSpeedPidTest_TC_ACC_SPEED_RA_07_TestE10CreateTestEv
FN:456,_ZN7testing8internal15TestFactoryImplI39AccSpeedPidTest_TC_ACC_SPEED_RA_06_TestE10CreateTestEv
FNDA:1,_ZN7testing8internal15TestFactoryImplI39AccSpeedPidTest_TC_ACC_SPEED_RA_06_TestE10CreateTestEv
FN:456,_ZN7testing8internal15TestFactoryImplI39AccSpeedPidTest_TC_ACC_SPEED_RA_05_TestE10CreateTestEv
FNDA:1,_ZN7testing8internal15TestFactoryImplI39AccSpeedPidTest_TC_ACC_SPEED_RA_05_TestE10CreateTestEv
FN:456,_ZN7testing8internal15TestFactoryImplI39AccSpeedPidTest_TC_ACC_SPEED_RA_04_TestE10CreateTestEv
FNDA:1,_ZN7testing8internal15TestFactoryImplI39AccSpeedPidTest_TC_ACC_SPEED_RA_04_TestE10CreateTestEv
FN:456,_ZN7testing8internal15TestFactoryImplI39AccSpeedPidTest_TC_ACC_SPEED_RA_03_TestE10CreateTestEv
FNDA:1,_ZN7testing8internal15TestFactoryImplI39AccSpeedPidTest_TC_ACC_SPEED_RA_03_TestE10CreateTestEv
FN:456,_ZN7testing8internal15TestFactoryImplI39AccSpeedPidTest_TC_ACC_SPEED_RA_02_TestE10CreateTestEv
FNDA:1,_ZN7testing8internal15TestFactoryImplI39AccSpeedPidTest_TC_ACC_SPEED_RA_02_TestE10CreateTestEv
FN:456,_ZN7testing8internal15TestFactoryImplI39AccSpeedPidTest_TC_ACC_SPEED_RA_01_TestE10CreateTestEv
FNDA:1,_ZN7testing8internal15TestFactoryImplI39AccSpeedPidTest_TC_ACC_SPEED_RA_01_TestE10CreateTestEv
FN:456,_ZN7testing8internal15TestFactoryImplI39AccSpeedPidTest_TC_ACC_SPEED_BV_30_TestE10CreateTestEv
FNDA:1,_ZN7testing8internal15TestFactoryImplI39AccSpeedPidTest_TC_ACC_SPEED_BV_30_TestE10CreateTestEv
FN:456,_ZN7testing8internal15TestFactoryImplI39AccSpeedPidTest_TC_ACC_SPEED_BV_29_TestE10CreateTestEv
FNDA:1,_ZN7testing8internal15TestFactoryImplI39AccSpeedPidTest_TC_ACC_SPEED_BV_29_TestE10CreateTestEv
FN:456,_ZN7testing8internal15TestFactoryImplI39AccSpeedPidTest_TC_ACC_SPEED_BV_28_TestE10CreateTestEv
FNDA:1,_ZN7testing8internal15TestFactoryImplI39AccSpeedPidTest_TC_ACC_SPEED_BV_28_TestE10CreateTestEv
FN:456,_ZN7testing8internal15TestFactoryImplI39AccSpeedPidTest_TC_ACC_SPEED_BV_27_TestE10CreateTestEv
FNDA:1,_ZN7testing8internal15TestFactoryImplI39AccSpeedPidTest_TC_ACC_SPEED_BV_27_TestE10CreateTestEv
FN:456,_ZN7testing8internal15TestFactoryImplI39AccSpeedPidTest_TC_ACC_SPEED_BV_26_TestE10CreateTestEv
FNDA:1,_ZN7testing8internal15TestFactoryImplI39AccSpeedPidTest_TC_ACC_SPEED_BV_26_TestE10CreateTestEv
FN:456,_ZN7testing8internal15TestFactoryImplI39AccSpeedPidTest_TC_ACC_SPEED_BV_25_TestE10CreateTestEv
FNDA:1,_ZN7testing8internal15TestFactoryImplI39AccSpeedPidTest_TC_ACC_SPEED_BV_25_TestE10CreateTestEv
FN:456,_ZN7testing8internal15TestFactoryImplI39AccSpeedPidTest_TC_ACC_SPEED_BV_24_TestE10CreateTestEv
FNDA:1,_ZN7testing8internal15TestFactoryImplI39AccSpeedPidTest_TC_ACC_SPEED_BV_24_TestE10CreateTestEv
FN:456,_ZN7testing8internal15TestFactoryImplI39AccSpeedPidTest_TC_ACC_SPEED_EQ_01_TestE10CreateTestEv
FNDA:1,_ZN7testing8internal15TestFactoryImplI39AccSpeedPidTest_TC_ACC_SPEED_EQ_01_TestE10CreateTestEv
FN:456,_ZN7testing8internal15TestFactoryImplI39AccSpeedPidTest_TC_ACC_SPEED_BV_23_TestE10CreateTestEv
FNDA:1,_ZN7testing8internal15TestFactoryImplI39AccSpeedPidTest_TC_ACC_SPEED_BV_23_TestE10CreateTestEv
FN:456,_ZN7testing8internal15TestFactoryImplI39AccSpeedPidTest_TC_ACC_SPEED_RA_21_TestE10CreateTestEv
FNDA:1,_ZN7testing8internal15TestFactoryImplI39AccSpeedPidTest_TC_ACC_SPEED_RA_21_TestE10CreateTestEv
FN:456,_ZN7testing8internal15TestFactoryImplI39AccSpeedPidTest_TC_ACC_SPEED_RA_30_TestE10CreateTestEv
FNDA:1,_ZN7testing8internal15TestFactoryImplI39AccSpeedPidTest_TC_ACC_SPEED_RA_30_TestE10CreateTestEv
FN:456,_ZN7testing8internal15TestFactoryImplI39AccSpeedPidTest_TC_ACC_SPEED_RA_29_TestE10CreateTestEv
FNDA:1,_ZN7testing8internal15TestFactoryImplI39AccSpeedPidTest_TC_ACC_SPEED_RA_29_TestE10CreateTestEv
FN:456,_ZN7testing8internal15TestFactoryImplI39AccSpeedPidTest_TC_ACC_SPEED_RA_28_TestE10CreateTestEv
FNDA:1,_ZN7testing8internal15TestFactoryImplI39AccSpeedPidTest_TC_ACC_SPEED_RA_28_TestE10CreateTestEv
FN:456,_ZN7testing8internal15TestFactoryImplI39AccSpeedPidTest_TC_ACC_SPEED_RA_27_TestE10CreateTestEv
FNDA:1,_ZN7testing8internal15TestFactoryImplI39AccSpeedPidTest_TC_ACC_SPEED_RA_27_TestE10CreateTestEv
FN:456,_ZN7testing8internal15TestFactoryImplI39AccSpeedPidTest_TC_ACC_SPEED_RA_26_TestE10CreateTestEv
FNDA:1,_ZN7testing8internal15TestFactoryImplI39AccSpeedPidTest_TC_ACC_SPEED_RA_26_TestE10CreateTestEv
FN:456,_ZN7testing8internal15TestFactoryImplI39AccSpeedPidTest_TC_ACC_SPEED_RA_25_TestE10CreateTestEv
FNDA:1,_ZN7testing8internal15TestFactoryImplI39AccSpeedPidTest_TC_ACC_SPEED_RA_25_TestE10CreateTestEv
FN:456,_ZN7testing8internal15TestFactoryImplI39AccSpeedPidTest_TC_ACC_SPEED_RA_24_TestE10CreateTestEv
FNDA:1,_ZN7testing8internal15TestFactoryImplI39AccSpeedPidTest_TC_ACC_SPEED_RA_24_TestE10CreateTestEv
FN:456,_ZN7testing8internal15TestFactoryImplI39AccSpeedPidTest_TC_ACC_SPEED_RA_23_TestE10CreateTestEv
FNDA:1,_ZN7testing8internal15TestFactoryImplI39AccSpeedPidTest_TC_ACC_SPEED_RA_23_TestE10CreateTestEv
FN:456,_ZN7testing8internal15TestFactoryImplI39AccSpeedPidTest_TC_ACC_SPEED_RA_22_TestE10CreateTestEv
FNDA:1,_ZN7testing8internal15TestFactoryImplI39AccSpeedPidTest_TC_ACC_SPEED_RA_22_TestE10CreateTestEv
FN:456,_ZN7testing8internal15TestFactoryImplI39AccSpeedPidTest_TC_ACC_SPEED_RA_11_TestE10CreateTestEv
FNDA:1,_ZN7testing8internal15TestFactoryImplI39AccSpeedPidTest_TC_ACC_SPEED_RA_11_TestE10CreateTestEv
FN:456,_ZN7testing8internal15TestFactoryImplI39AccSpeedPidTest_TC_ACC_SPEED_RA_20_TestE10CreateTestEv
FNDA:1,_ZN7testing8internal15TestFactoryImplI39AccSpeedPidTest_TC_ACC_SPEED_RA_20_TestE10CreateTestEv
FN:456,_ZN7testing8internal15TestFactoryImplI39AccSpeedPidTest_TC_ACC_SPEED_RA_19_TestE10CreateTestEv
FNDA:1,_ZN7testing8internal15TestFactoryImplI39AccSpeedPidTest_TC_ACC_SPEED_RA_19_TestE10CreateTestEv
FN:456,_ZN7testing8internal15TestFactoryImplI39AccSpeedPidTest_TC_ACC_SPEED_RA_18_TestE10CreateTestEv
FNDA:1,_ZN7testing8internal15TestFactoryImplI39AccSpeedPidTest_TC_ACC_SPEED_RA_18_TestE10CreateTestEv
FN:456,_ZN7testing8internal15TestFactoryImplI39AccSpeedPidTest_TC_ACC_SPEED_RA_17_TestE10CreateTestEv
FNDA:1,_ZN7testing8internal15TestFactoryImplI39AccSpeedPidTest_TC_ACC_SPEED_RA_17_TestE10CreateTestEv
FN:456,_ZN7testing8internal15TestFactoryImplI39AccSpeedPidTest_TC_ACC_SPEED_RA_16_TestE10CreateTestEv
FNDA:1,_ZN7testing8internal15TestFactoryImplI39AccSpeedPidTest_TC_ACC_SPEED_RA_16_TestE10CreateTestEv
FN:456,_ZN7testing8internal15TestFactoryImplI39AccSpeedPidTest_TC_ACC_SPEED_RA_15_TestE10CreateTestEv
FNDA:1,_ZN7testing8internal15TestFactoryImplI39AccSpeedPidTest_TC_ACC_SPEED_RA_15_TestE10CreateTestEv
FN:456,_ZN7testing8internal15TestFactoryImplI39AccSpeedPidTest_TC_ACC_SPEED_RA_14_TestE10CreateTestEv
FNDA:1,_ZN7testing8internal15TestFactoryImplI39AccSpeedPidTest_TC_ACC_SPEED_RA_14_TestE10CreateTestEv
FN:456,_ZN7testing8internal15TestFactoryImplI39AccSpeedPidTest_TC_ACC_SPEED_RA_13_TestE10CreateTestEv
FNDA:1,_ZN7testing8internal15TestFactoryImplI39AccSpeedPidTest_TC_ACC_SPEED_RA_13_TestE10CreateTestEv
FN:456,_ZN7testing8internal15TestFactoryImplI39AccSpeedPidTest_TC_ACC_SPEED_RA_12_TestE10CreateTestEv
FNDA:1,_ZN7testing8internal15TestFactoryImplI39AccSpeedPidTest_TC_ACC_SPEED_RA_12_TestE10CreateTestEv
FN:456,_ZN7testing8internal15TestFactoryImplI39AccSpeedPidTest_TC_ACC_SPEED_EQ_13_TestE10CreateTestEv
FNDA:1,_ZN7testing8internal15TestFactoryImplI39AccSpeedPidTest_TC_ACC_SPEED_EQ_13_TestE10CreateTestEv
FN:456,_ZN7testing8internal15TestFactoryImplI39AccSpeedPidTest_TC_ACC_SPEED_EQ_25_TestE10CreateTestEv
FNDA:1,_ZN7testing8internal15TestFactoryImplI39AccSpeedPidTest_TC_ACC_SPEED_EQ_25_TestE10CreateTestEv
FN:456,_ZN7testing8internal15TestFactoryImplI39AccSpeedPidTest_TC_ACC_SPEED_BV_21_TestE10CreateTestEv
FNDA:1,_ZN7testing8internal15TestFactoryImplI39AccSpeedPidTest_TC_ACC_SPEED_BV_21_TestE10CreateTestEv
FN:456,_ZN7testing8internal15TestFactoryImplI39AccSpeedPidTest_TC_ACC_SPEED_EQ_23_TestE10CreateTestEv
FNDA:1,_ZN7testing8internal15TestFactoryImplI39AccSpeedPidTest_TC_ACC_SPEED_EQ_23_TestE10CreateTestEv
FN:456,_ZN7testing8internal15TestFactoryImplI39AccSpeedPidTest_TC_ACC_SPEED_EQ_22_TestE10CreateTestEv
FNDA:1,_ZN7testing8internal15TestFactoryImplI39AccSpeedPidTest_TC_ACC_SPEED_EQ_22_TestE10CreateTestEv
FN:456,_ZN7testing8internal15TestFactoryImplI39AccSpeedPidTest_TC_ACC_SPEED_EQ_21_TestE10CreateTestEv
FNDA:1,_ZN7testing8internal15TestFactoryImplI39AccSpeedPidTest_TC_ACC_SPEED_EQ_21_TestE10CreateTestEv
FN:456,_ZN7testing8internal15TestFactoryImplI39AccSpeedPidTest_TC_ACC_SPEED_EQ_20_TestE10CreateTestEv
FNDA:1,_ZN7testing8internal15TestFactoryImplI39AccSpeedPidTest_TC_ACC_SPEED_EQ_20_TestE10CreateTestEv
FN:456,_ZN7testing8internal15TestFactoryImplI39AccSpeedPidTest_TC_ACC_SPEED_EQ_19_TestE10CreateTestEv
FNDA:1,_ZN7testing8internal15TestFactoryImplI39AccSpeedPidTest_TC_ACC_SPEED_EQ_19_TestE10CreateTestEv
FN:456,_ZN7testing8internal15TestFactoryImplI39AccSpeedPidTest_TC_ACC_SPEED_EQ_18_TestE10CreateTestEv
FNDA:1,_ZN7testing8internal15TestFactoryImplI39AccSpeedPidTest_TC_ACC_SPEED_EQ_18_TestE10CreateTestEv
FN:456,_ZN7testing8internal15TestFactoryImplI39AccSpeedPidTest_TC_ACC_SPEED_EQ_17_TestE10CreateTestEv
FNDA:1,_ZN7testing8internal15TestFactoryImplI39AccSpeedPidTest_TC_ACC_SPEED_EQ_17_TestE10CreateTestEv
FN:456,_ZN7testing8internal15TestFactoryImplI39AccSpeedPidTest_TC_ACC_SPEED_EQ_16_TestE10CreateTestEv
FNDA:1,_ZN7testing8internal15TestFactoryImplI39AccSpeedPidTest_TC_ACC_SPEED_EQ_16_TestE10CreateTestEv
FN:456,_ZN7testing8internal15TestFactoryImplI39AccSpeedPidTest_TC_ACC_SPEED_EQ_15_TestE10CreateTestEv
FNDA:1,_ZN7testing8internal15TestFactoryImplI39AccSpeedPidTest_TC_ACC_SPEED_EQ_15_TestE10CreateTestEv
FN:456,_ZN7testing8internal15TestFactoryImplI39AccSpeedPidTest_TC_ACC_SPEED_EQ_14_TestE10CreateTestEv
FNDA:1,_ZN7testing8internal15TestFactoryImplI39AccSpeedPidTest_TC_ACC_SPEED_EQ_14_TestE10CreateTestEv
FN:456,_ZN7testing8internal15TestFactoryImplI39AccSpeedPidTest_TC_ACC_SPEED_EQ_24_TestE10CreateTestEv
FNDA:1,_ZN7testing8internal15TestFactoryImplI39AccSpeedPidTest_TC_ACC_SPEED_EQ_24_TestE10CreateTestEv
FN:456,_ZN7testing8internal15TestFactoryImplI39AccSpeedPidTest_TC_ACC_SPEED_EQ_12_TestE10CreateTestEv
FNDA:1,_ZN7testing8internal15TestFactoryImplI39AccSpeedPidTest_TC_ACC_SPEED_EQ_12_TestE10CreateTestEv
FN:456,_ZN7testing8internal15TestFactoryImplI39AccSpeedPidTest_TC_ACC_SPEED_EQ_11_TestE10CreateTestEv
FNDA:1,_ZN7testing8internal15TestFactoryImplI39AccSpeedPidTest_TC_ACC_SPEED_EQ_11_TestE10CreateTestEv
FN:456,_ZN7testing8internal15TestFactoryImplI39AccSpeedPidTest_TC_ACC_SPEED_EQ_10_TestE10CreateTestEv
FNDA:1,_ZN7testing8internal15TestFactoryImplI39AccSpeedPidTest_TC_ACC_SPEED_EQ_10_TestE10CreateTestEv
FN:456,_ZN7testing8internal15TestFactoryImplI39AccSpeedPidTest_TC_ACC_SPEED_EQ_09_TestE10CreateTestEv
FNDA:1,_ZN7testing8internal15TestFactoryImplI39AccSpeedPidTest_TC_ACC_SPEED_EQ_09_TestE10CreateTestEv
FN:456,_ZN7testing8internal15TestFactoryImplI39AccSpeedPidTest_TC_ACC_SPEED_EQ_08_TestE10CreateTestEv
FNDA:1,_ZN7testing8internal15TestFactoryImplI39AccSpeedPidTest_TC_ACC_SPEED_EQ_08_TestE10CreateTestEv
FN:456,_ZN7testing8internal15TestFactoryImplI39AccSpeedPidTest_TC_ACC_SPEED_EQ_07_TestE10CreateTestEv
FNDA:1,_ZN7testing8internal15TestFactoryImplI39AccSpeedPidTest_TC_ACC_SPEED_EQ_07_TestE10CreateTestEv
FN:456,_ZN7testing8internal15TestFactoryImplI39AccSpeedPidTest_TC_ACC_SPEED_EQ_06_TestE10CreateTestEv
FNDA:1,_ZN7testing8internal15TestFactoryImplI39AccSpeedPidTest_TC_ACC_SPEED_EQ_06_TestE10CreateTestEv
FN:456,_ZN7testing8internal15TestFactoryImplI39AccSpeedPidTest_TC_ACC_SPEED_EQ_05_TestE10CreateTestEv
FNDA:1,_ZN7testing8internal15TestFactoryImplI39AccSpeedPidTest_TC_ACC_SPEED_EQ_05_TestE10CreateTestEv
FN:456,_ZN7testing8internal15TestFactoryImplI39AccSpeedPidTest_TC_ACC_SPEED_EQ_04_TestE10CreateTestEv
FNDA:1,_ZN7testing8internal15TestFactoryImplI39AccSpeedPidTest_TC_ACC_SPEED_EQ_04_TestE10CreateTestEv
FN:456,_ZN7testing8internal15TestFactoryImplI39AccSpeedPidTest_TC_ACC_SPEED_EQ_03_TestE10CreateTestEv
FNDA:1,_ZN7testing8internal15TestFactoryImplI39AccSpeedPidTest_TC_ACC_SPEED_EQ_03_TestE10CreateTestEv
FN:456,_ZN7testing8internal15TestFactoryImplI39AccSpeedPidTest_TC_ACC_SPEED_EQ_02_TestE10CreateTestEv
FNDA:1,_ZN7testing8internal15TestFactoryImplI39AccSpeedPidTest_TC_ACC_SPEED_EQ_02_TestE10CreateTestEv
FN:456,_ZN7testing8internal15TestFactoryImplI39AccSpeedPidTest_TC_ACC_SPEED_BV_10_TestE10CreateTestEv
FNDA:1,_ZN7testing8internal15TestFactoryImplI39AccSpeedPidTest_TC_ACC_SPEED_BV_10_TestE10CreateTestEv
FN:456,_ZN7testing8internal15TestFactoryImplI39AccSpeedPidTest_TC_ACC_SPEED_BV_20_TestE10CreateTestEv
FNDA:1,_ZN7testing8internal15TestFactoryImplI39AccSpeedPidTest_TC_ACC_SPEED_BV_20_TestE10CreateTestEv
FN:456,_ZN7testing8internal15TestFactoryImplI39AccSpeedPidTest_TC_ACC_SPEED_BV_19_TestE10CreateTestEv
FNDA:1,_ZN7testing8internal15TestFactoryImplI39AccSpeedPidTest_TC_ACC_SPEED_BV_19_TestE10CreateTestEv
FN:456,_ZN7testing8internal15TestFactoryImplI39AccSpeedPidTest_TC_ACC_SPEED_BV_18_TestE10CreateTestEv
FNDA:1,_ZN7testing8internal15TestFactoryImplI39AccSpeedPidTest_TC_ACC_SPEED_BV_18_TestE10CreateTestEv
FN:456,_ZN7testing8internal15TestFactoryImplI39AccSpeedPidTest_TC_ACC_SPEED_BV_17_TestE10CreateTestEv
FNDA:1,_ZN7testing8internal15TestFactoryImplI39AccSpeedPidTest_TC_ACC_SPEED_BV_17_TestE10CreateTestEv
FN:456,_ZN7testing8internal15TestFactoryImplI39AccSpeedPidTest_TC_ACC_SPEED_BV_16_TestE10CreateTestEv
FNDA:1,_ZN7testing8internal15TestFactoryImplI39AccSpeedPidTest_TC_ACC_SPEED_BV_16_TestE10CreateTestEv
FN:456,_ZN7testing8internal15TestFactoryImplI39AccSpeedPidTest_TC_ACC_SPEED_BV_15_TestE10CreateTestEv
FNDA:1,_ZN7testing8internal15TestFactoryImplI39AccSpeedPidTest_TC_ACC_SPEED_BV_15_TestE10CreateTestEv
FN:456,_ZN7testing8internal15TestFactoryImplI39AccSpeedPidTest_TC_ACC_SPEED_BV_14_TestE10CreateTestEv
FNDA:1,_ZN7testing8internal15TestFactoryImplI39AccSpeedPidTest_TC_ACC_SPEED_BV_14_TestE10CreateTestEv
FN:456,_ZN7testing8internal15TestFactoryImplI39AccSpeedPidTest_TC_ACC_SPEED_BV_13_TestE10CreateTestEv
FNDA:1,_ZN7testing8internal15TestFactoryImplI39AccSpeedPidTest_TC_ACC_SPEED_BV_13_TestE10CreateTestEv
FN:456,_ZN7testing8internal15TestFactoryImplI39AccSpeedPidTest_TC_ACC_SPEED_BV_12_TestE10CreateTestEv
FNDA:1,_ZN7testing8internal15TestFactoryImplI39AccSpeedPidTest_TC_ACC_SPEED_BV_12_TestE10CreateTestEv
FN:456,_ZN7testing8internal15TestFactoryImplI39AccSpeedPidTest_TC_ACC_SPEED_BV_11_TestE10CreateTestEv
FNDA:1,_ZN7testing8internal15TestFactoryImplI39AccSpeedPidTest_TC_ACC_SPEED_BV_11_TestE10CreateTestEv
FN:456,_ZN7testing8internal15TestFactoryImplI39AccSpeedPidTest_TC_ACC_SPEED_EQ_26_TestE10CreateTestEv
FNDA:1,_ZN7testing8internal15TestFactoryImplI39AccSpeedPidTest_TC_ACC_SPEED_EQ_26_TestE10CreateTestEv
FN:456,_ZN7testing8internal15TestFactoryImplI39AccSpeedPidTest_TC_ACC_SPEED_BV_09_TestE10CreateTestEv
FNDA:1,_ZN7testing8internal15TestFactoryImplI39AccSpeedPidTest_TC_ACC_SPEED_BV_09_TestE10CreateTestEv
FN:456,_ZN7testing8internal15TestFactoryImplI39AccSpeedPidTest_TC_ACC_SPEED_BV_08_TestE10CreateTestEv
FNDA:1,_ZN7testing8internal15TestFactoryImplI39AccSpeedPidTest_TC_ACC_SPEED_BV_08_TestE10CreateTestEv
FN:456,_ZN7testing8internal15TestFactoryImplI39AccSpeedPidTest_TC_ACC_SPEED_BV_07_TestE10CreateTestEv
FNDA:1,_ZN7testing8internal15TestFactoryImplI39AccSpeedPidTest_TC_ACC_SPEED_BV_07_TestE10CreateTestEv
FN:456,_ZN7testing8internal15TestFactoryImplI39AccSpeedPidTest_TC_ACC_SPEED_BV_06_TestE10CreateTestEv
FNDA:1,_ZN7testing8internal15TestFactoryImplI39AccSpeedPidTest_TC_ACC_SPEED_BV_06_TestE10CreateTestEv
FN:456,_ZN7testing8internal15TestFactoryImplI39AccSpeedPidTest_TC_ACC_SPEED_BV_05_TestE10CreateTestEv
FNDA:1,_ZN7testing8internal15TestFactoryImplI39AccSpeedPidTest_TC_ACC_SPEED_BV_05_TestE10CreateTestEv
FN:456,_ZN7testing8internal15TestFactoryImplI39AccSpeedPidTest_TC_ACC_SPEED_BV_04_TestE10CreateTestEv
FNDA:1,_ZN7testing8internal15TestFactoryImplI39AccSpeedPidTest_TC_ACC_SPEED_BV_04_TestE10CreateTestEv
FN:456,_ZN7testing8internal15TestFactoryImplI39AccSpeedPidTest_TC_ACC_SPEED_BV_03_TestE10CreateTestEv
FNDA:1,_ZN7testing8internal15TestFactoryImplI39AccSpeedPidTest_TC_ACC_SPEED_BV_03_TestE10CreateTestEv
FN:456,_ZN7testing8internal15TestFactoryImplI39AccSpeedPidTest_TC_ACC_SPEED_BV_02_TestE10CreateTestEv
FNDA:1,_ZN7testing8internal15TestFactoryImplI39AccSpeedPidTest_TC_ACC_SPEED_BV_02_TestE10CreateTestEv
FN:456,_ZN7testing8internal15TestFactoryImplI39AccSpeedPidTest_TC_ACC_SPEED_BV_01_TestE10CreateTestEv
FNDA:1,_ZN7testing8internal15TestFactoryImplI39AccSpeedPidTest_TC_ACC_SPEED_BV_01_TestE10CreateTestEv
FN:456,_ZN7testing8internal15TestFactoryImplI39AccSpeedPidTest_TC_ACC_SPEED_EQ_30_TestE10CreateTestEv
FNDA:1,_ZN7testing8internal15TestFactoryImplI39AccSpeedPidTest_TC_ACC_SPEED_EQ_30_TestE10CreateTestEv
FN:456,_ZN7testing8internal15TestFactoryImplI39AccSpeedPidTest_TC_ACC_SPEED_EQ_29_TestE10CreateTestEv
FNDA:1,_ZN7testing8internal15TestFactoryImplI39AccSpeedPidTest_TC_ACC_SPEED_EQ_29_TestE10CreateTestEv
FN:456,_ZN7testing8internal15TestFactoryImplI39AccSpeedPidTest_TC_ACC_SPEED_EQ_28_TestE10CreateTestEv
FNDA:1,_ZN7testing8internal15TestFactoryImplI39AccSpeedPidTest_TC_ACC_SPEED_EQ_28_TestE10CreateTestEv
FN:456,_ZN7testing8internal15TestFactoryImplI39AccSpeedPidTest_TC_ACC_SPEED_EQ_27_TestE10CreateTestEv
FNDA:1,_ZN7testing8internal15TestFactoryImplI39AccSpeedPidTest_TC_ACC_SPEED_EQ_27_TestE10CreateTestEv
FN:477,_ZN7testing8internal12CodeLocationC1ENSt7__cxx1112basic_stringIcSt11char_traitsIcESaIcEEEi
FNDA:0,_ZN7testing8internal12CodeLocationC1ENSt7__cxx1112basic_stringIcSt11char_traitsIcESaIcEEEi
FN:490,_ZN7testing8internal19GetNotDefaultOrNullEPFvvES2_
FNDA:0,_ZN7testing8internal19GetNotDefaultOrNullEPFvvES2_
FN:505,_ZN7testing8internal16SuiteApiResolverI15AccSpeedPidTestE19GetSetUpCaseOrSuiteEPKci
FNDA:180,_ZN7testing8internal16SuiteApiResolverI15AccSpeedPidTestE19GetSetUpCaseOrSuiteEPKci
FN:526,_ZN7testing8internal16SuiteApiResolverI15AccSpeedPidTestE22GetTearDownCaseOrSuiteEPKci
FNDA:180,_ZN7testing8internal16SuiteApiResolverI15AccSpeedPidTestE22GetTearDownCaseOrSuiteEPKci
FNF:104
FNH:93
DA:293,0
DA:315,0
DA:318,0
DA:324,0
DA:327,0
DA:336,0
DA:339,0
DA:341,0
DA:342,0
DA:367,0
DA:368,0
DA:370,0
DA:373,0
DA:379,0
DA:381,0
DA:382,0
DA:383,0
DA:418,180
DA:423,180
DA:437,0
DA:444,0
DA:456,1
DA:456,1
DA:456,1
DA:456,1
DA:456,1
DA:456,1
DA:456,1
DA:456,1
DA:456,1
DA:456,1
DA:456,1
DA:456,1
DA:456,1
DA:456,1
DA:456,1
DA:456,1
DA:456,1
DA:456,1
DA:456,1
DA:456,1
DA:456,1
DA:456,1
DA:456,1
DA:456,1
DA:456,1
DA:456,1
DA:456,1
DA:456,1
DA:456,1
DA:456,1
DA:456,1
DA:456,1
DA:456,1
DA:456,1
DA:456,1
DA:456,1
DA:456,1
DA:456,1
DA:456,1
DA:456,1
DA:456,1
DA:456,1
DA:456,1
DA:456,1
DA:456,1
DA:456,1
DA:456,1
DA:456,1
DA:456,1
DA:456,1
DA:456,1
DA:456,1
DA:456,1
DA:456,1
DA:456,1
DA:456,1
DA:456,1
DA:456,1
DA:456,1
DA:456,1
DA:456,1
DA:456,1
DA:456,1
DA:456,1
DA:456,1
DA:456,1
DA:456,1
DA:456,1
DA:456,1
DA:456,1
DA:456,1
DA:456,1
DA:456,1
DA:456,1
DA:456,1
DA:456,1
DA:456,1
DA:456,1
DA:456,1
DA:456,1
DA:456,1
DA:456,1
DA:456,1
DA:456,1
DA:456,1
DA:456,1
DA:456,1
DA:456,1
DA:456,1
DA:456,1
DA:477,0
DA:478,0
DA:490,0
DA:492,0
DA:505,180
DA:509,180
DA:511,180
DA:513,180
DA:516,0
DA:518,180
DA:526,180
DA:530,180
DA:532,180
DA:534,180
DA:537,0
DA:539,180
LF:127
LH:102
end_of_record
SF:C:/msys64/mingw64/include/c++/14.2.0/bits/new_allocator.h
FN:104,_ZNSt15__new_allocatorIcED2Ev
FNDA:0,_ZNSt15__new_allocatorIcED2Ev
FNF:1
FNH:0
DA:104,0
LF:1
LH:0
end_of_record
SF:C:/msys64/mingw64/include/c++/14.2.0/bits/basic_string.h
FN:646,_ZNSt7__cxx1112basic_stringIcSt11char_traitsIcESaIcEEC1IS3_EEPKcRKS3_
FNDA:0,_ZNSt7__cxx1112basic_stringIcSt11char_traitsIcESaIcEEC1IS3_EEPKcRKS3_
FNF:1
FNH:0
DA:360,0
DA:646,0
DA:647,0
DA:650,0
DA:651,0
DA:653,0
DA:654,0
DA:655,0
LF:8
LH:0
end_of_record
SF:C:/msys64/mingw64/include/c++/14.2.0/tuple
FN:89,_ZNSt10_Head_baseILy1ESt14default_deleteINSt7__cxx1112basic_stringIcSt11char_traitsIcESaIcEEEELb1EEC2Ev
FNDA:0,_ZNSt10_Head_baseILy1ESt14default_deleteINSt7__cxx1112basic_stringIcSt11char_traitsIcESaIcEEEELb1EEC2Ev
FN:133,_ZNSt10_Head_baseILy1ESt14default_deleteINSt7__cxx1118basic_stringstreamIcSt11char_traitsIcESaIcEEEELb1EE7_M_headERS8_
FNDA:0,_ZNSt10_Head_baseILy1ESt14default_deleteINSt7__cxx1118basic_stringstreamIcSt11char_traitsIcESaIcEEEELb1EE7_M_headERS8_
FN:133,_ZNSt10_Head_baseILy1ESt14default_deleteINSt7__cxx1112basic_stringIcSt11char_traitsIcESaIcEEEELb1EE7_M_headERS8_
FNDA:0,_ZNSt10_Head_baseILy1ESt14default_deleteINSt7__cxx1112basic_stringIcSt11char_traitsIcESaIcEEEELb1EE7_M_headERS8_
FN:198,_ZNSt10_Head_baseILy0EPNSt7__cxx1112basic_stringIcSt11char_traitsIcESaIcEEELb0EEC2Ev
FNDA:0,_ZNSt10_Head_baseILy0EPNSt7__cxx1112basic_stringIcSt11char_traitsIcESaIcEEELb0EEC2Ev
FN:242,_ZNSt10_Head_baseILy0EPNSt7__cxx1112basic_stringIcSt11char_traitsIcESaIcEEELb0EE7_M_headERS7_
FNDA:0,_ZNSt10_Head_baseILy0EPNSt7__cxx1112basic_stringIcSt11char_traitsIcESaIcEEELb0EE7_M_headERS7_
FN:242,_ZNSt10_Head_baseILy0EPNSt7__cxx1118basic_stringstreamIcSt11char_traitsIcESaIcEEELb0EE7_M_headERS7_
FNDA:0,_ZNSt10_Head_baseILy0EPNSt7__cxx1118basic_stringstreamIcSt11char_traitsIcESaIcEEELb0EE7_M_headERS7_
FN:245,_ZNSt10_Head_baseILy0EPNSt7__cxx1118basic_stringstreamIcSt11char_traitsIcESaIcEEELb0EE7_M_headERKS7_
FNDA:0,_ZNSt10_Head_baseILy0EPNSt7__cxx1118basic_stringstreamIcSt11char_traitsIcESaIcEEELb0EE7_M_headERKS7_
FN:245,_ZNSt10_Head_baseILy0EPNSt7__cxx1112basic_stringIcSt11char_traitsIcESaIcEEELb0EE7_M_headERKS7_
FNDA:0,_ZNSt10_Head_baseILy0EPNSt7__cxx1112basic_stringIcSt11char_traitsIcESaIcEEELb0EE7_M_headERKS7_
FN:293,_ZNSt11_Tuple_implILy0EJPNSt7__cxx1118basic_stringstreamIcSt11char_traitsIcESaIcEEESt14default_deleteIS5_EEE7_M_headERS9_
FNDA:0,_ZNSt11_Tuple_implILy0EJPNSt7__cxx1118basic_stringstreamIcSt11char_traitsIcESaIcEEESt14default_deleteIS5_EEE7_M_headERS9_
FN:293,_ZNSt11_Tuple_implILy0EJPNSt7__cxx1112basic_stringIcSt11char_traitsIcESaIcEEESt14default_deleteIS5_EEE7_M_headERS9_
FNDA:0,_ZNSt11_Tuple_implILy0EJPNSt7__cxx1112basic_stringIcSt11char_traitsIcESaIcEEESt14default_deleteIS5_EEE7_M_headERS9_
FN:296,_ZNSt11_Tuple_implILy0EJPNSt7__cxx1112basic_stringIcSt11char_traitsIcESaIcEEESt14default_deleteIS5_EEE7_M_headERKS9_
FNDA:0,_ZNSt11_Tuple_implILy0EJPNSt7__cxx1112basic_stringIcSt11char_traitsIcESaIcEEESt14default_deleteIS5_EEE7_M_headERKS9_
FN:296,_ZNSt11_Tuple_implILy0EJPNSt7__cxx1118basic_stringstreamIcSt11char_traitsIcESaIcEEESt14default_deleteIS5_EEE7_M_headERKS9_
FNDA:0,_ZNSt11_Tuple_implILy0EJPNSt7__cxx1118basic_stringstreamIcSt11char_traitsIcESaIcEEESt14default_deleteIS5_EEE7_M_headERKS9_
FN:304,_ZNSt11_Tuple_implILy0EJPNSt7__cxx1112basic_stringIcSt11char_traitsIcESaIcEEESt14default_deleteIS5_EEEC2Ev
FNDA:0,_ZNSt11_Tuple_implILy0EJPNSt7__cxx1112basic_stringIcSt11char_traitsIcESaIcEEESt14default_deleteIS5_EEEC2Ev
FN:556,_ZNSt11_Tuple_implILy1EJSt14default_deleteINSt7__cxx1112basic_stringIcSt11char_traitsIcESaIcEEEEEE7_M_headERS8_
FNDA:0,_ZNSt11_Tuple_implILy1EJSt14default_deleteINSt7__cxx1112basic_stringIcSt11char_traitsIcESaIcEEEEEE7_M_headERS8_
FN:556,_ZNSt11_Tuple_implILy1EJSt14default_deleteINSt7__cxx1118basic_stringstreamIcSt11char_traitsIcESaIcEEEEEE7_M_headERS8_
FNDA:0,_ZNSt11_Tuple_implILy1EJSt14default_deleteINSt7__cxx1118basic_stringstreamIcSt11char_traitsIcESaIcEEEEEE7_M_headERS8_
FN:562,_ZNSt11_Tuple_implILy1EJSt14default_deleteINSt7__cxx1112basic_stringIcSt11char_traitsIcESaIcEEEEEEC2Ev
FNDA:0,_ZNSt11_Tuple_implILy1EJSt14default_deleteINSt7__cxx1112basic_stringIcSt11char_traitsIcESaIcEEEEEEC2Ev
FN:2089,_ZNSt5tupleIJPNSt7__cxx1112basic_stringIcSt11char_traitsIcESaIcEEESt14default_deleteIS5_EEEC1ILb1ELb1EEEv
FNDA:0,_ZNSt5tupleIJPNSt7__cxx1112basic_stringIcSt11char_traitsIcESaIcEEESt14default_deleteIS5_EEEC1ILb1ELb1EEEv
FN:2427,_ZSt12__get_helperILy1ESt14default_deleteINSt7__cxx1118basic_stringstreamIcSt11char_traitsIcESaIcEEEEJEERT0_RSt11_Tuple_implIXT_EJS8_DpT1_EE
FNDA:0,_ZSt12__get_helperILy1ESt14default_deleteINSt7__cxx1118basic_stringstreamIcSt11char_traitsIcESaIcEEEEJEERT0_RSt11_Tuple_implIXT_EJS8_DpT1_EE
FN:2427,_ZSt12__get_helperILy1ESt14default_deleteINSt7__cxx1112basic_stringIcSt11char_traitsIcESaIcEEEEJEERT0_RSt11_Tuple_implIXT_EJS8_DpT1_EE
FNDA:0,_ZSt12__get_helperILy1ESt14default_deleteINSt7__cxx1112basic_stringIcSt11char_traitsIcESaIcEEEEJEERT0_RSt11_Tuple_implIXT_EJS8_DpT1_EE
FN:2427,_ZSt12__get_helperILy0EPNSt7__cxx1112basic_stringIcSt11char_traitsIcESaIcEEEJSt14default_deleteIS5_EEERT0_RSt11_Tuple_implIXT_EJS9_DpT1_EE
FNDA:0,_ZSt12__get_helperILy0EPNSt7__cxx1112basic_stringIcSt11char_traitsIcESaIcEEEJSt14default_deleteIS5_EEERT0_RSt11_Tuple_implIXT_EJS9_DpT1_EE
FN:2427,_ZSt12__get_helperILy0EPNSt7__cxx1118basic_stringstreamIcSt11char_traitsIcESaIcEEEJSt14default_deleteIS5_EEERT0_RSt11_Tuple_implIXT_EJS9_DpT1_EE
FNDA:0,_ZSt12__get_helperILy0EPNSt7__cxx1118basic_stringstreamIcSt11char_traitsIcESaIcEEEJSt14default_deleteIS5_EEERT0_RSt11_Tuple_implIXT_EJS9_DpT1_EE
FN:2432,_ZSt12__get_helperILy0EPNSt7__cxx1112basic_stringIcSt11char_traitsIcESaIcEEEJSt14default_deleteIS5_EEERKT0_RKSt11_Tuple_implIXT_EJS9_DpT1_EE
FNDA:0,_ZSt12__get_helperILy0EPNSt7__cxx1112basic_stringIcSt11char_traitsIcESaIcEEEJSt14default_deleteIS5_EEERKT0_RKSt11_Tuple_implIXT_EJS9_DpT1_EE
FN:2432,_ZSt12__get_helperILy0EPNSt7__cxx1118basic_stringstreamIcSt11char_traitsIcESaIcEEEJSt14default_deleteIS5_EEERKT0_RKSt11_Tuple_implIXT_EJS9_DpT1_EE
FNDA:0,_ZSt12__get_helperILy0EPNSt7__cxx1118basic_stringstreamIcSt11char_traitsIcESaIcEEEJSt14default_deleteIS5_EEERKT0_RKSt11_Tuple_implIXT_EJS9_DpT1_EE
FN:2443,_ZSt3getILy1EJPNSt7__cxx1112basic_stringIcSt11char_traitsIcESaIcEEESt14default_deleteIS5_EEERNSt13tuple_elementIXT_ESt5tupleIJDpT0_EEE4typeERSD_
FNDA:0,_ZSt3getILy1EJPNSt7__cxx1112basic_stringIcSt11char_traitsIcESaIcEEESt14default_deleteIS5_EEERNSt13tuple_elementIXT_ESt5tupleIJDpT0_EEE4typeERSD_
FN:2443,_ZSt3getILy0EJPNSt7__cxx1112basic_stringIcSt11char_traitsIcESaIcEEESt14default_deleteIS5_EEERNSt13tuple_elementIXT_ESt5tupleIJDpT0_EEE4typeERSD_
FNDA:0,_ZSt3getILy0EJPNSt7__cxx1112basic_stringIcSt11char_traitsIcESaIcEEESt14default_deleteIS5_EEERNSt13tuple_elementIXT_ESt5tupleIJDpT0_EEE4typeERSD_
FN:2443,_ZSt3getILy0EJPNSt7__cxx1118basic_stringstreamIcSt11char_traitsIcESaIcEEESt14default_deleteIS5_EEERNSt13tuple_elementIXT_ESt5tupleIJDpT0_EEE4typeERSD_
FNDA:0,_ZSt3getILy0EJPNSt7__cxx1118basic_stringstreamIcSt11char_traitsIcESaIcEEESt14default_deleteIS5_EEERNSt13tuple_elementIXT_ESt5tupleIJDpT0_EEE4typeERSD_
FN:2443,_ZSt3getILy1EJPNSt7__cxx1118basic_stringstreamIcSt11char_traitsIcESaIcEEESt14default_deleteIS5_EEERNSt13tuple_elementIXT_ESt5tupleIJDpT0_EEE4typeERSD_
FNDA:0,_ZSt3getILy1EJPNSt7__cxx1118basic_stringstreamIcSt11char_traitsIcESaIcEEESt14default_deleteIS5_EEERNSt13tuple_elementIXT_ESt5tupleIJDpT0_EEE4typeERSD_
FN:2449,_ZSt3getILy0EJPNSt7__cxx1118basic_stringstreamIcSt11char_traitsIcESaIcEEESt14default_deleteIS5_EEERKNSt13tuple_elementIXT_ESt5tupleIJDpT0_EEE4typeERKSD_
FNDA:0,_ZSt3getILy0EJPNSt7__cxx1118basic_stringstreamIcSt11char_traitsIcESaIcEEESt14default_deleteIS5_EEERKNSt13tuple_elementIXT_ESt5tupleIJDpT0_EEE4typeERKSD_
FN:2449,_ZSt3getILy0EJPNSt7__cxx1112basic_stringIcSt11char_traitsIcESaIcEEESt14default_deleteIS5_EEERKNSt13tuple_elementIXT_ESt5tupleIJDpT0_EEE4typeERKSD_
FNDA:0,_ZSt3getILy0EJPNSt7__cxx1112basic_stringIcSt11char_traitsIcESaIcEEESt14default_deleteIS5_EEERKNSt13tuple_elementIXT_ESt5tupleIJDpT0_EEE4typeERKSD_
FNF:29
FNH:0
DA:89,0
DA:90,0
DA:133,0
DA:133,0
DA:198,0
DA:199,0
DA:242,0
DA:242,0
DA:245,0
DA:245,0
DA:293,0
DA:293,0
DA:296,0
DA:296,0
DA:304,0
DA:305,0
DA:556,0
DA:556,0
DA:562,0
DA:563,0
DA:2089,0
DA:2091,0
DA:2427,0
DA:2428,0
DA:2427,0
DA:2428,0
DA:2427,0
DA:2428,0
DA:2427,0
DA:2428,0
DA:2432,0
DA:2433,0
DA:2432,0
DA:2433,0
DA:2443,0
DA:2444,0
DA:2443,0
DA:2444,0
DA:2443,0
DA:2444,0
DA:2443,0
DA:2444,0
DA:2449,0
DA:2450,0
DA:2449,0
DA:2450,0
LF:46
LH:0
end_of_record
SF:C:/Projects/GoogleTestProject/googletest/googletest/include/gtest/gtest-assertion-result.h
FN:155,_ZN7testing15AssertionResultC1IbEERKT_PNSt9enable_ifIXntsrSt14is_convertibleIS2_S0_E5valueEvE4typeE
FNDA:0,_ZN7testing15AssertionResultC1IbEERKT_PNSt9enable_ifIXntsrSt14is_convertibleIS2_S0_E5valueEvE4typeE
FN:174,_ZNK7testing15AssertionResultcvbEv
FNDA:0,_ZNK7testing15AssertionResultcvbEv
FN:183,_ZNK7testing15AssertionResult7messageEv
FNDA:0,_ZNK7testing15AssertionResult7messageEv
FN:187,_ZNK7testing15AssertionResult15failure_messageEv
FNDA:0,_ZNK7testing15AssertionResult15failure_messageEv
FN:191,_ZN7testing15AssertionResultlsIA5_cEERS0_RKT_
FNDA:0,_ZN7testing15AssertionResultlsIA5_cEERS0_RKT_
FN:191,_ZN7testing15AssertionResultlsINSt7__cxx1112basic_stringIcSt11char_traitsIcESaIcEEEEERS0_RKT_
FNDA:0,_ZN7testing15AssertionResultlsINSt7__cxx1112basic_stringIcSt11char_traitsIcESaIcEEEEERS0_RKT_
FN:191,_ZN7testing15AssertionResultlsIA3_cEERS0_RKT_
FNDA:0,_ZN7testing15AssertionResultlsIA3_cEERS0_RKT_
FN:191,_ZN7testing15AssertionResultlsIPKcEERS0_RKT_
FNDA:0,_ZN7testing15AssertionResultlsIPKcEERS0_RKT_
FN:191,_ZN7testing15AssertionResultlsIA12_cEERS0_RKT_
FNDA:0,_ZN7testing15AssertionResultlsIA12_cEERS0_RKT_
FN:206,_ZN7testing15AssertionResult13AppendMessageERKNS_7MessageE
FNDA:0,_ZN7testing15AssertionResult13AppendMessageERKNS_7MessageE
FNF:10
FNH:0
DA:155,0
DA:161,0
DA:174,0
DA:183,0
DA:184,0
DA:187,0
DA:191,0
DA:192,0
DA:193,0
DA:191,0
DA:192,0
DA:193,0
DA:191,0
DA:192,0
DA:193,0
DA:191,0
DA:192,0
DA:193,0
DA:191,0
DA:192,0
DA:193,0
DA:206,0
DA:207,0
DA:208,0
DA:209,0
LF:25
LH:0
end_of_record
SF:C:/Projects/GoogleTestProject/googletest/googletest/include/gtest/gtest-printers.h
FN:383,_ZN7testing8internal19FormatForComparisonIffE6FormatB5cxx11ERKf
FNDA:0,_ZN7testing8internal19FormatForComparisonIffE6FormatB5cxx11ERKf
FN:463,_ZN7testing8internal33FormatForComparisonFailureMessageIffEENSt7__cxx1112basic_stringIcSt11char_traitsIcESaIcEEERKT_RKT0_
FNDA:0,_ZN7testing8internal33FormatForComparisonFailureMessageIffEENSt7__cxx1112basic_stringIcSt11char_traitsIcESaIcEEERKT_RKT0_
FN:555,_ZN7testing8internal21AppropriateResolutionIfEEiT_
FNDA:0,_ZN7testing8internal21AppropriateResolutionIfEEiT_
FN:619,_ZN7testing8internal7PrintToEfPSo
FNDA:0,_ZN7testing8internal7PrintToEfPSo
FN:874,_ZN7testing8internal16UniversalPrinterIfE5PrintERKfPSo
FNDA:0,_ZN7testing8internal16UniversalPrinterIfE5PrintERKfPSo
FN:1064,_ZN7testing8internal21UniversalTersePrinterIfE5PrintERKfPSo
FNDA:0,_ZN7testing8internal21UniversalTersePrinterIfE5PrintERKfPSo
FN:1183,_ZN7testing8internal14UniversalPrintIfEEvRKT_PSo
FNDA:0,_ZN7testing8internal14UniversalPrintIfEEvRKT_PSo
FN:1223,_ZN7testing13PrintToStringIfEENSt7__cxx1112basic_stringIcSt11char_traitsIcESaIcEEERKT_
FNDA:0,_ZN7testing13PrintToStringIfEENSt7__cxx1112basic_stringIcSt11char_traitsIcESaIcEEERKT_
FNF:8
FNH:0
DA:383,0
DA:384,0
DA:463,0
DA:465,0
DA:555,0
DA:556,0
DA:557,0
DA:563,0
DA:564,0
DA:568,0
DA:569,0
DA:570,0
DA:571,0
DA:572,0
DA:573,0
DA:574,0
DA:575,0
DA:576,0
DA:577,0
DA:578,0
DA:579,0
DA:580,0
DA:581,0
DA:582,0
DA:583,0
DA:584,0
DA:585,0
DA:586,0
DA:587,0
DA:589,0
DA:590,0
DA:593,0
DA:594,0
DA:595,0
DA:596,0
DA:597,0
DA:598,0
DA:600,0
DA:601,0
DA:603,0
DA:604,0
DA:605,0
DA:607,0
DA:608,0
DA:611,0
DA:616,0
DA:619,0
DA:620,0
DA:621,0
DA:622,0
DA:623,0
DA:624,0
DA:874,0
DA:883,0
DA:884,0
DA:1064,0
DA:1065,0
DA:1066,0
DA:1183,0
DA:1187,0
DA:1188,0
DA:1223,0
DA:1224,0
DA:1225,0
DA:1226,0
DA:1227,0
LF:66
LH:0
end_of_record
SF:C:/msys64/mingw64/include/c++/14.2.0/cmath
FN:1126,_ZSt8isfinitef
FNDA:0,_ZSt8isfinitef
FNF:1
FNH:0
DA:1126,0
DA:1127,0
LF:2
LH:0
end_of_record
SF:C:/Projects/GoogleTestProject/googletest/googletest/include/gtest/gtest.h
FN:255,_ZN7testing4Test14SetUpTestSuiteEv
FNDA:0,_ZN7testing4Test14SetUpTestSuiteEv
FN:263,_ZN7testing4Test17TearDownTestSuiteEv
FNDA:0,_ZN7testing4Test17TearDownTestSuiteEv
FN:268,_ZN7testing4Test16TearDownTestCaseEv
FNDA:0,_ZN7testing4Test16TearDownTestCaseEv
FN:269,_ZN7testing4Test13SetUpTestCaseEv
FNDA:0,_ZN7testing4Test13SetUpTestCaseEv
FN:356,_ZN7testing4Test5SetupEv
FNDA:0,_ZN7testing4Test5SetupEv
FN:1443,_ZN7testing8internal18CmpHelperOpFailureIffEENS_15AssertionResultEPKcS4_RKT_RKT0_S4_
FNDA:0,_ZN7testing8internal18CmpHelperOpFailureIffEENS_15AssertionResultEPKcS4_RKT_RKT0_S4_
FN:1476,_ZN7testing8internal11CmpHelperLTIffEENS_15AssertionResultEPKcS4_RKT_RKT0_
FNDA:0,_ZN7testing8internal11CmpHelperLTIffEENS_15AssertionResultEPKcS4_RKT_RKT0_
FN:1480,_ZN7testing8internal11CmpHelperGTIffEENS_15AssertionResultEPKcS4_RKT_RKT0_
FNDA:0,_ZN7testing8internal11CmpHelperGTIffEENS_15AssertionResultEPKcS4_RKT_RKT0_
FN:1582,_ZN7testing8internal24CmpHelperFloatingPointEQIfEENS_15AssertionResultEPKcS4_T_S5_
FNDA:0,_ZN7testing8internal24CmpHelperFloatingPointEQIfEENS_15AssertionResultEPKcS4_T_S5_
FNF:9
FNH:0
DA:255,0
DA:263,0
DA:268,0
DA:269,0
DA:356,0
DA:1443,0
DA:1446,0
DA:1447,0
DA:1448,0
DA:1449,0
DA:1476,0
DA:1480,0
DA:1582,0
DA:1585,0
DA:1587,0
DA:1588,0
DA:1591,0
DA:1592,0
DA:1593,0
DA:1595,0
DA:1596,0
DA:1597,0
DA:1600,0
DA:1601,0
DA:1602,0
LF:25
LH:0
end_of_record
SF:C:/msys64/mingw64/include/c++/14.2.0/bits/char_traits.h
FN:136,_ZN9__gnu_cxx11char_traitsIcE2eqERKcS3_
FNDA:0,_ZN9__gnu_cxx11char_traitsIcE2eqERKcS3_
FN:199,_ZN9__gnu_cxx11char_traitsIcE6lengthEPKc
FNDA:0,_ZN9__gnu_cxx11char_traitsIcE6lengthEPKc
FN:385,_ZNSt11char_traitsIcE6lengthEPKc
FNDA:0,_ZNSt11char_traitsIcE6lengthEPKc
FN:419,_ZNSt11char_traitsIcE4copyEPcPKcy
FNDA:0,_ZNSt11char_traitsIcE4copyEPcPKcy
FNF:4
FNH:0
DA:136,0
DA:137,0
DA:199,0
DA:202,0
DA:203,0
DA:204,0
DA:205,0
DA:385,0
DA:388,0
DA:389,0
DA:391,0
DA:419,0
DA:421,0
DA:422,0
DA:427,0
LF:15
LH:0
end_of_record
SF:C:/Projects/GoogleTestProject/googletest/googletest/include/gtest/gtest-message.h
FN:132,_ZN7testing7MessagelsIA5_cEERS0_RKT_
FNDA:0,_ZN7testing7MessagelsIA5_cEERS0_RKT_
FN:132,_ZN7testing7MessagelsINSt7__cxx1112basic_stringIcSt11char_traitsIcESaIcEEEEERS0_RKT_
FNDA:0,_ZN7testing7MessagelsINSt7__cxx1112basic_stringIcSt11char_traitsIcESaIcEEEEERS0_RKT_
FN:132,_ZN7testing7MessagelsIA3_cEERS0_RKT_
FNDA:0,_ZN7testing7MessagelsIA3_cEERS0_RKT_
FN:132,_ZN7testing7MessagelsIA12_cEERS0_RKT_
FNDA:0,_ZN7testing7MessagelsIA12_cEERS0_RKT_
FN:181,_ZN7testing7MessagelsIKcEERS0_RKPT_
FNDA:0,_ZN7testing7MessagelsIKcEERS0_RKPT_
FNF:5
FNH:0
DA:132,0
DA:148,0
DA:149,0
DA:132,0
DA:148,0
DA:149,0
DA:132,0
DA:148,0
DA:149,0
DA:132,0
DA:148,0
DA:149,0
DA:181,0
DA:182,0
DA:183,0
DA:185,0
DA:187,0
LF:17
LH:0
end_of_record
SF:C:/Projects/GoogleTestProject/googletest/googletest/include/gtest/internal/gtest-port.h
FN:1082,_ZN7testing8internal8GTestLog9GetStreamEv
FNDA:0,_ZN7testing8internal8GTestLog9GetStreamEv
FNF:1
FNH:0
DA:1082,0
LF:1
LH:0
end_of_record
SF:C:/Projects/GoogleTestProject/acc_speed_pid_test.cpp
FN:26,_ZL20resetSpeedPidStaticsv
FNDA:90,_ZL20resetSpeedPidStaticsv
FN:41,_ZN15AccSpeedPidTest5SetUpEv
FNDA:90,_ZN15AccSpeedPidTest5SetUpEv
FN:67,_ZN39AccSpeedPidTest_TC_ACC_SPEED_EQ_01_TestC1Ev
FNDA:1,_ZN39AccSpeedPidTest_TC_ACC_SPEED_EQ_01_TestC1Ev
FN:67,_ZN39AccSpeedPidTest_TC_ACC_SPEED_EQ_01_Test8TestBodyEv
FNDA:1,_ZN39AccSpeedPidTest_TC_ACC_SPEED_EQ_01_Test8TestBodyEv
FN:67,_ZN39AccSpeedPidTest_TC_ACC_SPEED_EQ_01_TestD1Ev
FNDA:1,_ZN39AccSpeedPidTest_TC_ACC_SPEED_EQ_01_TestD1Ev
FN:67,_ZN39AccSpeedPidTest_TC_ACC_SPEED_EQ_01_TestD0Ev
FNDA:1,_ZN39AccSpeedPidTest_TC_ACC_SPEED_EQ_01_TestD0Ev
FN:78,_ZN39AccSpeedPidTest_TC_ACC_SPEED_EQ_02_TestC1Ev
FNDA:1,_ZN39AccSpeedPidTest_TC_ACC_SPEED_EQ_02_TestC1Ev
FN:78,_ZN39AccSpeedPidTest_TC_ACC_SPEED_EQ_02_Test8TestBodyEv
FNDA:1,_ZN39AccSpeedPidTest_TC_ACC_SPEED_EQ_02_Test8TestBodyEv
FN:78,_ZN39AccSpeedPidTest_TC_ACC_SPEED_EQ_02_TestD1Ev
FNDA:1,_ZN39AccSpeedPidTest_TC_ACC_SPEED_EQ_02_TestD1Ev
FN:78,_ZN39AccSpeedPidTest_TC_ACC_SPEED_EQ_02_TestD0Ev
FNDA:1,_ZN39AccSpeedPidTest_TC_ACC_SPEED_EQ_02_TestD0Ev
FN:88,_ZN39AccSpeedPidTest_TC_ACC_SPEED_EQ_03_TestC1Ev
FNDA:1,_ZN39AccSpeedPidTest_TC_ACC_SPEED_EQ_03_TestC1Ev
FN:88,_ZN39AccSpeedPidTest_TC_ACC_SPEED_EQ_03_TestD1Ev
FNDA:1,_ZN39AccSpeedPidTest_TC_ACC_SPEED_EQ_03_TestD1Ev
FN:88,_ZN39AccSpeedPidTest_TC_ACC_SPEED_EQ_03_Test8TestBodyEv
FNDA:1,_ZN39AccSpeedPidTest_TC_ACC_SPEED_EQ_03_Test8TestBodyEv
FN:88,_ZN39AccSpeedPidTest_TC_ACC_SPEED_EQ_03_TestD0Ev
FNDA:1,_ZN39AccSpeedPidTest_TC_ACC_SPEED_EQ_03_TestD0Ev
FN:97,_ZN39AccSpeedPidTest_TC_ACC_SPEED_EQ_04_TestD0Ev
FNDA:1,_ZN39AccSpeedPidTest_TC_ACC_SPEED_EQ_04_TestD0Ev
FN:97,_ZN39AccSpeedPidTest_TC_ACC_SPEED_EQ_04_TestC1Ev
FNDA:1,_ZN39AccSpeedPidTest_TC_ACC_SPEED_EQ_04_TestC1Ev
FN:97,_ZN39AccSpeedPidTest_TC_ACC_SPEED_EQ_04_Test8TestBodyEv
FNDA:1,_ZN39AccSpeedPidTest_TC_ACC_SPEED_EQ_04_Test8TestBodyEv
FN:97,_ZN39AccSpeedPidTest_TC_ACC_SPEED_EQ_04_TestD1Ev
FNDA:1,_ZN39AccSpeedPidTest_TC_ACC_SPEED_EQ_04_TestD1Ev
FN:106,_ZN39AccSpeedPidTest_TC_ACC_SPEED_EQ_05_TestC1Ev
FNDA:1,_ZN39AccSpeedPidTest_TC_ACC_SPEED_EQ_05_TestC1Ev
FN:106,_ZN39AccSpeedPidTest_TC_ACC_SPEED_EQ_05_Test8TestBodyEv
FNDA:1,_ZN39AccSpeedPidTest_TC_ACC_SPEED_EQ_05_Test8TestBodyEv
FN:106,_ZN39AccSpeedPidTest_TC_ACC_SPEED_EQ_05_TestD0Ev
FNDA:1,_ZN39AccSpeedPidTest_TC_ACC_SPEED_EQ_05_TestD0Ev
FN:106,_ZN39AccSpeedPidTest_TC_ACC_SPEED_EQ_05_TestD1Ev
FNDA:1,_ZN39AccSpeedPidTest_TC_ACC_SPEED_EQ_05_TestD1Ev
FN:115,_ZN39AccSpeedPidTest_TC_ACC_SPEED_EQ_06_Test8TestBodyEv
FNDA:1,_ZN39AccSpeedPidTest_TC_ACC_SPEED_EQ_06_Test8TestBodyEv
FN:115,_ZN39AccSpeedPidTest_TC_ACC_SPEED_EQ_06_TestD1Ev
FNDA:1,_ZN39AccSpeedPidTest_TC_ACC_SPEED_EQ_06_TestD1Ev
FN:115,_ZN39AccSpeedPidTest_TC_ACC_SPEED_EQ_06_TestC1Ev
FNDA:1,_ZN39AccSpeedPidTest_TC_ACC_SPEED_EQ_06_TestC1Ev
FN:115,_ZN39AccSpeedPidTest_TC_ACC_SPEED_EQ_06_TestD0Ev
FNDA:1,_ZN39AccSpeedPidTest_TC_ACC_SPEED_EQ_06_TestD0Ev
FN:124,_ZN39AccSpeedPidTest_TC_ACC_SPEED_EQ_07_TestD1Ev
FNDA:1,_ZN39AccSpeedPidTest_TC_ACC_SPEED_EQ_07_TestD1Ev
FN:124,_ZN39AccSpeedPidTest_TC_ACC_SPEED_EQ_07_TestD0Ev
FNDA:1,_ZN39AccSpeedPidTest_TC_ACC_SPEED_EQ_07_TestD0Ev
FN:124,_ZN39AccSpeedPidTest_TC_ACC_SPEED_EQ_07_TestC1Ev
FNDA:1,_ZN39AccSpeedPidTest_TC_ACC_SPEED_EQ_07_TestC1Ev
FN:124,_ZN39AccSpeedPidTest_TC_ACC_SPEED_EQ_07_Test8TestBodyEv
FNDA:1,_ZN39AccSpeedPidTest_TC_ACC_SPEED_EQ_07_Test8TestBodyEv
FN:133,_ZN39AccSpeedPidTest_TC_ACC_SPEED_EQ_08_TestC1Ev
FNDA:1,_ZN39AccSpeedPidTest_TC_ACC_SPEED_EQ_08_TestC1Ev
FN:133,_ZN39AccSpeedPidTest_TC_ACC_SPEED_EQ_08_TestD1Ev
FNDA:1,_ZN39AccSpeedPidTest_TC_ACC_SPEED_EQ_08_TestD1Ev
FN:133,_ZN39AccSpeedPidTest_TC_ACC_SPEED_EQ_08_TestD0Ev
FNDA:1,_ZN39AccSpeedPidTest_TC_ACC_SPEED_EQ_08_TestD0Ev
FN:133,_ZN39AccSpeedPidTest_TC_ACC_SPEED_EQ_08_Test8TestBodyEv
FNDA:1,_ZN39AccSpeedPidTest_TC_ACC_SPEED_EQ_08_Test8TestBodyEv
FN:142,_ZN39AccSpeedPidTest_TC_ACC_SPEED_EQ_09_TestC1Ev
FNDA:1,_ZN39AccSpeedPidTest_TC_ACC_SPEED_EQ_09_TestC1Ev
FN:142,_ZN39AccSpeedPidTest_TC_ACC_SPEED_EQ_09_TestD1Ev
FNDA:1,_ZN39AccSpeedPidTest_TC_ACC_SPEED_EQ_09_TestD1Ev
FN:142,_ZN39AccSpeedPidTest_TC_ACC_SPEED_EQ_09_TestD0Ev
FNDA:1,_ZN39AccSpeedPidTest_TC_ACC_SPEED_EQ_09_TestD0Ev
FN:142,_ZN39AccSpeedPidTest_TC_ACC_SPEED_EQ_09_Test8TestBodyEv
FNDA:1,_ZN39AccSpeedPidTest_TC_ACC_SPEED_EQ_09_Test8TestBodyEv
FN:151,_ZN39AccSpeedPidTest_TC_ACC_SPEED_EQ_10_TestD1Ev
FNDA:1,_ZN39AccSpeedPidTest_TC_ACC_SPEED_EQ_10_TestD1Ev
FN:151,_ZN39AccSpeedPidTest_TC_ACC_SPEED_EQ_10_TestC1Ev
FNDA:1,_ZN39AccSpeedPidTest_TC_ACC_SPEED_EQ_10_TestC1Ev
FN:151,_ZN39AccSpeedPidTest_TC_ACC_SPEED_EQ_10_TestD0Ev
FNDA:1,_ZN39AccSpeedPidTest_TC_ACC_SPEED_EQ_10_TestD0Ev
FN:151,_ZN39AccSpeedPidTest_TC_ACC_SPEED_EQ_10_Test8TestBodyEv
FNDA:1,_ZN39AccSpeedPidTest_TC_ACC_SPEED_EQ_10_Test8TestBodyEv
FN:161,_ZN39AccSpeedPidTest_TC_ACC_SPEED_EQ_11_TestD0Ev
FNDA:1,_ZN39AccSpeedPidTest_TC_ACC_SPEED_EQ_11_TestD0Ev
FN:161,_ZN39AccSpeedPidTest_TC_ACC_SPEED_EQ_11_TestD1Ev
FNDA:1,_ZN39AccSpeedPidTest_TC_ACC_SPEED_EQ_11_TestD1Ev
FN:161,_ZN39AccSpeedPidTest_TC_ACC_SPEED_EQ_11_Test8TestBodyEv
FNDA:1,_ZN39AccSpeedPidTest_TC_ACC_SPEED_EQ_11_Test8TestBodyEv
FN:161,_ZN39AccSpeedPidTest_TC_ACC_SPEED_EQ_11_TestC1Ev
FNDA:1,_ZN39AccSpeedPidTest_TC_ACC_SPEED_EQ_11_TestC1Ev
FN:169,_ZN39AccSpeedPidTest_TC_ACC_SPEED_EQ_12_TestC1Ev
FNDA:1,_ZN39AccSpeedPidTest_TC_ACC_SPEED_EQ_12_TestC1Ev
FN:169,_ZN39AccSpeedPidTest_TC_ACC_SPEED_EQ_12_TestD0Ev
FNDA:1,_ZN39AccSpeedPidTest_TC_ACC_SPEED_EQ_12_TestD0Ev
FN:169,_ZN39AccSpeedPidTest_TC_ACC_SPEED_EQ_12_TestD1Ev
FNDA:1,_ZN39AccSpeedPidTest_TC_ACC_SPEED_EQ_12_TestD1Ev
FN:169,_ZN39AccSpeedPidTest_TC_ACC_SPEED_EQ_12_Test8TestBodyEv
FNDA:1,_ZN39AccSpeedPidTest_TC_ACC_SPEED_EQ_12_Test8TestBodyEv
FN:179,_ZN39AccSpeedPidTest_TC_ACC_SPEED_EQ_13_TestD0Ev
FNDA:1,_ZN39AccSpeedPidTest_TC_ACC_SPEED_EQ_13_TestD0Ev
FN:179,_ZN39AccSpeedPidTest_TC_ACC_SPEED_EQ_13_TestC1Ev
FNDA:1,_ZN39AccSpeedPidTest_TC_ACC_SPEED_EQ_13_TestC1Ev
FN:179,_ZN39AccSpeedPidTest_TC_ACC_SPEED_EQ_13_Test8TestBodyEv
FNDA:1,_ZN39AccSpeedPidTest_TC_ACC_SPEED_EQ_13_Test8TestBodyEv
FN:179,_ZN39AccSpeedPidTest_TC_ACC_SPEED_EQ_13_TestD1Ev
FNDA:1,_ZN39AccSpeedPidTest_TC_ACC_SPEED_EQ_13_TestD1Ev
FN:188,_ZN39AccSpeedPidTest_TC_ACC_SPEED_EQ_14_TestC1Ev
FNDA:1,_ZN39AccSpeedPidTest_TC_ACC_SPEED_EQ_14_TestC1Ev
FN:188,_ZN39AccSpeedPidTest_TC_ACC_SPEED_EQ_14_Test8TestBodyEv
FNDA:1,_ZN39AccSpeedPidTest_TC_ACC_SPEED_EQ_14_Test8TestBodyEv
FN:188,_ZN39AccSpeedPidTest_TC_ACC_SPEED_EQ_14_TestD1Ev
FNDA:1,_ZN39AccSpeedPidTest_TC_ACC_SPEED_EQ_14_TestD1Ev
FN:188,_ZN39AccSpeedPidTest_TC_ACC_SPEED_EQ_14_TestD0Ev
FNDA:1,_ZN39AccSpeedPidTest_TC_ACC_SPEED_EQ_14_TestD0Ev
FN:197,_ZN39AccSpeedPidTest_TC_ACC_SPEED_EQ_15_TestD1Ev
FNDA:1,_ZN39AccSpeedPidTest_TC_ACC_SPEED_EQ_15_TestD1Ev
FN:197,_ZN39AccSpeedPidTest_TC_ACC_SPEED_EQ_15_Test8TestBodyEv
FNDA:1,_ZN39AccSpeedPidTest_TC_ACC_SPEED_EQ_15_Test8TestBodyEv
FN:197,_ZN39AccSpeedPidTest_TC_ACC_SPEED_EQ_15_TestD0Ev
FNDA:1,_ZN39AccSpeedPidTest_TC_ACC_SPEED_EQ_15_TestD0Ev
FN:197,_ZN39AccSpeedPidTest_TC_ACC_SPEED_EQ_15_TestC1Ev
FNDA:1,_ZN39AccSpeedPidTest_TC_ACC_SPEED_EQ_15_TestC1Ev
FN:208,_ZN39AccSpeedPidTest_TC_ACC_SPEED_EQ_16_TestD0Ev
FNDA:1,_ZN39AccSpeedPidTest_TC_ACC_SPEED_EQ_16_TestD0Ev
FN:208,_ZN39AccSpeedPidTest_TC_ACC_SPEED_EQ_16_TestD1Ev
FNDA:1,_ZN39AccSpeedPidTest_TC_ACC_SPEED_EQ_16_TestD1Ev
FN:208,_ZN39AccSpeedPidTest_TC_ACC_SPEED_EQ_16_TestC1Ev
FNDA:1,_ZN39AccSpeedPidTest_TC_ACC_SPEED_EQ_16_TestC1Ev
FN:208,_ZN39AccSpeedPidTest_TC_ACC_SPEED_EQ_16_Test8TestBodyEv
FNDA:1,_ZN39AccSpeedPidTest_TC_ACC_SPEED_EQ_16_Test8TestBodyEv
FN:221,_ZN39AccSpeedPidTest_TC_ACC_SPEED_EQ_17_TestC1Ev
FNDA:1,_ZN39AccSpeedPidTest_TC_ACC_SPEED_EQ_17_TestC1Ev
FN:221,_ZN39AccSpeedPidTest_TC_ACC_SPEED_EQ_17_Test8TestBodyEv
FNDA:1,_ZN39AccSpeedPidTest_TC_ACC_SPEED_EQ_17_Test8TestBodyEv
FN:221,_ZN39AccSpeedPidTest_TC_ACC_SPEED_EQ_17_TestD0Ev
FNDA:1,_ZN39AccSpeedPidTest_TC_ACC_SPEED_EQ_17_TestD0Ev
FN:221,_ZN39AccSpeedPidTest_TC_ACC_SPEED_EQ_17_TestD1Ev
FNDA:1,_ZN39AccSpeedPidTest_TC_ACC_SPEED_EQ_17_TestD1Ev
FN:234,_ZN39AccSpeedPidTest_TC_ACC_SPEED_EQ_18_TestC1Ev
FNDA:1,_ZN39AccSpeedPidTest_TC_ACC_SPEED_EQ_18_TestC1Ev
FN:234,_ZN39AccSpeedPidTest_TC_ACC_SPEED_EQ_18_Test8TestBodyEv
FNDA:1,_ZN39AccSpeedPidTest_TC_ACC_SPEED_EQ_18_Test8TestBodyEv
FN:234,_ZN39AccSpeedPidTest_TC_ACC_SPEED_EQ_18_TestD0Ev
FNDA:1,_ZN39AccSpeedPidTest_TC_ACC_SPEED_EQ_18_TestD0Ev
FN:234,_ZN39AccSpeedPidTest_TC_ACC_SPEED_EQ_18_TestD1Ev
FNDA:1,_ZN39AccSpeedPidTest_TC_ACC_SPEED_EQ_18_TestD1Ev
FN:244,_ZN39AccSpeedPidTest_TC_ACC_SPEED_EQ_19_TestD1Ev
FNDA:1,_ZN39AccSpeedPidTest_TC_ACC_SPEED_EQ_19_TestD1Ev
FN:244,_ZN39AccSpeedPidTest_TC_ACC_SPEED_EQ_19_TestD0Ev
FNDA:1,_ZN39AccSpeedPidTest_TC_ACC_SPEED_EQ_19_TestD0Ev
FN:244,_ZN39AccSpeedPidTest_TC_ACC_SPEED_EQ_19_TestC1Ev
FNDA:1,_ZN39AccSpeedPidTest_TC_ACC_SPEED_EQ_19_TestC1Ev
FN:244,_ZN39AccSpeedPidTest_TC_ACC_SPEED_EQ_19_Test8TestBodyEv
FNDA:1,_ZN39AccSpeedPidTest_TC_ACC_SPEED_EQ_19_Test8TestBodyEv
FN:256,_ZN39AccSpeedPidTest_TC_ACC_SPEED_EQ_20_TestD0Ev
FNDA:1,_ZN39AccSpeedPidTest_TC_ACC_SPEED_EQ_20_TestD0Ev
FN:256,_ZN39AccSpeedPidTest_TC_ACC_SPEED_EQ_20_TestD1Ev
FNDA:1,_ZN39AccSpeedPidTest_TC_ACC_SPEED_EQ_20_TestD1Ev
FN:256,_ZN39AccSpeedPidTest_TC_ACC_SPEED_EQ_20_Test8TestBodyEv
FNDA:1,_ZN39AccSpeedPidTest_TC_ACC_SPEED_EQ_20_Test8TestBodyEv
FN:256,_ZN39AccSpeedPidTest_TC_ACC_SPEED_EQ_20_TestC1Ev
FNDA:1,_ZN39AccSpeedPidTest_TC_ACC_SPEED_EQ_20_TestC1Ev
FN:267,_ZN39AccSpeedPidTest_TC_ACC_SPEED_EQ_21_Test8TestBodyEv
FNDA:1,_ZN39AccSpeedPidTest_TC_ACC_SPEED_EQ_21_Test8TestBodyEv
FN:267,_ZN39AccSpeedPidTest_TC_ACC_SPEED_EQ_21_TestD0Ev
FNDA:1,_ZN39AccSpeedPidTest_TC_ACC_SPEED_EQ_21_TestD0Ev
FN:267,_ZN39AccSpeedPidTest_TC_ACC_SPEED_EQ_21_TestD1Ev
FNDA:1,_ZN39AccSpeedPidTest_TC_ACC_SPEED_EQ_21_TestD1Ev
FN:267,_ZN39AccSpeedPidTest_TC_ACC_SPEED_EQ_21_TestC1Ev
FNDA:1,_ZN39AccSpeedPidTest_TC_ACC_SPEED_EQ_21_TestC1Ev
FN:275,_ZN39AccSpeedPidTest_TC_ACC_SPEED_EQ_22_Test8TestBodyEv
FNDA:1,_ZN39AccSpeedPidTest_TC_ACC_SPEED_EQ_22_Test8TestBodyEv
FN:275,_ZN39AccSpeedPidTest_TC_ACC_SPEED_EQ_22_TestD1Ev
FNDA:1,_ZN39AccSpeedPidTest_TC_ACC_SPEED_EQ_22_TestD1Ev
FN:275,_ZN39AccSpeedPidTest_TC_ACC_SPEED_EQ_22_TestD0Ev
FNDA:1,_ZN39AccSpeedPidTest_TC_ACC_SPEED_EQ_22_TestD0Ev
FN:275,_ZN39AccSpeedPidTest_TC_ACC_SPEED_EQ_22_TestC1Ev
FNDA:1,_ZN39AccSpeedPidTest_TC_ACC_SPEED_EQ_22_TestC1Ev
FN:283,_ZN39AccSpeedPidTest_TC_ACC_SPEED_EQ_23_TestD0Ev
FNDA:1,_ZN39AccSpeedPidTest_TC_ACC_SPEED_EQ_23_TestD0Ev
FN:283,_ZN39AccSpeedPidTest_TC_ACC_SPEED_EQ_23_Test8TestBodyEv
FNDA:1,_ZN39AccSpeedPidTest_TC_ACC_SPEED_EQ_23_Test8TestBodyEv
FN:283,_ZN39AccSpeedPidTest_TC_ACC_SPEED_EQ_23_TestC1Ev
FNDA:1,_ZN39AccSpeedPidTest_TC_ACC_SPEED_EQ_23_TestC1Ev
FN:283,_ZN39AccSpeedPidTest_TC_ACC_SPEED_EQ_23_TestD1Ev
FNDA:1,_ZN39AccSpeedPidTest_TC_ACC_SPEED_EQ_23_TestD1Ev
FN:291,_ZN39AccSpeedPidTest_TC_ACC_SPEED_EQ_24_TestC1Ev
FNDA:1,_ZN39AccSpeedPidTest_TC_ACC_SPEED_EQ_24_TestC1Ev
FN:291,_ZN39AccSpeedPidTest_TC_ACC_SPEED_EQ_24_TestD0Ev
FNDA:1,_ZN39AccSpeedPidTest_TC_ACC_SPEED_EQ_24_TestD0Ev
FN:291,_ZN39AccSpeedPidTest_TC_ACC_SPEED_EQ_24_TestD1Ev
FNDA:1,_ZN39AccSpeedPidTest_TC_ACC_SPEED_EQ_24_TestD1Ev
FN:291,_ZN39AccSpeedPidTest_TC_ACC_SPEED_EQ_24_Test8TestBodyEv
FNDA:1,_ZN39AccSpeedPidTest_TC_ACC_SPEED_EQ_24_Test8TestBodyEv
FN:300,_ZN39AccSpeedPidTest_TC_ACC_SPEED_EQ_25_TestD0Ev
FNDA:1,_ZN39AccSpeedPidTest_TC_ACC_SPEED_EQ_25_TestD0Ev
FN:300,_ZN39AccSpeedPidTest_TC_ACC_SPEED_EQ_25_TestD1Ev
FNDA:1,_ZN39AccSpeedPidTest_TC_ACC_SPEED_EQ_25_TestD1Ev
FN:300,_ZN39AccSpeedPidTest_TC_ACC_SPEED_EQ_25_TestC1Ev
FNDA:1,_ZN39AccSpeedPidTest_TC_ACC_SPEED_EQ_25_TestC1Ev
FN:300,_ZN39AccSpeedPidTest_TC_ACC_SPEED_EQ_25_Test8TestBodyEv
FNDA:1,_ZN39AccSpeedPidTest_TC_ACC_SPEED_EQ_25_Test8TestBodyEv
FN:309,_ZN39AccSpeedPidTest_TC_ACC_SPEED_EQ_26_TestD0Ev
FNDA:1,_ZN39AccSpeedPidTest_TC_ACC_SPEED_EQ_26_TestD0Ev
FN:309,_ZN39AccSpeedPidTest_TC_ACC_SPEED_EQ_26_TestD1Ev
FNDA:1,_ZN39AccSpeedPidTest_TC_ACC_SPEED_EQ_26_TestD1Ev
FN:309,_ZN39AccSpeedPidTest_TC_ACC_SPEED_EQ_26_TestC1Ev
FNDA:1,_ZN39AccSpeedPidTest_TC_ACC_SPEED_EQ_26_TestC1Ev
FN:309,_ZN39AccSpeedPidTest_TC_ACC_SPEED_EQ_26_Test8TestBodyEv
FNDA:1,_ZN39AccSpeedPidTest_TC_ACC_SPEED_EQ_26_Test8TestBodyEv
FN:322,_ZN39AccSpeedPidTest_TC_ACC_SPEED_EQ_27_TestD0Ev
FNDA:1,_ZN39AccSpeedPidTest_TC_ACC_SPEED_EQ_27_TestD0Ev
FN:322,_ZN39AccSpeedPidTest_TC_ACC_SPEED_EQ_27_TestD1Ev
FNDA:1,_ZN39AccSpeedPidTest_TC_ACC_SPEED_EQ_27_TestD1Ev
FN:322,_ZN39AccSpeedPidTest_TC_ACC_SPEED_EQ_27_Test8TestBodyEv
FNDA:1,_ZN39AccSpeedPidTest_TC_ACC_SPEED_EQ_27_Test8TestBodyEv
FN:322,_ZN39AccSpeedPidTest_TC_ACC_SPEED_EQ_27_TestC1Ev
FNDA:1,_ZN39AccSpeedPidTest_TC_ACC_SPEED_EQ_27_TestC1Ev
FN:331,_ZN39AccSpeedPidTest_TC_ACC_SPEED_EQ_28_TestD0Ev
FNDA:1,_ZN39AccSpeedPidTest_TC_ACC_SPEED_EQ_28_TestD0Ev
FN:331,_ZN39AccSpeedPidTest_TC_ACC_SPEED_EQ_28_TestC1Ev
FNDA:1,_ZN39AccSpeedPidTest_TC_ACC_SPEED_EQ_28_TestC1Ev
FN:331,_ZN39AccSpeedPidTest_TC_ACC_SPEED_EQ_28_TestD1Ev
FNDA:1,_ZN39AccSpeedPidTest_TC_ACC_SPEED_EQ_28_TestD1Ev
FN:331,_ZN39AccSpeedPidTest_TC_ACC_SPEED_EQ_28_Test8TestBodyEv
FNDA:1,_ZN39AccSpeedPidTest_TC_ACC_SPEED_EQ_28_Test8TestBodyEv
FN:340,_ZN39AccSpeedPidTest_TC_ACC_SPEED_EQ_29_TestC1Ev
FNDA:1,_ZN39AccSpeedPidTest_TC_ACC_SPEED_EQ_29_TestC1Ev
FN:340,_ZN39AccSpeedPidTest_TC_ACC_SPEED_EQ_29_TestD0Ev
FNDA:1,_ZN39AccSpeedPidTest_TC_ACC_SPEED_EQ_29_TestD0Ev
FN:340,_ZN39AccSpeedPidTest_TC_ACC_SPEED_EQ_29_TestD1Ev
FNDA:1,_ZN39AccSpeedPidTest_TC_ACC_SPEED_EQ_29_TestD1Ev
FN:340,_ZN39AccSpeedPidTest_TC_ACC_SPEED_EQ_29_Test8TestBodyEv
FNDA:1,_ZN39AccSpeedPidTest_TC_ACC_SPEED_EQ_29_Test8TestBodyEv
FN:347,_ZN39AccSpeedPidTest_TC_ACC_SPEED_EQ_30_TestC1Ev
FNDA:1,_ZN39AccSpeedPidTest_TC_ACC_SPEED_EQ_30_TestC1Ev
FN:347,_ZN39AccSpeedPidTest_TC_ACC_SPEED_EQ_30_TestD1Ev
FNDA:1,_ZN39AccSpeedPidTest_TC_ACC_SPEED_EQ_30_TestD1Ev
FN:347,_ZN39AccSpeedPidTest_TC_ACC_SPEED_EQ_30_Test8TestBodyEv
FNDA:1,_ZN39AccSpeedPidTest_TC_ACC_SPEED_EQ_30_Test8TestBodyEv
FN:347,_ZN39AccSpeedPidTest_TC_ACC_SPEED_EQ_30_TestD0Ev
FNDA:1,_ZN39AccSpeedPidTest_TC_ACC_SPEED_EQ_30_TestD0Ev
FN:359,_ZN39AccSpeedPidTest_TC_ACC_SPEED_BV_01_TestC1Ev
FNDA:1,_ZN39AccSpeedPidTest_TC_ACC_SPEED_BV_01_TestC1Ev
FN:359,_ZN39AccSpeedPidTest_TC_ACC_SPEED_BV_01_TestD0Ev
FNDA:1,_ZN39AccSpeedPidTest_TC_ACC_SPEED_BV_01_TestD0Ev
FN:359,_ZN39AccSpeedPidTest_TC_ACC_SPEED_BV_01_TestD1Ev
FNDA:1,_ZN39AccSpeedPidTest_TC_ACC_SPEED_BV_01_TestD1Ev
FN:359,_ZN39AccSpeedPidTest_TC_ACC_SPEED_BV_01_Test8TestBodyEv
FNDA:1,_ZN39AccSpeedPidTest_TC_ACC_SPEED_BV_01_Test8TestBodyEv
FN:369,_ZN39AccSpeedPidTest_TC_ACC_SPEED_BV_02_TestD1Ev
FNDA:1,_ZN39AccSpeedPidTest_TC_ACC_SPEED_BV_02_TestD1Ev
FN:369,_ZN39AccSpeedPidTest_TC_ACC_SPEED_BV_02_Test8TestBodyEv
FNDA:1,_ZN39AccSpeedPidTest_TC_ACC_SPEED_BV_02_Test8TestBodyEv
FN:369,_ZN39AccSpeedPidTest_TC_ACC_SPEED_BV_02_TestD0Ev
FNDA:1,_ZN39AccSpeedPidTest_TC_ACC_SPEED_BV_02_TestD0Ev
FN:369,_ZN39AccSpeedPidTest_TC_ACC_SPEED_BV_02_TestC1Ev
FNDA:1,_ZN39AccSpeedPidTest_TC_ACC_SPEED_BV_02_TestC1Ev
FN:378,_ZN39AccSpeedPidTest_TC_ACC_SPEED_BV_03_TestC1Ev
FNDA:1,_ZN39AccSpeedPidTest_TC_ACC_SPEED_BV_03_TestC1Ev
FN:378,_ZN39AccSpeedPidTest_TC_ACC_SPEED_BV_03_Test8TestBodyEv
FNDA:1,_ZN39AccSpeedPidTest_TC_ACC_SPEED_BV_03_Test8TestBodyEv
FN:378,_ZN39AccSpeedPidTest_TC_ACC_SPEED_BV_03_TestD0Ev
FNDA:1,_ZN39AccSpeedPidTest_TC_ACC_SPEED_BV_03_TestD0Ev
FN:378,_ZN39AccSpeedPidTest_TC_ACC_SPEED_BV_03_TestD1Ev
FNDA:1,_ZN39AccSpeedPidTest_TC_ACC_SPEED_BV_03_TestD1Ev
FN:388,_ZN39AccSpeedPidTest_TC_ACC_SPEED_BV_04_TestC1Ev
FNDA:1,_ZN39AccSpeedPidTest_TC_ACC_SPEED_BV_04_TestC1Ev
FN:388,_ZN39AccSpeedPidTest_TC_ACC_SPEED_BV_04_Test8TestBodyEv
FNDA:1,_ZN39AccSpeedPidTest_TC_ACC_SPEED_BV_04_Test8TestBodyEv
FN:388,_ZN39AccSpeedPidTest_TC_ACC_SPEED_BV_04_TestD0Ev
FNDA:1,_ZN39AccSpeedPidTest_TC_ACC_SPEED_BV_04_TestD0Ev
FN:388,_ZN39AccSpeedPidTest_TC_ACC_SPEED_BV_04_TestD1Ev
FNDA:1,_ZN39AccSpeedPidTest_TC_ACC_SPEED_BV_04_TestD1Ev
FN:398,_ZN39AccSpeedPidTest_TC_ACC_SPEED_BV_05_TestD0Ev
FNDA:1,_ZN39AccSpeedPidTest_TC_ACC_SPEED_BV_05_TestD0Ev
FN:398,_ZN39AccSpeedPidTest_TC_ACC_SPEED_BV_05_Test8TestBodyEv
FNDA:1,_ZN39AccSpeedPidTest_TC_ACC_SPEED_BV_05_Test8TestBodyEv
FN:398,_ZN39AccSpeedPidTest_TC_ACC_SPEED_BV_05_TestD1Ev
FNDA:1,_ZN39AccSpeedPidTest_TC_ACC_SPEED_BV_05_TestD1Ev
FN:398,_ZN39AccSpeedPidTest_TC_ACC_SPEED_BV_05_TestC1Ev
FNDA:1,_ZN39AccSpeedPidTest_TC_ACC_SPEED_BV_05_TestC1Ev
FN:407,_ZN39AccSpeedPidTest_TC_ACC_SPEED_BV_06_TestD0Ev
FNDA:1,_ZN39AccSpeedPidTest_TC_ACC_SPEED_BV_06_TestD0Ev
FN:407,_ZN39AccSpeedPidTest_TC_ACC_SPEED_BV_06_TestD1Ev
FNDA:1,_ZN39AccSpeedPidTest_TC_ACC_SPEED_BV_06_TestD1Ev
FN:407,_ZN39AccSpeedPidTest_TC_ACC_SPEED_BV_06_Test8TestBodyEv
FNDA:1,_ZN39AccSpeedPidTest_TC_ACC_SPEED_BV_06_Test8TestBodyEv
FN:407,_ZN39AccSpeedPidTest_TC_ACC_SPEED_BV_06_TestC1Ev
FNDA:1,_ZN39AccSpeedPidTest_TC_ACC_SPEED_BV_06_TestC1Ev
FN:417,_ZN39AccSpeedPidTest_TC_ACC_SPEED_BV_07_TestD0Ev
FNDA:1,_ZN39AccSpeedPidTest_TC_ACC_SPEED_BV_07_TestD0Ev
FN:417,_ZN39AccSpeedPidTest_TC_ACC_SPEED_BV_07_Test8TestBodyEv
FNDA:1,_ZN39AccSpeedPidTest_TC_ACC_SPEED_BV_07_Test8TestBodyEv
FN:417,_ZN39AccSpeedPidTest_TC_ACC_SPEED_BV_07_TestD1Ev
FNDA:1,_ZN39AccSpeedPidTest_TC_ACC_SPEED_BV_07_TestD1Ev
FN:417,_ZN39AccSpeedPidTest_TC_ACC_SPEED_BV_07_TestC1Ev
FNDA:1,_ZN39AccSpeedPidTest_TC_ACC_SPEED_BV_07_TestC1Ev
FN:427,_ZN39AccSpeedPidTest_TC_ACC_SPEED_BV_08_TestC1Ev
FNDA:1,_ZN39AccSpeedPidTest_TC_ACC_SPEED_BV_08_TestC1Ev
FN:427,_ZN39AccSpeedPidTest_TC_ACC_SPEED_BV_08_Test8TestBodyEv
FNDA:1,_ZN39AccSpeedPidTest_TC_ACC_SPEED_BV_08_Test8TestBodyEv
FN:427,_ZN39AccSpeedPidTest_TC_ACC_SPEED_BV_08_TestD1Ev
FNDA:1,_ZN39AccSpeedPidTest_TC_ACC_SPEED_BV_08_TestD1Ev
FN:427,_ZN39AccSpeedPidTest_TC_ACC_SPEED_BV_08_TestD0Ev
FNDA:1,_ZN39AccSpeedPidTest_TC_ACC_SPEED_BV_08_TestD0Ev
FN:436,_ZN39AccSpeedPidTest_TC_ACC_SPEED_BV_09_TestC1Ev
FNDA:1,_ZN39AccSpeedPidTest_TC_ACC_SPEED_BV_09_TestC1Ev
FN:436,_ZN39AccSpeedPidTest_TC_ACC_SPEED_BV_09_Test8TestBodyEv
FNDA:1,_ZN39AccSpeedPidTest_TC_ACC_SPEED_BV_09_Test8TestBodyEv
FN:436,_ZN39AccSpeedPidTest_TC_ACC_SPEED_BV_09_TestD1Ev
FNDA:1,_ZN39AccSpeedPidTest_TC_ACC_SPEED_BV_09_TestD1Ev
FN:436,_ZN39AccSpeedPidTest_TC_ACC_SPEED_BV_09_TestD0Ev
FNDA:1,_ZN39AccSpeedPidTest_TC_ACC_SPEED_BV_09_TestD0Ev
FN:450,_ZN39AccSpeedPidTest_TC_ACC_SPEED_BV_10_TestC1Ev
FNDA:1,_ZN39AccSpeedPidTest_TC_ACC_SPEED_BV_10_TestC1Ev
FN:450,_ZN39AccSpeedPidTest_TC_ACC_SPEED_BV_10_Test8TestBodyEv
FNDA:1,_ZN39AccSpeedPidTest_TC_ACC_SPEED_BV_10_Test8TestBodyEv
FN:450,_ZN39AccSpeedPidTest_TC_ACC_SPEED_BV_10_TestD1Ev
FNDA:1,_ZN39AccSpeedPidTest_TC_ACC_SPEED_BV_10_TestD1Ev
FN:450,_ZN39AccSpeedPidTest_TC_ACC_SPEED_BV_10_TestD0Ev
FNDA:1,_ZN39AccSpeedPidTest_TC_ACC_SPEED_BV_10_TestD0Ev
FN:458,_ZN39AccSpeedPidTest_TC_ACC_SPEED_BV_11_TestD0Ev
FNDA:1,_ZN39AccSpeedPidTest_TC_ACC_SPEED_BV_11_TestD0Ev
FN:458,_ZN39AccSpeedPidTest_TC_ACC_SPEED_BV_11_Test8TestBodyEv
FNDA:1,_ZN39AccSpeedPidTest_TC_ACC_SPEED_BV_11_Test8TestBodyEv
FN:458,_ZN39AccSpeedPidTest_TC_ACC_SPEED_BV_11_TestD1Ev
FNDA:1,_ZN39AccSpeedPidTest_TC_ACC_SPEED_BV_11_TestD1Ev
FN:458,_ZN39AccSpeedPidTest_TC_ACC_SPEED_BV_11_TestC1Ev
FNDA:1,_ZN39AccSpeedPidTest_TC_ACC_SPEED_BV_11_TestC1Ev
FN:466,_ZN39AccSpeedPidTest_TC_ACC_SPEED_BV_12_Test8TestBodyEv
FNDA:1,_ZN39AccSpeedPidTest_TC_ACC_SPEED_BV_12_Test8TestBodyEv
FN:466,_ZN39AccSpeedPidTest_TC_ACC_SPEED_BV_12_TestC1Ev
FNDA:1,_ZN39AccSpeedPidTest_TC_ACC_SPEED_BV_12_TestC1Ev
FN:466,_ZN39AccSpeedPidTest_TC_ACC_SPEED_BV_12_TestD1Ev
FNDA:1,_ZN39AccSpeedPidTest_TC_ACC_SPEED_BV_12_TestD1Ev
FN:466,_ZN39AccSpeedPidTest_TC_ACC_SPEED_BV_12_TestD0Ev
FNDA:1,_ZN39AccSpeedPidTest_TC_ACC_SPEED_BV_12_TestD0Ev
FN:475,_ZN39AccSpeedPidTest_TC_ACC_SPEED_BV_13_Test8TestBodyEv
FNDA:1,_ZN39AccSpeedPidTest_TC_ACC_SPEED_BV_13_Test8TestBodyEv
FN:475,_ZN39AccSpeedPidTest_TC_ACC_SPEED_BV_13_TestD1Ev
FNDA:1,_ZN39AccSpeedPidTest_TC_ACC_SPEED_BV_13_TestD1Ev
FN:475,_ZN39AccSpeedPidTest_TC_ACC_SPEED_BV_13_TestD0Ev
FNDA:1,_ZN39AccSpeedPidTest_TC_ACC_SPEED_BV_13_TestD0Ev
FN:475,_ZN39AccSpeedPidTest_TC_ACC_SPEED_BV_13_TestC1Ev
FNDA:1,_ZN39AccSpeedPidTest_TC_ACC_SPEED_BV_13_TestC1Ev
FN:485,_ZN39AccSpeedPidTest_TC_ACC_SPEED_BV_14_Test8TestBodyEv
FNDA:1,_ZN39AccSpeedPidTest_TC_ACC_SPEED_BV_14_Test8TestBodyEv
FN:485,_ZN39AccSpeedPidTest_TC_ACC_SPEED_BV_14_TestD0Ev
FNDA:1,_ZN39AccSpeedPidTest_TC_ACC_SPEED_BV_14_TestD0Ev
FN:485,_ZN39AccSpeedPidTest_TC_ACC_SPEED_BV_14_TestD1Ev
FNDA:1,_ZN39AccSpeedPidTest_TC_ACC_SPEED_BV_14_TestD1Ev
FN:485,_ZN39AccSpeedPidTest_TC_ACC_SPEED_BV_14_TestC1Ev
FNDA:1,_ZN39AccSpeedPidTest_TC_ACC_SPEED_BV_14_TestC1Ev
FN:493,_ZN39AccSpeedPidTest_TC_ACC_SPEED_BV_15_TestC1Ev
FNDA:1,_ZN39AccSpeedPidTest_TC_ACC_SPEED_BV_15_TestC1Ev
FN:493,_ZN39AccSpeedPidTest_TC_ACC_SPEED_BV_15_TestD0Ev
FNDA:1,_ZN39AccSpeedPidTest_TC_ACC_SPEED_BV_15_TestD0Ev
FN:493,_ZN39AccSpeedPidTest_TC_ACC_SPEED_BV_15_TestD1Ev
FNDA:1,_ZN39AccSpeedPidTest_TC_ACC_SPEED_BV_15_TestD1Ev
FN:493,_ZN39AccSpeedPidTest_TC_ACC_SPEED_BV_15_Test8TestBodyEv
FNDA:1,_ZN39AccSpeedPidTest_TC_ACC_SPEED_BV_15_Test8TestBodyEv
FN:502,_ZN39AccSpeedPidTest_TC_ACC_SPEED_BV_16_Test8TestBodyEv
FNDA:1,_ZN39AccSpeedPidTest_TC_ACC_SPEED_BV_16_Test8TestBodyEv
FN:502,_ZN39AccSpeedPidTest_TC_ACC_SPEED_BV_16_TestD1Ev
FNDA:1,_ZN39AccSpeedPidTest_TC_ACC_SPEED_BV_16_TestD1Ev
FN:502,_ZN39AccSpeedPidTest_TC_ACC_SPEED_BV_16_TestD0Ev
FNDA:1,_ZN39AccSpeedPidTest_TC_ACC_SPEED_BV_16_TestD0Ev
FN:502,_ZN39AccSpeedPidTest_TC_ACC_SPEED_BV_16_TestC1Ev
FNDA:1,_ZN39AccSpeedPidTest_TC_ACC_SPEED_BV_16_TestC1Ev
FN:511,_ZN39AccSpeedPidTest_TC_ACC_SPEED_BV_17_TestD1Ev
FNDA:1,_ZN39AccSpeedPidTest_TC_ACC_SPEED_BV_17_TestD1Ev
FN:511,_ZN39AccSpeedPidTest_TC_ACC_SPEED_BV_17_TestD0Ev
FNDA:1,_ZN39AccSpeedPidTest_TC_ACC_SPEED_BV_17_TestD0Ev
FN:511,_ZN39AccSpeedPidTest_TC_ACC_SPEED_BV_17_TestC1Ev
FNDA:1,_ZN39AccSpeedPidTest_TC_ACC_SPEED_BV_17_TestC1Ev
FN:511,_ZN39AccSpeedPidTest_TC_ACC_SPEED_BV_17_Test8TestBodyEv
FNDA:1,_ZN39AccSpeedPidTest_TC_ACC_SPEED_BV_17_Test8TestBodyEv
FN:522,_ZN39AccSpeedPidTest_TC_ACC_SPEED_BV_18_Test8TestBodyEv
FNDA:1,_ZN39AccSpeedPidTest_TC_ACC_SPEED_BV_18_Test8TestBodyEv
FN:522,_ZN39AccSpeedPidTest_TC_ACC_SPEED_BV_18_TestD1Ev
FNDA:1,_ZN39AccSpeedPidTest_TC_ACC_SPEED_BV_18_TestD1Ev
FN:522,_ZN39AccSpeedPidTest_TC_ACC_SPEED_BV_18_TestD0Ev
FNDA:1,_ZN39AccSpeedPidTest_TC_ACC_SPEED_BV_18_TestD0Ev
FN:522,_ZN39AccSpeedPidTest_TC_ACC_SPEED_BV_18_TestC1Ev
FNDA:1,_ZN39AccSpeedPidTest_TC_ACC_SPEED_BV_18_TestC1Ev
FN:531,_ZN39AccSpeedPidTest_TC_ACC_SPEED_BV_19_Test8TestBodyEv
FNDA:1,_ZN39AccSpeedPidTest_TC_ACC_SPEED_BV_19_Test8TestBodyEv
FN:531,_ZN39AccSpeedPidTest_TC_ACC_SPEED_BV_19_TestD1Ev
FNDA:1,_ZN39AccSpeedPidTest_TC_ACC_SPEED_BV_19_TestD1Ev
FN:531,_ZN39AccSpeedPidTest_TC_ACC_SPEED_BV_19_TestD0Ev
FNDA:1,_ZN39AccSpeedPidTest_TC_ACC_SPEED_BV_19_TestD0Ev
FN:531,_ZN39AccSpeedPidTest_TC_ACC_SPEED_BV_19_TestC1Ev
FNDA:1,_ZN39AccSpeedPidTest_TC_ACC_SPEED_BV_19_TestC1Ev
FN:544,_ZN39AccSpeedPidTest_TC_ACC_SPEED_BV_20_Test8TestBodyEv
FNDA:1,_ZN39AccSpeedPidTest_TC_ACC_SPEED_BV_20_Test8TestBodyEv
FN:544,_ZN39AccSpeedPidTest_TC_ACC_SPEED_BV_20_TestD1Ev
FNDA:1,_ZN39AccSpeedPidTest_TC_ACC_SPEED_BV_20_TestD1Ev
FN:544,_ZN39AccSpeedPidTest_TC_ACC_SPEED_BV_20_TestD0Ev
FNDA:1,_ZN39AccSpeedPidTest_TC_ACC_SPEED_BV_20_TestD0Ev
FN:544,_ZN39AccSpeedPidTest_TC_ACC_SPEED_BV_20_TestC1Ev
FNDA:1,_ZN39AccSpeedPidTest_TC_ACC_SPEED_BV_20_TestC1Ev
FN:556,_ZN39AccSpeedPidTest_TC_ACC_SPEED_BV_21_Test8TestBodyEv
FNDA:1,_ZN39AccSpeedPidTest_TC_ACC_SPEED_BV_21_Test8TestBodyEv
FN:556,_ZN39AccSpeedPidTest_TC_ACC_SPEED_BV_21_TestC1Ev
FNDA:1,_ZN39AccSpeedPidTest_TC_ACC_SPEED_BV_21_TestC1Ev
FN:556,_ZN39AccSpeedPidTest_TC_ACC_SPEED_BV_21_TestD1Ev
FNDA:1,_ZN39AccSpeedPidTest_TC_ACC_SPEED_BV_21_TestD1Ev
FN:556,_ZN39AccSpeedPidTest_TC_ACC_SPEED_BV_21_TestD0Ev
FNDA:1,_ZN39AccSpeedPidTest_TC_ACC_SPEED_BV_21_TestD0Ev
FN:567,_ZN39AccSpeedPidTest_TC_ACC_SPEED_BV_22_TestC1Ev
FNDA:1,_ZN39AccSpeedPidTest_TC_ACC_SPEED_BV_22_TestC1Ev
FN:567,_ZN39AccSpeedPidTest_TC_ACC_SPEED_BV_22_Test8TestBodyEv
FNDA:1,_ZN39AccSpeedPidTest_TC_ACC_SPEED_BV_22_Test8TestBodyEv
FN:567,_ZN39AccSpeedPidTest_TC_ACC_SPEED_BV_22_TestD0Ev
FNDA:1,_ZN39AccSpeedPidTest_TC_ACC_SPEED_BV_22_TestD0Ev
FN:567,_ZN39AccSpeedPidTest_TC_ACC_SPEED_BV_22_TestD1Ev
FNDA:1,_ZN39AccSpeedPidTest_TC_ACC_SPEED_BV_22_TestD1Ev
FN:577,_ZN39AccSpeedPidTest_TC_ACC_SPEED_BV_23_TestC1Ev
FNDA:1,_ZN39AccSpeedPidTest_TC_ACC_SPEED_BV_23_TestC1Ev
FN:577,_ZN39AccSpeedPidTest_TC_ACC_SPEED_BV_23_Test8TestBodyEv
FNDA:1,_ZN39AccSpeedPidTest_TC_ACC_SPEED_BV_23_Test8TestBodyEv
FN:577,_ZN39AccSpeedPidTest_TC_ACC_SPEED_BV_23_TestD0Ev
FNDA:1,_ZN39AccSpeedPidTest_TC_ACC_SPEED_BV_23_TestD0Ev
FN:577,_ZN39AccSpeedPidTest_TC_ACC_SPEED_BV_23_TestD1Ev
FNDA:1,_ZN39AccSpeedPidTest_TC_ACC_SPEED_BV_23_TestD1Ev
FN:586,_ZN39AccSpeedPidTest_TC_ACC_SPEED_BV_24_TestC1Ev
FNDA:1,_ZN39AccSpeedPidTest_TC_ACC_SPEED_BV_24_TestC1Ev
FN:586,_ZN39AccSpeedPidTest_TC_ACC_SPEED_BV_24_Test8TestBodyEv
FNDA:1,_ZN39AccSpeedPidTest_TC_ACC_SPEED_BV_24_Test8TestBodyEv
FN:586,_ZN39AccSpeedPidTest_TC_ACC_SPEED_BV_24_TestD1Ev
FNDA:1,_ZN39AccSpeedPidTest_TC_ACC_SPEED_BV_24_TestD1Ev
FN:586,_ZN39AccSpeedPidTest_TC_ACC_SPEED_BV_24_TestD0Ev
FNDA:1,_ZN39AccSpeedPidTest_TC_ACC_SPEED_BV_24_TestD0Ev
FN:594,_ZN39AccSpeedPidTest_TC_ACC_SPEED_BV_25_TestD1Ev
FNDA:1,_ZN39AccSpeedPidTest_TC_ACC_SPEED_BV_25_TestD1Ev
FN:594,_ZN39AccSpeedPidTest_TC_ACC_SPEED_BV_25_Test8TestBodyEv
FNDA:1,_ZN39AccSpeedPidTest_TC_ACC_SPEED_BV_25_Test8TestBodyEv
FN:594,_ZN39AccSpeedPidTest_TC_ACC_SPEED_BV_25_TestD0Ev
FNDA:1,_ZN39AccSpeedPidTest_TC_ACC_SPEED_BV_25_TestD0Ev
FN:594,_ZN39AccSpeedPidTest_TC_ACC_SPEED_BV_25_TestC1Ev
FNDA:1,_ZN39AccSpeedPidTest_TC_ACC_SPEED_BV_25_TestC1Ev
FN:604,_ZN39AccSpeedPidTest_TC_ACC_SPEED_BV_26_TestD0Ev
FNDA:1,_ZN39AccSpeedPidTest_TC_ACC_SPEED_BV_26_TestD0Ev
FN:604,_ZN39AccSpeedPidTest_TC_ACC_SPEED_BV_26_TestD1Ev
FNDA:1,_ZN39AccSpeedPidTest_TC_ACC_SPEED_BV_26_TestD1Ev
FN:604,_ZN39AccSpeedPidTest_TC_ACC_SPEED_BV_26_Test8TestBodyEv
FNDA:1,_ZN39AccSpeedPidTest_TC_ACC_SPEED_BV_26_Test8TestBodyEv
FN:604,_ZN39AccSpeedPidTest_TC_ACC_SPEED_BV_26_TestC1Ev
FNDA:1,_ZN39AccSpeedPidTest_TC_ACC_SPEED_BV_26_TestC1Ev
FN:612,_ZN39AccSpeedPidTest_TC_ACC_SPEED_BV_27_TestD0Ev
FNDA:1,_ZN39AccSpeedPidTest_TC_ACC_SPEED_BV_27_TestD0Ev
FN:612,_ZN39AccSpeedPidTest_TC_ACC_SPEED_BV_27_TestD1Ev
FNDA:1,_ZN39AccSpeedPidTest_TC_ACC_SPEED_BV_27_TestD1Ev
FN:612,_ZN39AccSpeedPidTest_TC_ACC_SPEED_BV_27_Test8TestBodyEv
FNDA:1,_ZN39AccSpeedPidTest_TC_ACC_SPEED_BV_27_Test8TestBodyEv
FN:612,_ZN39AccSpeedPidTest_TC_ACC_SPEED_BV_27_TestC1Ev
FNDA:1,_ZN39AccSpeedPidTest_TC_ACC_SPEED_BV_27_TestC1Ev
FN:620,_ZN39AccSpeedPidTest_TC_ACC_SPEED_BV_28_TestC1Ev
FNDA:1,_ZN39AccSpeedPidTest_TC_ACC_SPEED_BV_28_TestC1Ev
FN:620,_ZN39AccSpeedPidTest_TC_ACC_SPEED_BV_28_Test8TestBodyEv
FNDA:1,_ZN39AccSpeedPidTest_TC_ACC_SPEED_BV_28_Test8TestBodyEv
FN:620,_ZN39AccSpeedPidTest_TC_ACC_SPEED_BV_28_TestD0Ev
FNDA:1,_ZN39AccSpeedPidTest_TC_ACC_SPEED_BV_28_TestD0Ev
FN:620,_ZN39AccSpeedPidTest_TC_ACC_SPEED_BV_28_TestD1Ev
FNDA:1,_ZN39AccSpeedPidTest_TC_ACC_SPEED_BV_28_TestD1Ev
FN:629,_ZN39AccSpeedPidTest_TC_ACC_SPEED_BV_29_TestC1Ev
FNDA:1,_ZN39AccSpeedPidTest_TC_ACC_SPEED_BV_29_TestC1Ev
FN:629,_ZN39AccSpeedPidTest_TC_ACC_SPEED_BV_29_Test8TestBodyEv
FNDA:1,_ZN39AccSpeedPidTest_TC_ACC_SPEED_BV_29_Test8TestBodyEv
FN:629,_ZN39AccSpeedPidTest_TC_ACC_SPEED_BV_29_TestD1Ev
FNDA:1,_ZN39AccSpeedPidTest_TC_ACC_SPEED_BV_29_TestD1Ev
FN:629,_ZN39AccSpeedPidTest_TC_ACC_SPEED_BV_29_TestD0Ev
FNDA:1,_ZN39AccSpeedPidTest_TC_ACC_SPEED_BV_29_TestD0Ev
FN:638,_ZN39AccSpeedPidTest_TC_ACC_SPEED_BV_30_TestD1Ev
FNDA:1,_ZN39AccSpeedPidTest_TC_ACC_SPEED_BV_30_TestD1Ev
FN:638,_ZN39AccSpeedPidTest_TC_ACC_SPEED_BV_30_TestC1Ev
FNDA:1,_ZN39AccSpeedPidTest_TC_ACC_SPEED_BV_30_TestC1Ev
FN:638,_ZN39AccSpeedPidTest_TC_ACC_SPEED_BV_30_Test8TestBodyEv
FNDA:1,_ZN39AccSpeedPidTest_TC_ACC_SPEED_BV_30_Test8TestBodyEv
FN:638,_ZN39AccSpeedPidTest_TC_ACC_SPEED_BV_30_TestD0Ev
FNDA:1,_ZN39AccSpeedPidTest_TC_ACC_SPEED_BV_30_TestD0Ev
FN:652,_ZN39AccSpeedPidTest_TC_ACC_SPEED_RA_01_TestD0Ev
FNDA:1,_ZN39AccSpeedPidTest_TC_ACC_SPEED_RA_01_TestD0Ev
FN:652,_ZN39AccSpeedPidTest_TC_ACC_SPEED_RA_01_TestD1Ev
FNDA:1,_ZN39AccSpeedPidTest_TC_ACC_SPEED_RA_01_TestD1Ev
FN:652,_ZN39AccSpeedPidTest_TC_ACC_SPEED_RA_01_Test8TestBodyEv
FNDA:1,_ZN39AccSpeedPidTest_TC_ACC_SPEED_RA_01_Test8TestBodyEv
FN:652,_ZN39AccSpeedPidTest_TC_ACC_SPEED_RA_01_TestC1Ev
FNDA:1,_ZN39AccSpeedPidTest_TC_ACC_SPEED_RA_01_TestC1Ev
FN:662,_ZN39AccSpeedPidTest_TC_ACC_SPEED_RA_02_TestD0Ev
FNDA:1,_ZN39AccSpeedPidTest_TC_ACC_SPEED_RA_02_TestD0Ev
FN:662,_ZN39AccSpeedPidTest_TC_ACC_SPEED_RA_02_TestD1Ev
FNDA:1,_ZN39AccSpeedPidTest_TC_ACC_SPEED_RA_02_TestD1Ev
FN:662,_ZN39AccSpeedPidTest_TC_ACC_SPEED_RA_02_Test8TestBodyEv
FNDA:1,_ZN39AccSpeedPidTest_TC_ACC_SPEED_RA_02_Test8TestBodyEv
FN:662,_ZN39AccSpeedPidTest_TC_ACC_SPEED_RA_02_TestC1Ev
FNDA:1,_ZN39AccSpeedPidTest_TC_ACC_SPEED_RA_02_TestC1Ev
FN:671,_ZN39AccSpeedPidTest_TC_ACC_SPEED_RA_03_TestC1Ev
FNDA:1,_ZN39AccSpeedPidTest_TC_ACC_SPEED_RA_03_TestC1Ev
FN:671,_ZN39AccSpeedPidTest_TC_ACC_SPEED_RA_03_Test8TestBodyEv
FNDA:1,_ZN39AccSpeedPidTest_TC_ACC_SPEED_RA_03_Test8TestBodyEv
FN:671,_ZN39AccSpeedPidTest_TC_ACC_SPEED_RA_03_TestD1Ev
FNDA:1,_ZN39AccSpeedPidTest_TC_ACC_SPEED_RA_03_TestD1Ev
FN:671,_ZN39AccSpeedPidTest_TC_ACC_SPEED_RA_03_TestD0Ev
FNDA:1,_ZN39AccSpeedPidTest_TC_ACC_SPEED_RA_03_TestD0Ev
FN:682,_ZN39AccSpeedPidTest_TC_ACC_SPEED_RA_04_TestC1Ev
FNDA:1,_ZN39AccSpeedPidTest_TC_ACC_SPEED_RA_04_TestC1Ev
FN:682,_ZN39AccSpeedPidTest_TC_ACC_SPEED_RA_04_TestD0Ev
FNDA:1,_ZN39AccSpeedPidTest_TC_ACC_SPEED_RA_04_TestD0Ev
FN:682,_ZN39AccSpeedPidTest_TC_ACC_SPEED_RA_04_Test8TestBodyEv
FNDA:1,_ZN39AccSpeedPidTest_TC_ACC_SPEED_RA_04_Test8TestBodyEv
FN:682,_ZN39AccSpeedPidTest_TC_ACC_SPEED_RA_04_TestD1Ev
FNDA:1,_ZN39AccSpeedPidTest_TC_ACC_SPEED_RA_04_TestD1Ev
FN:691,_ZN39AccSpeedPidTest_TC_ACC_SPEED_RA_05_TestC1Ev
FNDA:1,_ZN39AccSpeedPidTest_TC_ACC_SPEED_RA_05_TestC1Ev
FN:691,_ZN39AccSpeedPidTest_TC_ACC_SPEED_RA_05_TestD1Ev
FNDA:1,_ZN39AccSpeedPidTest_TC_ACC_SPEED_RA_05_TestD1Ev
FN:691,_ZN39AccSpeedPidTest_TC_ACC_SPEED_RA_05_Test8TestBodyEv
FNDA:1,_ZN39AccSpeedPidTest_TC_ACC_SPEED_RA_05_Test8TestBodyEv
FN:691,_ZN39AccSpeedPidTest_TC_ACC_SPEED_RA_05_TestD0Ev
FNDA:1,_ZN39AccSpeedPidTest_TC_ACC_SPEED_RA_05_TestD0Ev
FN:700,_ZN39AccSpeedPidTest_TC_ACC_SPEED_RA_06_TestD0Ev
FNDA:1,_ZN39AccSpeedPidTest_TC_ACC_SPEED_RA_06_TestD0Ev
FN:700,_ZN39AccSpeedPidTest_TC_ACC_SPEED_RA_06_TestD1Ev
FNDA:1,_ZN39AccSpeedPidTest_TC_ACC_SPEED_RA_06_TestD1Ev
FN:700,_ZN39AccSpeedPidTest_TC_ACC_SPEED_RA_06_Test8TestBodyEv
FNDA:1,_ZN39AccSpeedPidTest_TC_ACC_SPEED_RA_06_Test8TestBodyEv
FN:700,_ZN39AccSpeedPidTest_TC_ACC_SPEED_RA_06_TestC1Ev
FNDA:1,_ZN39AccSpeedPidTest_TC_ACC_SPEED_RA_06_TestC1Ev
FN:709,_ZN39AccSpeedPidTest_TC_ACC_SPEED_RA_07_TestD0Ev
FNDA:1,_ZN39AccSpeedPidTest_TC_ACC_SPEED_RA_07_TestD0Ev
FN:709,_ZN39AccSpeedPidTest_TC_ACC_SPEED_RA_07_Test8TestBodyEv
FNDA:1,_ZN39AccSpeedPidTest_TC_ACC_SPEED_RA_07_Test8TestBodyEv
FN:709,_ZN39AccSpeedPidTest_TC_ACC_SPEED_RA_07_TestD1Ev
FNDA:1,_ZN39AccSpeedPidTest_TC_ACC_SPEED_RA_07_TestD1Ev
FN:709,_ZN39AccSpeedPidTest_TC_ACC_SPEED_RA_07_TestC1Ev
FNDA:1,_ZN39AccSpeedPidTest_TC_ACC_SPEED_RA_07_TestC1Ev
FN:718,_ZN39AccSpeedPidTest_TC_ACC_SPEED_RA_08_TestC1Ev
FNDA:1,_ZN39AccSpeedPidTest_TC_ACC_SPEED_RA_08_TestC1Ev
FN:718,_ZN39AccSpeedPidTest_TC_ACC_SPEED_RA_08_TestD0Ev
FNDA:1,_ZN39AccSpeedPidTest_TC_ACC_SPEED_RA_08_TestD0Ev
FN:718,_ZN39AccSpeedPidTest_TC_ACC_SPEED_RA_08_TestD1Ev
FNDA:1,_ZN39AccSpeedPidTest_TC_ACC_SPEED_RA_08_TestD1Ev
FN:718,_ZN39AccSpeedPidTest_TC_ACC_SPEED_RA_08_Test8TestBodyEv
FNDA:1,_ZN39AccSpeedPidTest_TC_ACC_SPEED_RA_08_Test8TestBodyEv
FN:727,_ZN39AccSpeedPidTest_TC_ACC_SPEED_RA_09_TestD0Ev
FNDA:1,_ZN39AccSpeedPidTest_TC_ACC_SPEED_RA_09_TestD0Ev
FN:727,_ZN39AccSpeedPidTest_TC_ACC_SPEED_RA_09_TestD1Ev
FNDA:1,_ZN39AccSpeedPidTest_TC_ACC_SPEED_RA_09_TestD1Ev
FN:727,_ZN39AccSpeedPidTest_TC_ACC_SPEED_RA_09_Test8TestBodyEv
FNDA:1,_ZN39AccSpeedPidTest_TC_ACC_SPEED_RA_09_Test8TestBodyEv
FN:727,_ZN39AccSpeedPidTest_TC_ACC_SPEED_RA_09_TestC1Ev
FNDA:1,_ZN39AccSpeedPidTest_TC_ACC_SPEED_RA_09_TestC1Ev
FN:737,_ZN39AccSpeedPidTest_TC_ACC_SPEED_RA_10_TestD0Ev
FNDA:1,_ZN39AccSpeedPidTest_TC_ACC_SPEED_RA_10_TestD0Ev
FN:737,_ZN39AccSpeedPidTest_TC_ACC_SPEED_RA_10_TestD1Ev
FNDA:1,_ZN39AccSpeedPidTest_TC_ACC_SPEED_RA_10_TestD1Ev
FN:737,_ZN39AccSpeedPidTest_TC_ACC_SPEED_RA_10_TestC1Ev
FNDA:1,_ZN39AccSpeedPidTest_TC_ACC_SPEED_RA_10_TestC1Ev
FN:737,_ZN39AccSpeedPidTest_TC_ACC_SPEED_RA_10_Test8TestBodyEv
FNDA:1,_ZN39AccSpeedPidTest_TC_ACC_SPEED_RA_10_Test8TestBodyEv
FN:746,_ZN39AccSpeedPidTest_TC_ACC_SPEED_RA_11_TestD0Ev
FNDA:1,_ZN39AccSpeedPidTest_TC_ACC_SPEED_RA_11_TestD0Ev
FN:746,_ZN39AccSpeedPidTest_TC_ACC_SPEED_RA_11_TestC1Ev
FNDA:1,_ZN39AccSpeedPidTest_TC_ACC_SPEED_RA_11_TestC1Ev
FN:746,_ZN39AccSpeedPidTest_TC_ACC_SPEED_RA_11_Test8TestBodyEv
FNDA:1,_ZN39AccSpeedPidTest_TC_ACC_SPEED_RA_11_Test8TestBodyEv
FN:746,_ZN39AccSpeedPidTest_TC_ACC_SPEED_RA_11_TestD1Ev
FNDA:1,_ZN39AccSpeedPidTest_TC_ACC_SPEED_RA_11_TestD1Ev
FN:754,_ZN39AccSpeedPidTest_TC_ACC_SPEED_RA_12_TestC1Ev
FNDA:1,_ZN39AccSpeedPidTest_TC_ACC_SPEED_RA_12_TestC1Ev
FN:754,_ZN39AccSpeedPidTest_TC_ACC_SPEED_RA_12_Test8TestBodyEv
FNDA:1,_ZN39AccSpeedPidTest_TC_ACC_SPEED_RA_12_Test8TestBodyEv
FN:754,_ZN39AccSpeedPidTest_TC_ACC_SPEED_RA_12_TestD1Ev
FNDA:1,_ZN39AccSpeedPidTest_TC_ACC_SPEED_RA_12_TestD1Ev
FN:754,_ZN39AccSpeedPidTest_TC_ACC_SPEED_RA_12_TestD0Ev
FNDA:1,_ZN39AccSpeedPidTest_TC_ACC_SPEED_RA_12_TestD0Ev
FN:763,_ZN39AccSpeedPidTest_TC_ACC_SPEED_RA_13_Test8TestBodyEv
FNDA:1,_ZN39AccSpeedPidTest_TC_ACC_SPEED_RA_13_Test8TestBodyEv
FN:763,_ZN39AccSpeedPidTest_TC_ACC_SPEED_RA_13_TestD1Ev
FNDA:1,_ZN39AccSpeedPidTest_TC_ACC_SPEED_RA_13_TestD1Ev
FN:763,_ZN39AccSpeedPidTest_TC_ACC_SPEED_RA_13_TestD0Ev
FNDA:1,_ZN39AccSpeedPidTest_TC_ACC_SPEED_RA_13_TestD0Ev
FN:763,_ZN39AccSpeedPidTest_TC_ACC_SPEED_RA_13_TestC1Ev
FNDA:1,_ZN39AccSpeedPidTest_TC_ACC_SPEED_RA_13_TestC1Ev
FN:771,_ZN39AccSpeedPidTest_TC_ACC_SPEED_RA_14_TestC1Ev
FNDA:1,_ZN39AccSpeedPidTest_TC_ACC_SPEED_RA_14_TestC1Ev
FN:771,_ZN39AccSpeedPidTest_TC_ACC_SPEED_RA_14_Test8TestBodyEv
FNDA:1,_ZN39AccSpeedPidTest_TC_ACC_SPEED_RA_14_Test8TestBodyEv
FN:771,_ZN39AccSpeedPidTest_TC_ACC_SPEED_RA_14_TestD1Ev
FNDA:1,_ZN39AccSpeedPidTest_TC_ACC_SPEED_RA_14_TestD1Ev
FN:771,_ZN39AccSpeedPidTest_TC_ACC_SPEED_RA_14_TestD0Ev
FNDA:1,_ZN39AccSpeedPidTest_TC_ACC_SPEED_RA_14_TestD0Ev
FN:780,_ZN39AccSpeedPidTest_TC_ACC_SPEED_RA_15_TestD1Ev
FNDA:1,_ZN39AccSpeedPidTest_TC_ACC_SPEED_RA_15_TestD1Ev
FN:780,_ZN39AccSpeedPidTest_TC_ACC_SPEED_RA_15_TestC1Ev
FNDA:1,_ZN39AccSpeedPidTest_TC_ACC_SPEED_RA_15_TestC1Ev
FN:780,_ZN39AccSpeedPidTest_TC_ACC_SPEED_RA_15_TestD0Ev
FNDA:1,_ZN39AccSpeedPidTest_TC_ACC_SPEED_RA_15_TestD0Ev
FN:780,_ZN39AccSpeedPidTest_TC_ACC_SPEED_RA_15_Test8TestBodyEv
FNDA:1,_ZN39AccSpeedPidTest_TC_ACC_SPEED_RA_15_Test8TestBodyEv
FN:789,_ZN39AccSpeedPidTest_TC_ACC_SPEED_RA_16_TestD0Ev
FNDA:1,_ZN39AccSpeedPidTest_TC_ACC_SPEED_RA_16_TestD0Ev
FN:789,_ZN39AccSpeedPidTest_TC_ACC_SPEED_RA_16_Test8TestBodyEv
FNDA:1,_ZN39AccSpeedPidTest_TC_ACC_SPEED_RA_16_Test8TestBodyEv
FN:789,_ZN39AccSpeedPidTest_TC_ACC_SPEED_RA_16_TestD1Ev
FNDA:1,_ZN39AccSpeedPidTest_TC_ACC_SPEED_RA_16_TestD1Ev
FN:789,_ZN39AccSpeedPidTest_TC_ACC_SPEED_RA_16_TestC1Ev
FNDA:1,_ZN39AccSpeedPidTest_TC_ACC_SPEED_RA_16_TestC1Ev
FN:800,_ZN39AccSpeedPidTest_TC_ACC_SPEED_RA_17_TestD0Ev
FNDA:1,_ZN39AccSpeedPidTest_TC_ACC_SPEED_RA_17_TestD0Ev
FN:800,_ZN39AccSpeedPidTest_TC_ACC_SPEED_RA_17_TestD1Ev
FNDA:1,_ZN39AccSpeedPidTest_TC_ACC_SPEED_RA_17_TestD1Ev
FN:800,_ZN39AccSpeedPidTest_TC_ACC_SPEED_RA_17_TestC1Ev
FNDA:1,_ZN39AccSpeedPidTest_TC_ACC_SPEED_RA_17_TestC1Ev
FN:800,_ZN39AccSpeedPidTest_TC_ACC_SPEED_RA_17_Test8TestBodyEv
FNDA:1,_ZN39AccSpeedPidTest_TC_ACC_SPEED_RA_17_Test8TestBodyEv
FN:808,_ZN39AccSpeedPidTest_TC_ACC_SPEED_RA_18_Test8TestBodyEv
FNDA:1,_ZN39AccSpeedPidTest_TC_ACC_SPEED_RA_18_Test8TestBodyEv
FN:808,_ZN39AccSpeedPidTest_TC_ACC_SPEED_RA_18_TestD0Ev
FNDA:1,_ZN39AccSpeedPidTest_TC_ACC_SPEED_RA_18_TestD0Ev
FN:808,_ZN39AccSpeedPidTest_TC_ACC_SPEED_RA_18_TestD1Ev
FNDA:1,_ZN39AccSpeedPidTest_TC_ACC_SPEED_RA_18_TestD1Ev
FN:808,_ZN39AccSpeedPidTest_TC_ACC_SPEED_RA_18_TestC1Ev
FNDA:1,_ZN39AccSpeedPidTest_TC_ACC_SPEED_RA_18_TestC1Ev
FN:818,_ZN39AccSpeedPidTest_TC_ACC_SPEED_RA_19_TestC1Ev
FNDA:1,_ZN39AccSpeedPidTest_TC_ACC_SPEED_RA_19_TestC1Ev
FN:818,_ZN39AccSpeedPidTest_TC_ACC_SPEED_RA_19_TestD0Ev
FNDA:1,_ZN39AccSpeedPidTest_TC_ACC_SPEED_RA_19_TestD0Ev
FN:818,_ZN39AccSpeedPidTest_TC_ACC_SPEED_RA_19_TestD1Ev
FNDA:1,_ZN39AccSpeedPidTest_TC_ACC_SPEED_RA_19_TestD1Ev
FN:818,_ZN39AccSpeedPidTest_TC_ACC_SPEED_RA_19_Test8TestBodyEv
FNDA:1,_ZN39AccSpeedPidTest_TC_ACC_SPEED_RA_19_Test8TestBodyEv
FN:827,_ZN39AccSpeedPidTest_TC_ACC_SPEED_RA_20_Test8TestBodyEv
FNDA:1,_ZN39AccSpeedPidTest_TC_ACC_SPEED_RA_20_Test8TestBodyEv
FN:827,_ZN39AccSpeedPidTest_TC_ACC_SPEED_RA_20_TestC1Ev
FNDA:1,_ZN39AccSpeedPidTest_TC_ACC_SPEED_RA_20_TestC1Ev
FN:827,_ZN39AccSpeedPidTest_TC_ACC_SPEED_RA_20_TestD0Ev
FNDA:1,_ZN39AccSpeedPidTest_TC_ACC_SPEED_RA_20_TestD0Ev
FN:827,_ZN39AccSpeedPidTest_TC_ACC_SPEED_RA_20_TestD1Ev
FNDA:1,_ZN39AccSpeedPidTest_TC_ACC_SPEED_RA_20_TestD1Ev
FN:837,_ZN39AccSpeedPidTest_TC_ACC_SPEED_RA_21_TestD1Ev
FNDA:1,_ZN39AccSpeedPidTest_TC_ACC_SPEED_RA_21_TestD1Ev
FN:837,_ZN39AccSpeedPidTest_TC_ACC_SPEED_RA_21_Test8TestBodyEv
FNDA:1,_ZN39AccSpeedPidTest_TC_ACC_SPEED_RA_21_Test8TestBodyEv
FN:837,_ZN39AccSpeedPidTest_TC_ACC_SPEED_RA_21_TestD0Ev
FNDA:1,_ZN39AccSpeedPidTest_TC_ACC_SPEED_RA_21_TestD0Ev
FN:837,_ZN39AccSpeedPidTest_TC_ACC_SPEED_RA_21_TestC1Ev
FNDA:1,_ZN39AccSpeedPidTest_TC_ACC_SPEED_RA_21_TestC1Ev
FN:846,_ZN39AccSpeedPidTest_TC_ACC_SPEED_RA_22_Test8TestBodyEv
FNDA:1,_ZN39AccSpeedPidTest_TC_ACC_SPEED_RA_22_Test8TestBodyEv
FN:846,_ZN39AccSpeedPidTest_TC_ACC_SPEED_RA_22_TestD1Ev
FNDA:1,_ZN39AccSpeedPidTest_TC_ACC_SPEED_RA_22_TestD1Ev
FN:846,_ZN39AccSpeedPidTest_TC_ACC_SPEED_RA_22_TestD0Ev
FNDA:1,_ZN39AccSpeedPidTest_TC_ACC_SPEED_RA_22_TestD0Ev
FN:846,_ZN39AccSpeedPidTest_TC_ACC_SPEED_RA_22_TestC1Ev
FNDA:1,_ZN39AccSpeedPidTest_TC_ACC_SPEED_RA_22_TestC1Ev
FN:855,_ZN39AccSpeedPidTest_TC_ACC_SPEED_RA_23_TestC1Ev
FNDA:1,_ZN39AccSpeedPidTest_TC_ACC_SPEED_RA_23_TestC1Ev
FN:855,_ZN39AccSpeedPidTest_TC_ACC_SPEED_RA_23_TestD1Ev
FNDA:1,_ZN39AccSpeedPidTest_TC_ACC_SPEED_RA_23_TestD1Ev
FN:855,_ZN39AccSpeedPidTest_TC_ACC_SPEED_RA_23_TestD0Ev
FNDA:1,_ZN39AccSpeedPidTest_TC_ACC_SPEED_RA_23_TestD0Ev
FN:855,_ZN39AccSpeedPidTest_TC_ACC_SPEED_RA_23_Test8TestBodyEv
FNDA:1,_ZN39AccSpeedPidTest_TC_ACC_SPEED_RA_23_Test8TestBodyEv
FN:863,_ZN39AccSpeedPidTest_TC_ACC_SPEED_RA_24_TestD0Ev
FNDA:1,_ZN39AccSpeedPidTest_TC_ACC_SPEED_RA_24_TestD0Ev
FN:863,_ZN39AccSpeedPidTest_TC_ACC_SPEED_RA_24_TestC1Ev
FNDA:1,_ZN39AccSpeedPidTest_TC_ACC_SPEED_RA_24_TestC1Ev
FN:863,_ZN39AccSpeedPidTest_TC_ACC_SPEED_RA_24_TestD1Ev
FNDA:1,_ZN39AccSpeedPidTest_TC_ACC_SPEED_RA_24_TestD1Ev
FN:863,_ZN39AccSpeedPidTest_TC_ACC_SPEED_RA_24_Test8TestBodyEv
FNDA:1,_ZN39AccSpeedPidTest_TC_ACC_SPEED_RA_24_Test8TestBodyEv
FN:872,_ZN39AccSpeedPidTest_TC_ACC_SPEED_RA_25_Test8TestBodyEv
FNDA:1,_ZN39AccSpeedPidTest_TC_ACC_SPEED_RA_25_Test8TestBodyEv
FN:872,_ZN39AccSpeedPidTest_TC_ACC_SPEED_RA_25_TestD1Ev
FNDA:1,_ZN39AccSpeedPidTest_TC_ACC_SPEED_RA_25_TestD1Ev
FN:872,_ZN39AccSpeedPidTest_TC_ACC_SPEED_RA_25_TestD0Ev
FNDA:1,_ZN39AccSpeedPidTest_TC_ACC_SPEED_RA_25_TestD0Ev
FN:872,_ZN39AccSpeedPidTest_TC_ACC_SPEED_RA_25_TestC1Ev
FNDA:1,_ZN39AccSpeedPidTest_TC_ACC_SPEED_RA_25_TestC1Ev
FN:879,_ZN39AccSpeedPidTest_TC_ACC_SPEED_RA_26_Test8TestBodyEv
FNDA:1,_ZN39AccSpeedPidTest_TC_ACC_SPEED_RA_26_Test8TestBodyEv
FN:879,_ZN39AccSpeedPidTest_TC_ACC_SPEED_RA_26_TestD1Ev
FNDA:1,_ZN39AccSpeedPidTest_TC_ACC_SPEED_RA_26_TestD1Ev
FN:879,_ZN39AccSpeedPidTest_TC_ACC_SPEED_RA_26_TestD0Ev
FNDA:1,_ZN39AccSpeedPidTest_TC_ACC_SPEED_RA_26_TestD0Ev
FN:879,_ZN39AccSpeedPidTest_TC_ACC_SPEED_RA_26_TestC1Ev
FNDA:1,_ZN39AccSpeedPidTest_TC_ACC_SPEED_RA_26_TestC1Ev
FN:886,_ZN39AccSpeedPidTest_TC_ACC_SPEED_RA_27_TestD1Ev
FNDA:1,_ZN39AccSpeedPidTest_TC_ACC_SPEED_RA_27_TestD1Ev
FN:886,_ZN39AccSpeedPidTest_TC_ACC_SPEED_RA_27_Test8TestBodyEv
FNDA:1,_ZN39AccSpeedPidTest_TC_ACC_SPEED_RA_27_Test8TestBodyEv
FN:886,_ZN39AccSpeedPidTest_TC_ACC_SPEED_RA_27_TestD0Ev
FNDA:1,_ZN39AccSpeedPidTest_TC_ACC_SPEED_RA_27_TestD0Ev
FN:886,_ZN39AccSpeedPidTest_TC_ACC_SPEED_RA_27_TestC1Ev
FNDA:1,_ZN39AccSpeedPidTest_TC_ACC_SPEED_RA_27_TestC1Ev
FN:894,_ZN39AccSpeedPidTest_TC_ACC_SPEED_RA_28_TestD0Ev
FNDA:1,_ZN39AccSpeedPidTest_TC_ACC_SPEED_RA_28_TestD0Ev
FN:894,_ZN39AccSpeedPidTest_TC_ACC_SPEED_RA_28_Test8TestBodyEv
FNDA:1,_ZN39AccSpeedPidTest_TC_ACC_SPEED_RA_28_Test8TestBodyEv
FN:894,_ZN39AccSpeedPidTest_TC_ACC_SPEED_RA_28_TestC1Ev
FNDA:1,_ZN39AccSpeedPidTest_TC_ACC_SPEED_RA_28_TestC1Ev
FN:894,_ZN39AccSpeedPidTest_TC_ACC_SPEED_RA_28_TestD1Ev
FNDA:1,_ZN39AccSpeedPidTest_TC_ACC_SPEED_RA_28_TestD1Ev
FN:903,_ZN39AccSpeedPidTest_TC_ACC_SPEED_RA_29_Test8TestBodyEv
FNDA:1,_ZN39AccSpeedPidTest_TC_ACC_SPEED_RA_29_Test8TestBodyEv
FN:903,_ZN39AccSpeedPidTest_TC_ACC_SPEED_RA_29_TestC1Ev
FNDA:1,_ZN39AccSpeedPidTest_TC_ACC_SPEED_RA_29_TestC1Ev
FN:903,_ZN39AccSpeedPidTest_TC_ACC_SPEED_RA_29_TestD0Ev
FNDA:1,_ZN39AccSpeedPidTest_TC_ACC_SPEED_RA_29_TestD0Ev
FN:903,_ZN39AccSpeedPidTest_TC_ACC_SPEED_RA_29_TestD1Ev
FNDA:1,_ZN39AccSpeedPidTest_TC_ACC_SPEED_RA_29_TestD1Ev
FN:912,_ZN39AccSpeedPidTest_TC_ACC_SPEED_RA_30_Test8TestBodyEv
FNDA:1,_ZN39AccSpeedPidTest_TC_ACC_SPEED_RA_30_Test8TestBodyEv
FN:912,_ZN39AccSpeedPidTest_TC_ACC_SPEED_RA_30_TestC1Ev
FNDA:1,_ZN39AccSpeedPidTest_TC_ACC_SPEED_RA_30_TestC1Ev
FN:912,_ZN39AccSpeedPidTest_TC_ACC_SPEED_RA_30_TestD0Ev
FNDA:1,_ZN39AccSpeedPidTest_TC_ACC_SPEED_RA_30_TestD0Ev
FN:912,_ZN39AccSpeedPidTest_TC_ACC_SPEED_RA_30_TestD1Ev
FNDA:1,_ZN39AccSpeedPidTest_TC_ACC_SPEED_RA_30_TestD1Ev
FNF:362
FNH:362
DA:26,90
DA:28,90
DA:29,90
DA:30,90
DA:41,90
DA:44,90
DA:47,90
DA:48,90
DA:49,90
DA:52,90
DA:53,90
DA:57,90
DA:58,90
DA:67,1
DA:67,1
DA:67,1
DA:67,1
DA:70,1
DA:71,1
DA:72,1
DA:74,1
DA:75,1
DA:78,1
DA:78,1
DA:78,1
DA:78,1
DA:80,1
DA:81,1
DA:82,1
DA:84,1
DA:85,1
DA:88,1
DA:88,1
DA:88,1
DA:88,1
DA:90,1
DA:91,1
DA:92,1
DA:93,1
DA:94,1
DA:97,1
DA:97,1
DA:97,1
DA:97,1
DA:99,1
DA:100,1
DA:101,1
DA:102,1
DA:103,1
DA:106,1
DA:106,1
DA:106,1
DA:106,1
DA:108,1
DA:109,1
DA:110,1
DA:111,1
DA:112,1
DA:115,1
DA:115,1
DA:115,1
DA:115,1
DA:117,1
DA:118,1
DA:119,1
DA:120,1
DA:121,1
DA:124,1
DA:124,1
DA:124,1
DA:124,1
DA:126,1
DA:127,1
DA:128,1
DA:129,1
DA:130,1
DA:133,1
DA:133,1
DA:133,1
DA:133,1
DA:135,1
DA:136,1
DA:137,1
DA:138,1
DA:139,1
DA:142,1
DA:142,1
DA:142,1
DA:142,1
DA:144,1
DA:145,1
DA:146,1
DA:147,1
DA:148,1
DA:151,1
DA:151,1
DA:151,1
DA:151,1
DA:153,1
DA:154,1
DA:155,1
DA:157,1
DA:158,1
DA:161,1
DA:161,1
DA:161,1
DA:161,1
DA:163,1
DA:164,1
DA:165,1
DA:166,1
DA:169,1
DA:169,1
DA:169,1
DA:169,1
DA:172,1
DA:173,1
DA:174,1
DA:175,1
DA:176,1
DA:179,1
DA:179,1
DA:179,1
DA:179,1
DA:181,1
DA:182,1
DA:183,1
DA:184,1
DA:185,1
DA:188,1
DA:188,1
DA:188,1
DA:188,1
DA:190,1
DA:191,1
DA:192,1
DA:193,1
DA:194,1
DA:197,1
DA:197,1
DA:197,1
DA:197,1
DA:199,1
DA:200,1
DA:201,1
DA:202,1
DA:204,1
DA:205,1
DA:208,1
DA:208,1
DA:208,1
DA:208,1
DA:211,1
DA:212,1
DA:215,1
DA:216,1
DA:217,1
DA:218,1
DA:221,1
DA:221,1
DA:221,1
DA:221,1
DA:224,1
DA:225,1
DA:226,1
DA:228,1
DA:229,1
DA:230,1
DA:231,1
DA:234,1
DA:234,1
DA:234,1
DA:234,1
DA:237,1
DA:238,1
DA:239,1
DA:240,1
DA:241,1
DA:244,1
DA:244,1
DA:244,1
DA:244,1
DA:247,1
DA:248,1
DA:250,1
DA:251,1
DA:252,1
DA:253,1
DA:256,1
DA:256,1
DA:256,1
DA:256,1
DA:259,1
DA:260,1
DA:261,1
DA:262,1
DA:263,1
DA:264,1
DA:267,1
DA:267,1
DA:267,1
DA:267,1
DA:269,1
DA:270,1
DA:271,1
DA:272,1
DA:275,1
DA:275,1
DA:275,1
DA:275,1
DA:277,1
DA:278,1
DA:279,1
DA:280,1
DA:283,1
DA:283,1
DA:283,1
DA:283,1
DA:285,1
DA:286,1
DA:287,1
DA:288,1
DA:291,1
DA:291,1
DA:291,1
DA:291,1
DA:293,1
DA:294,1
DA:295,1
DA:296,1
DA:297,1
DA:300,1
DA:300,1
DA:300,1
DA:300,1
DA:302,1
DA:303,1
DA:304,1
DA:305,1
DA:306,1
DA:309,1
DA:309,1
DA:309,1
DA:309,1
DA:311,1
DA:312,1
DA:314,1
DA:317,1
DA:318,1
DA:319,1
DA:322,1
DA:322,1
DA:322,1
DA:322,1
DA:324,1
DA:325,1
DA:326,1
DA:327,1
DA:328,1
DA:331,1
DA:331,1
DA:331,1
DA:331,1
DA:333,1
DA:334,1
DA:335,1
DA:336,1
DA:337,1
DA:340,1
DA:340,1
DA:340,1
DA:340,1
DA:342,1
DA:343,1
DA:344,1
DA:347,1
DA:347,1
DA:347,1
DA:347,1
DA:349,1
DA:350,1
DA:351,1
DA:359,1
DA:359,1
DA:359,1
DA:359,1
DA:361,1
DA:362,1
DA:363,1
DA:364,1
DA:365,1
DA:366,1
DA:369,1
DA:369,1
DA:369,1
DA:369,1
DA:371,1
DA:372,1
DA:373,1
DA:374,1
DA:375,1
DA:378,1
DA:378,1
DA:378,1
DA:378,1
DA:380,1
DA:381,1
DA:382,1
DA:383,1
DA:384,1
DA:385,1
DA:388,1
DA:388,1
DA:388,1
DA:388,1
DA:390,1
DA:391,1
DA:392,1
DA:393,1
DA:394,1
DA:395,1
DA:398,1
DA:398,1
DA:398,1
DA:398,1
DA:400,1
DA:401,1
DA:402,1
DA:403,1
DA:404,1
DA:407,1
DA:407,1
DA:407,1
DA:407,1
DA:409,1
DA:410,1
DA:411,1
DA:412,1
DA:413,1
DA:414,1
DA:417,1
DA:417,1
DA:417,1
DA:417,1
DA:419,1
DA:420,1
DA:421,1
DA:423,1
DA:424,1
DA:427,1
DA:427,1
DA:427,1
DA:427,1
DA:429,1
DA:430,1
DA:431,1
DA:432,1
DA:433,1
DA:436,1
DA:436,1
DA:436,1
DA:436,1
DA:438,1
DA:439,1
DA:440,1
DA:442,1
DA:443,1
DA:446,1
DA:447,1
DA:450,1
DA:450,1
DA:450,1
DA:450,1
DA:452,1
DA:453,1
DA:454,1
DA:455,1
DA:458,1
DA:458,1
DA:458,1
DA:458,1
DA:460,1
DA:461,1
DA:462,1
DA:463,1
DA:466,1
DA:466,1
DA:466,1
DA:466,1
DA:468,1
DA:469,1
DA:470,1
DA:471,1
DA:472,1
DA:475,1
DA:475,1
DA:475,1
DA:475,1
DA:478,1
DA:479,1
DA:480,1
DA:481,1
DA:482,1
DA:485,1
DA:485,1
DA:485,1
DA:485,1
DA:487,1
DA:488,1
DA:489,1
DA:490,1
DA:493,1
DA:493,1
DA:493,1
DA:493,1
DA:495,1
DA:496,1
DA:497,1
DA:498,1
DA:499,1
DA:502,1
DA:502,1
DA:502,1
DA:502,1
DA:504,1
DA:505,1
DA:506,1
DA:507,1
DA:508,1
DA:511,1
DA:511,1
DA:511,1
DA:511,1
DA:513,1
DA:514,1
DA:516,1
DA:517,1
DA:518,1
DA:519,1
DA:522,1
DA:522,1
DA:522,1
DA:522,1
DA:525,1
DA:526,1
DA:527,1
DA:528,1
DA:531,1
DA:531,1
DA:531,1
DA:531,1
DA:534,1
DA:535,1
DA:538,1
DA:539,1
DA:540,1
DA:541,1
DA:544,1
DA:544,1
DA:544,1
DA:544,1
DA:547,1
DA:548,1
DA:549,1
DA:552,1
DA:553,1
DA:556,1
DA:556,1
DA:556,1
DA:556,1
DA:558,1
DA:559,1
DA:561,1
DA:562,1
DA:563,1
DA:564,1
DA:567,1
DA:567,1
DA:567,1
DA:567,1
DA:569,1
DA:570,1
DA:573,1
DA:574,1
DA:577,1
DA:577,1
DA:577,1
DA:577,1
DA:579,1
DA:580,1
DA:582,1
DA:583,1
DA:586,1
DA:586,1
DA:586,1
DA:586,1
DA:588,1
DA:589,1
DA:590,1
DA:591,1
DA:594,1
DA:594,1
DA:594,1
DA:594,1
DA:598,1
DA:599,1
DA:601,1
DA:604,1
DA:604,1
DA:604,1
DA:604,1
DA:606,1
DA:607,1
DA:609,1
DA:612,1
DA:612,1
DA:612,1
DA:612,1
DA:614,1
DA:615,1
DA:617,1
DA:620,1
DA:620,1
DA:620,1
DA:620,1
DA:622,1
DA:623,1
DA:624,1
DA:625,1
DA:626,1
DA:629,1
DA:629,1
DA:629,1
DA:629,1
DA:631,1
DA:632,1
DA:633,1
DA:634,1
DA:635,1
DA:638,1
DA:638,1
DA:638,1
DA:638,1
DA:640,1
DA:641,1
DA:642,1
DA:643,1
DA:644,1
DA:652,1
DA:652,1
DA:652,1
DA:652,1
DA:654,1
DA:655,1
DA:656,1
DA:658,1
DA:659,1
DA:662,1
DA:662,1
DA:662,1
DA:662,1
DA:664,1
DA:665,1
DA:666,1
DA:667,1
DA:668,1
DA:671,1
DA:671,1
DA:671,1
DA:671,1
DA:674,1
DA:675,1
DA:676,1
DA:678,1
DA:679,1
DA:682,1
DA:682,1
DA:682,1
DA:682,1
DA:684,1
DA:685,1
DA:686,1
DA:687,1
DA:688,1
DA:691,1
DA:691,1
DA:691,1
DA:691,1
DA:693,1
DA:694,1
DA:695,1
DA:696,1
DA:697,1
DA:700,1
DA:700,1
DA:700,1
DA:700,1
DA:702,1
DA:703,1
DA:704,1
DA:705,1
DA:706,1
DA:709,1
DA:709,1
DA:709,1
DA:709,1
DA:711,1
DA:712,1
DA:713,1
DA:714,1
DA:715,1
DA:718,1
DA:718,1
DA:718,1
DA:718,1
DA:720,1
DA:721,1
DA:722,1
DA:723,1
DA:724,1
DA:727,1
DA:727,1
DA:727,1
DA:727,1
DA:729,1
DA:730,1
DA:731,1
DA:732,1
DA:733,1
DA:734,1
DA:737,1
DA:737,1
DA:737,1
DA:737,1
DA:740,1
DA:741,1
DA:742,1
DA:743,1
DA:746,1
DA:746,1
DA:746,1
DA:746,1
DA:748,1
DA:749,1
DA:750,1
DA:751,1
DA:754,1
DA:754,1
DA:754,1
DA:754,1
DA:756,1
DA:757,1
DA:758,1
DA:759,1
DA:760,1
DA:763,1
DA:763,1
DA:763,1
DA:763,1
DA:765,1
DA:766,1
DA:767,1
DA:768,1
DA:771,1
DA:771,1
DA:771,1
DA:771,1
DA:774,1
DA:775,1
DA:776,1
DA:777,1
DA:780,1
DA:780,1
DA:780,1
DA:780,1
DA:782,1
DA:783,1
DA:784,1
DA:785,1
DA:786,1
DA:789,1
DA:789,1
DA:789,1
DA:789,1
DA:791,1
DA:792,1
DA:794,1
DA:795,1
DA:796,1
DA:797,1
DA:800,1
DA:800,1
DA:800,1
DA:800,1
DA:802,1
DA:803,1
DA:804,1
DA:805,1
DA:808,1
DA:808,1
DA:808,1
DA:808,1
DA:810,1
DA:811,1
DA:812,1
DA:813,1
DA:814,1
DA:815,1
DA:818,1
DA:818,1
DA:818,1
DA:818,1
DA:820,1
DA:821,1
DA:822,1
DA:823,1
DA:824,1
DA:827,1
DA:827,1
DA:827,1
DA:827,1
DA:829,1
DA:830,1
DA:831,1
DA:832,1
DA:833,1
DA:834,1
DA:837,1
DA:837,1
DA:837,1
DA:837,1
DA:839,1
DA:840,1
DA:842,1
DA:843,1
DA:846,1
DA:846,1
DA:846,1
DA:846,1
DA:848,1
DA:849,1
DA:851,1
DA:852,1
DA:855,1
DA:855,1
DA:855,1
DA:855,1
DA:857,1
DA:858,1
DA:859,1
DA:860,1
DA:863,1
DA:863,1
DA:863,1
DA:863,1
DA:865,1
DA:866,1
DA:868,1
DA:869,1
DA:872,1
DA:872,1
DA:872,1
DA:872,1
DA:874,1
DA:875,1
DA:876,1
DA:879,1
DA:879,1
DA:879,1
DA:879,1
DA:881,1
DA:882,1
DA:883,1
DA:886,1
DA:886,1
DA:886,1
DA:886,1
DA:888,1
DA:889,1
DA:890,1
DA:891,1
DA:894,1
DA:894,1
DA:894,1
DA:894,1
DA:896,1
DA:897,1
DA:898,1
DA:899,1
DA:900,1
DA:903,1
DA:903,1
DA:903,1
DA:903,1
DA:905,1
DA:906,1
DA:907,1
DA:908,1
DA:909,1
DA:912,1
DA:912,1
DA:912,1
DA:912,1
DA:914,1
DA:915,1
DA:916,1
DA:917,1
DA:918,1
LF:808
LH:808
end_of_record
SF:C:/msys64/mingw64/include/c++/14.2.0/bits/basic_string.tcc
FN:221,_ZNSt7__cxx1112basic_stringIcSt11char_traitsIcESaIcEE12_M_constructIPKcEEvT_S8_St20forward_iterator_tag
FNDA:0,_ZNSt7__cxx1112basic_stringIcSt11char_traitsIcESaIcEE12_M_constructIPKcEEvT_S8_St20forward_iterator_tag
FN:239,_ZZNSt7__cxx1112basic_stringIcSt11char_traitsIcESaIcEE12_M_constructIPKcEEvT_S8_St20forward_iterator_tagEN6_GuardC1EPS4_
FNDA:0,_ZZNSt7__cxx1112basic_stringIcSt11char_traitsIcESaIcEE12_M_constructIPKcEEvT_S8_St20forward_iterator_tagEN6_GuardC1EPS4_
FN:242,_ZZNSt7__cxx1112basic_stringIcSt11char_traitsIcESaIcEE12_M_constructIPKcEEvT_S8_St20forward_iterator_tagEN6_GuardD1Ev
FNDA:0,_ZZNSt7__cxx1112basic_stringIcSt11char_traitsIcESaIcEE12_M_constructIPKcEEvT_S8_St20forward_iterator_tagEN6_GuardD1Ev
FNF:3
FNH:0
DA:221,0
DA:225,0
DA:227,0
DA:229,0
DA:230,0
DA:239,0
DA:242,0
DA:245,0
DA:247,0
DA:249,0
DA:251,0
DA:252,0
LF:12
LH:0
end_of_record
SF:C:/msys64/mingw64/include/c++/14.2.0/bits/unique_ptr.h
FN:87,_ZNKSt14default_deleteINSt7__cxx1112basic_stringIcSt11char_traitsIcESaIcEEEEclEPS5_
FNDA:0,_ZNKSt14default_deleteINSt7__cxx1112basic_stringIcSt11char_traitsIcESaIcEEEEclEPS5_
FN:87,_ZNKSt14default_deleteINSt7__cxx1118basic_stringstreamIcSt11char_traitsIcESaIcEEEEclEPS5_
FNDA:0,_ZNKSt14default_deleteINSt7__cxx1118basic_stringstreamIcSt11char_traitsIcESaIcEEEEclEPS5_
FN:168,_ZNSt15__uniq_ptr_implINSt7__cxx1112basic_stringIcSt11char_traitsIcESaIcEEESt14default_deleteIS5_EEC2Ev
FNDA:0,_ZNSt15__uniq_ptr_implINSt7__cxx1112basic_stringIcSt11char_traitsIcESaIcEEESt14default_deleteIS5_EEC2Ev
FN:170,_ZNSt15__uniq_ptr_implINSt7__cxx1112basic_stringIcSt11char_traitsIcESaIcEEESt14default_deleteIS5_EEC2EPS5_
FNDA:0,_ZNSt15__uniq_ptr_implINSt7__cxx1112basic_stringIcSt11char_traitsIcESaIcEEESt14default_deleteIS5_EEC2EPS5_
FN:183,_ZNSt15__uniq_ptr_implINSt7__cxx1112basic_stringIcSt11char_traitsIcESaIcEEESt14default_deleteIS5_EEaSEOS8_
FNDA:0,_ZNSt15__uniq_ptr_implINSt7__cxx1112basic_stringIcSt11char_traitsIcESaIcEEESt14default_deleteIS5_EEaSEOS8_
FN:191,_ZNSt15__uniq_ptr_implINSt7__cxx1112basic_stringIcSt11char_traitsIcESaIcEEESt14default_deleteIS5_EE6_M_ptrEv
FNDA:0,_ZNSt15__uniq_ptr_implINSt7__cxx1112basic_stringIcSt11char_traitsIcESaIcEEESt14default_deleteIS5_EE6_M_ptrEv
FN:191,_ZNSt15__uniq_ptr_implINSt7__cxx1118basic_stringstreamIcSt11char_traitsIcESaIcEEESt14default_deleteIS5_EE6_M_ptrEv
FNDA:0,_ZNSt15__uniq_ptr_implINSt7__cxx1118basic_stringstreamIcSt11char_traitsIcESaIcEEESt14default_deleteIS5_EE6_M_ptrEv
FN:193,_ZNKSt15__uniq_ptr_implINSt7__cxx1112basic_stringIcSt11char_traitsIcESaIcEEESt14default_deleteIS5_EE6_M_ptrEv
FNDA:0,_ZNKSt15__uniq_ptr_implINSt7__cxx1112basic_stringIcSt11char_traitsIcESaIcEEESt14default_deleteIS5_EE6_M_ptrEv
FN:193,_ZNKSt15__uniq_ptr_implINSt7__cxx1118basic_stringstreamIcSt11char_traitsIcESaIcEEESt14default_deleteIS5_EE6_M_ptrEv
FNDA:0,_ZNKSt15__uniq_ptr_implINSt7__cxx1118basic_stringstreamIcSt11char_traitsIcESaIcEEESt14default_deleteIS5_EE6_M_ptrEv
FN:195,_ZNSt15__uniq_ptr_implINSt7__cxx1118basic_stringstreamIcSt11char_traitsIcESaIcEEESt14default_deleteIS5_EE10_M_deleterEv
FNDA:0,_ZNSt15__uniq_ptr_implINSt7__cxx1118basic_stringstreamIcSt11char_traitsIcESaIcEEESt14default_deleteIS5_EE10_M_deleterEv
FN:195,_ZNSt15__uniq_ptr_implINSt7__cxx1112basic_stringIcSt11char_traitsIcESaIcEEESt14default_deleteIS5_EE10_M_deleterEv
FNDA:0,_ZNSt15__uniq_ptr_implINSt7__cxx1112basic_stringIcSt11char_traitsIcESaIcEEESt14default_deleteIS5_EE10_M_deleterEv
FN:200,_ZNSt15__uniq_ptr_implINSt7__cxx1112basic_stringIcSt11char_traitsIcESaIcEEESt14default_deleteIS5_EE5resetEPS5_
FNDA:0,_ZNSt15__uniq_ptr_implINSt7__cxx1112basic_stringIcSt11char_traitsIcESaIcEEESt14default_deleteIS5_EE5resetEPS5_
FN:209,_ZNSt15__uniq_ptr_implINSt7__cxx1112basic_stringIcSt11char_traitsIcESaIcEEESt14default_deleteIS5_EE7releaseEv
FNDA:0,_ZNSt15__uniq_ptr_implINSt7__cxx1112basic_stringIcSt11char_traitsIcESaIcEEESt14default_deleteIS5_EE7releaseEv
FN:237,_ZNSt15__uniq_ptr_dataINSt7__cxx1112basic_stringIcSt11char_traitsIcESaIcEEESt14default_deleteIS5_ELb1ELb1EEaSEOS8_
FNDA:0,_ZNSt15__uniq_ptr_dataINSt7__cxx1112basic_stringIcSt11char_traitsIcESaIcEEESt14default_deleteIS5_ELb1ELb1EEaSEOS8_
FN:298,_ZNSt10unique_ptrINSt7__cxx1112basic_stringIcSt11char_traitsIcESaIcEEESt14default_deleteIS5_EEC1IS7_vEEv
FNDA:0,_ZNSt10unique_ptrINSt7__cxx1112basic_stringIcSt11char_traitsIcESaIcEEESt14default_deleteIS5_EEC1IS7_vEEv
FN:311,_ZNSt10unique_ptrINSt7__cxx1112basic_stringIcSt11char_traitsIcESaIcEEESt14default_deleteIS5_EEC1IS7_vEEPS5_
FNDA:0,_ZNSt10unique_ptrINSt7__cxx1112basic_stringIcSt11char_traitsIcESaIcEEESt14default_deleteIS5_EEC1IS7_vEEPS5_
FN:392,_ZNSt10unique_ptrINSt7__cxx1112basic_stringIcSt11char_traitsIcESaIcEEESt14default_deleteIS5_EED1Ev
FNDA:0,_ZNSt10unique_ptrINSt7__cxx1112basic_stringIcSt11char_traitsIcESaIcEEESt14default_deleteIS5_EED1Ev
FN:392,_ZNSt10unique_ptrINSt7__cxx1118basic_stringstreamIcSt11char_traitsIcESaIcEEESt14default_deleteIS5_EED1Ev
FNDA:0,_ZNSt10unique_ptrINSt7__cxx1118basic_stringstreamIcSt11char_traitsIcESaIcEEESt14default_deleteIS5_EED1Ev
FN:408,_ZNSt10unique_ptrINSt7__cxx1112basic_stringIcSt11char_traitsIcESaIcEEESt14default_deleteIS5_EEaSEOS8_
FNDA:0,_ZNSt10unique_ptrINSt7__cxx1112basic_stringIcSt11char_traitsIcESaIcEEESt14default_deleteIS5_EEaSEOS8_
FN:445,_ZNKSt10unique_ptrINSt7__cxx1118basic_stringstreamIcSt11char_traitsIcESaIcEEESt14default_deleteIS5_EEdeEv
FNDA:0,_ZNKSt10unique_ptrINSt7__cxx1118basic_stringstreamIcSt11char_traitsIcESaIcEEESt14default_deleteIS5_EEdeEv
FN:454,_ZNKSt10unique_ptrINSt7__cxx1112basic_stringIcSt11char_traitsIcESaIcEEESt14default_deleteIS5_EEptEv
FNDA:0,_ZNKSt10unique_ptrINSt7__cxx1112basic_stringIcSt11char_traitsIcESaIcEEESt14default_deleteIS5_EEptEv
FN:463,_ZNKSt10unique_ptrINSt7__cxx1118basic_stringstreamIcSt11char_traitsIcESaIcEEESt14default_deleteIS5_EE3getEv
FNDA:0,_ZNKSt10unique_ptrINSt7__cxx1118basic_stringstreamIcSt11char_traitsIcESaIcEEESt14default_deleteIS5_EE3getEv
FN:463,_ZNKSt10unique_ptrINSt7__cxx1112basic_stringIcSt11char_traitsIcESaIcEEESt14default_deleteIS5_EE3getEv
FNDA:0,_ZNKSt10unique_ptrINSt7__cxx1112basic_stringIcSt11char_traitsIcESaIcEEESt14default_deleteIS5_EE3getEv
FN:469,_ZNSt10unique_ptrINSt7__cxx1118basic_stringstreamIcSt11char_traitsIcESaIcEEESt14default_deleteIS5_EE11get_deleterEv
FNDA:0,_ZNSt10unique_ptrINSt7__cxx1118basic_stringstreamIcSt11char_traitsIcESaIcEEESt14default_deleteIS5_EE11get_deleterEv
FN:469,_ZNSt10unique_ptrINSt7__cxx1112basic_stringIcSt11char_traitsIcESaIcEEESt14default_deleteIS5_EE11get_deleterEv
FNDA:0,_ZNSt10unique_ptrINSt7__cxx1112basic_stringIcSt11char_traitsIcESaIcEEESt14default_deleteIS5_EE11get_deleterEv
FN:480,_ZNKSt10unique_ptrINSt7__cxx1112basic_stringIcSt11char_traitsIcESaIcEEESt14default_deleteIS5_EEcvbEv
FNDA:0,_ZNKSt10unique_ptrINSt7__cxx1112basic_stringIcSt11char_traitsIcESaIcEEESt14default_deleteIS5_EEcvbEv
FN:845,_ZSteqINSt7__cxx1112basic_stringIcSt11char_traitsIcESaIcEEESt14default_deleteIS5_EEbRKSt10unique_ptrIT_T0_EDn
FNDA:0,_ZSteqINSt7__cxx1112basic_stringIcSt11char_traitsIcESaIcEEESt14default_deleteIS5_EEbRKSt10unique_ptrIT_T0_EDn
FN:869,_ZStneINSt7__cxx1112basic_stringIcSt11char_traitsIcESaIcEEESt14default_deleteIS5_EEbRKSt10unique_ptrIT_T0_EDn
FNDA:0,_ZStneINSt7__cxx1112basic_stringIcSt11char_traitsIcESaIcEEESt14default_deleteIS5_EEbRKSt10unique_ptrIT_T0_EDn
FN:1075,_ZSt11make_uniqueINSt7__cxx1112basic_stringIcSt11char_traitsIcESaIcEEEJEENSt8__detail9_MakeUniqIT_E15__single_objectEDpOT0_
FNDA:0,_ZSt11make_uniqueINSt7__cxx1112basic_stringIcSt11char_traitsIcESaIcEEEJEENSt8__detail9_MakeUniqIT_E15__single_objectEDpOT0_
FNF:29
FNH:0
DA:87,0
DA:93,0
DA:94,0
DA:87,0
DA:93,0
DA:94,0
DA:168,0
DA:170,0
DA:183,0
DA:185,0
DA:186,0
DA:187,0
DA:191,0
DA:191,0
DA:193,0
DA:193,0
DA:195,0
DA:195,0
DA:200,0
DA:202,0
DA:203,0
DA:204,0
DA:205,0
DA:206,0
DA:209,0
DA:211,0
DA:212,0
DA:213,0
DA:237,0
DA:298,0
DA:299,0
DA:300,0
DA:311,0
DA:312,0
DA:313,0
DA:392,0
DA:396,0
DA:397,0
DA:398,0
DA:399,0
DA:400,0
DA:392,0
DA:396,0
DA:397,0
DA:398,0
DA:399,0
DA:400,0
DA:408,0
DA:445,0
DA:447,0
DA:448,0
DA:454,0
DA:457,0
DA:463,0
DA:464,0
DA:463,0
DA:464,0
DA:469,0
DA:470,0
DA:469,0
DA:470,0
DA:480,0
DA:481,0
DA:845,0
DA:846,0
DA:869,0
DA:870,0
DA:1075,0
DA:1076,0
LF:69
LH:0
end_of_record
SF:C:/msys64/mingw64/include/c++/14.2.0/bits/ios_base.h
FN:752,_ZNKSt8ios_base9precisionEv
FNDA:0,_ZNKSt8ios_base9precisionEv
FN:761,_ZNSt8ios_base9precisionEx
FNDA:0,_ZNSt8ios_base9precisionEx
FNF:2
FNH:0
DA:752,0
DA:753,0
DA:761,0
DA:763,0
DA:764,0
DA:765,0
LF:6
LH:0
end_of_record
TN:
SF:C:/Projects/GoogleTestProject/googletest/googletest/include/gtest/gtest.h
FN:255,_ZN7testing4Test14SetUpTestSuiteEv
FNDA:0,_ZN7testing4Test14SetUpTestSuiteEv
FN:263,_ZN7testing4Test17TearDownTestSuiteEv
FNDA:0,_ZN7testing4Test17TearDownTestSuiteEv
FN:268,_ZN7testing4Test16TearDownTestCaseEv
FNDA:0,_ZN7testing4Test16TearDownTestCaseEv
FN:269,_ZN7testing4Test13SetUpTestCaseEv
FNDA:0,_ZN7testing4Test13SetUpTestCaseEv
FN:356,_ZN7testing4Test5SetupEv
FNDA:0,_ZN7testing4Test5SetupEv
FN:1582,_ZN7testing8internal24CmpHelperFloatingPointEQIfEENS_15AssertionResultEPKcS4_T_S5_
FNDA:0,_ZN7testing8internal24CmpHelperFloatingPointEQIfEENS_15AssertionResultEPKcS4_T_S5_
FNF:6
FNH:0
DA:255,0
DA:263,0
DA:268,0
DA:269,0
DA:356,0
DA:1582,0
DA:1585,0
DA:1587,0
DA:1588,0
DA:1591,0
DA:1592,0
DA:1593,0
DA:1595,0
DA:1596,0
DA:1597,0
DA:1600,0
DA:1601,0
DA:1602,0
LF:18
LH:0
end_of_record
SF:C:/msys64/mingw64/include/c++/14.2.0/bits/new_allocator.h
FN:104,_ZNSt15__new_allocatorIcED2Ev
FNDA:0,_ZNSt15__new_allocatorIcED2Ev
FNF:1
FNH:0
DA:104,0
LF:1
LH:0
end_of_record
SF:C:/msys64/mingw64/include/c++/14.2.0/bits/basic_string.h
FN:646,_ZNSt7__cxx1112basic_stringIcSt11char_traitsIcESaIcEEC1IS3_EEPKcRKS3_
FNDA:0,_ZNSt7__cxx1112basic_stringIcSt11char_traitsIcESaIcEEC1IS3_EEPKcRKS3_
FNF:1
FNH:0
DA:360,0
DA:646,0
DA:647,0
DA:650,0
DA:651,0
DA:653,0
DA:654,0
DA:655,0
LF:8
LH:0
end_of_record
SF:C:/msys64/mingw64/include/c++/14.2.0/tuple
FN:133,_ZNSt10_Head_baseILy1ESt14default_deleteINSt7__cxx1118basic_stringstreamIcSt11char_traitsIcESaIcEEEELb1EE7_M_headERS8_
FNDA:0,_ZNSt10_Head_baseILy1ESt14default_deleteINSt7__cxx1118basic_stringstreamIcSt11char_traitsIcESaIcEEEELb1EE7_M_headERS8_
FN:133,_ZNSt10_Head_baseILy1ESt14default_deleteINSt7__cxx1112basic_stringIcSt11char_traitsIcESaIcEEEELb1EE7_M_headERS8_
FNDA:0,_ZNSt10_Head_baseILy1ESt14default_deleteINSt7__cxx1112basic_stringIcSt11char_traitsIcESaIcEEEELb1EE7_M_headERS8_
FN:242,_ZNSt10_Head_baseILy0EPNSt7__cxx1112basic_stringIcSt11char_traitsIcESaIcEEELb0EE7_M_headERS7_
FNDA:0,_ZNSt10_Head_baseILy0EPNSt7__cxx1112basic_stringIcSt11char_traitsIcESaIcEEELb0EE7_M_headERS7_
FN:242,_ZNSt10_Head_baseILy0EPNSt7__cxx1118basic_stringstreamIcSt11char_traitsIcESaIcEEELb0EE7_M_headERS7_
FNDA:0,_ZNSt10_Head_baseILy0EPNSt7__cxx1118basic_stringstreamIcSt11char_traitsIcESaIcEEELb0EE7_M_headERS7_
FN:245,_ZNSt10_Head_baseILy0EPNSt7__cxx1112basic_stringIcSt11char_traitsIcESaIcEEELb0EE7_M_headERKS7_
FNDA:0,_ZNSt10_Head_baseILy0EPNSt7__cxx1112basic_stringIcSt11char_traitsIcESaIcEEELb0EE7_M_headERKS7_
FN:293,_ZNSt11_Tuple_implILy0EJPNSt7__cxx1112basic_stringIcSt11char_traitsIcESaIcEEESt14default_deleteIS5_EEE7_M_headERS9_
FNDA:0,_ZNSt11_Tuple_implILy0EJPNSt7__cxx1112basic_stringIcSt11char_traitsIcESaIcEEESt14default_deleteIS5_EEE7_M_headERS9_
FN:293,_ZNSt11_Tuple_implILy0EJPNSt7__cxx1118basic_stringstreamIcSt11char_traitsIcESaIcEEESt14default_deleteIS5_EEE7_M_headERS9_
FNDA:0,_ZNSt11_Tuple_implILy0EJPNSt7__cxx1118basic_stringstreamIcSt11char_traitsIcESaIcEEESt14default_deleteIS5_EEE7_M_headERS9_
FN:296,_ZNSt11_Tuple_implILy0EJPNSt7__cxx1112basic_stringIcSt11char_traitsIcESaIcEEESt14default_deleteIS5_EEE7_M_headERKS9_
FNDA:0,_ZNSt11_Tuple_implILy0EJPNSt7__cxx1112basic_stringIcSt11char_traitsIcESaIcEEESt14default_deleteIS5_EEE7_M_headERKS9_
FN:556,_ZNSt11_Tuple_implILy1EJSt14default_deleteINSt7__cxx1118basic_stringstreamIcSt11char_traitsIcESaIcEEEEEE7_M_headERS8_
FNDA:0,_ZNSt11_Tuple_implILy1EJSt14default_deleteINSt7__cxx1118basic_stringstreamIcSt11char_traitsIcESaIcEEEEEE7_M_headERS8_
FN:556,_ZNSt11_Tuple_implILy1EJSt14default_deleteINSt7__cxx1112basic_stringIcSt11char_traitsIcESaIcEEEEEE7_M_headERS8_
FNDA:0,_ZNSt11_Tuple_implILy1EJSt14default_deleteINSt7__cxx1112basic_stringIcSt11char_traitsIcESaIcEEEEEE7_M_headERS8_
FN:2427,_ZSt12__get_helperILy1ESt14default_deleteINSt7__cxx1118basic_stringstreamIcSt11char_traitsIcESaIcEEEEJEERT0_RSt11_Tuple_implIXT_EJS8_DpT1_EE
FNDA:0,_ZSt12__get_helperILy1ESt14default_deleteINSt7__cxx1118basic_stringstreamIcSt11char_traitsIcESaIcEEEEJEERT0_RSt11_Tuple_implIXT_EJS8_DpT1_EE
FN:2427,_ZSt12__get_helperILy0EPNSt7__cxx1118basic_stringstreamIcSt11char_traitsIcESaIcEEEJSt14default_deleteIS5_EEERT0_RSt11_Tuple_implIXT_EJS9_DpT1_EE
FNDA:0,_ZSt12__get_helperILy0EPNSt7__cxx1118basic_stringstreamIcSt11char_traitsIcESaIcEEEJSt14default_deleteIS5_EEERT0_RSt11_Tuple_implIXT_EJS9_DpT1_EE
FN:2427,_ZSt12__get_helperILy0EPNSt7__cxx1112basic_stringIcSt11char_traitsIcESaIcEEEJSt14default_deleteIS5_EEERT0_RSt11_Tuple_implIXT_EJS9_DpT1_EE
FNDA:0,_ZSt12__get_helperILy0EPNSt7__cxx1112basic_stringIcSt11char_traitsIcESaIcEEEJSt14default_deleteIS5_EEERT0_RSt11_Tuple_implIXT_EJS9_DpT1_EE
FN:2427,_ZSt12__get_helperILy1ESt14default_deleteINSt7__cxx1112basic_stringIcSt11char_traitsIcESaIcEEEEJEERT0_RSt11_Tuple_implIXT_EJS8_DpT1_EE
FNDA:0,_ZSt12__get_helperILy1ESt14default_deleteINSt7__cxx1112basic_stringIcSt11char_traitsIcESaIcEEEEJEERT0_RSt11_Tuple_implIXT_EJS8_DpT1_EE
FN:2432,_ZSt12__get_helperILy0EPNSt7__cxx1112basic_stringIcSt11char_traitsIcESaIcEEEJSt14default_deleteIS5_EEERKT0_RKSt11_Tuple_implIXT_EJS9_DpT1_EE
FNDA:0,_ZSt12__get_helperILy0EPNSt7__cxx1112basic_stringIcSt11char_traitsIcESaIcEEEJSt14default_deleteIS5_EEERKT0_RKSt11_Tuple_implIXT_EJS9_DpT1_EE
FN:2443,_ZSt3getILy1EJPNSt7__cxx1118basic_stringstreamIcSt11char_traitsIcESaIcEEESt14default_deleteIS5_EEERNSt13tuple_elementIXT_ESt5tupleIJDpT0_EEE4typeERSD_
FNDA:0,_ZSt3getILy1EJPNSt7__cxx1118basic_stringstreamIcSt11char_traitsIcESaIcEEESt14default_deleteIS5_EEERNSt13tuple_elementIXT_ESt5tupleIJDpT0_EEE4typeERSD_
FN:2443,_ZSt3getILy1EJPNSt7__cxx1112basic_stringIcSt11char_traitsIcESaIcEEESt14default_deleteIS5_EEERNSt13tuple_elementIXT_ESt5tupleIJDpT0_EEE4typeERSD_
FNDA:0,_ZSt3getILy1EJPNSt7__cxx1112basic_stringIcSt11char_traitsIcESaIcEEESt14default_deleteIS5_EEERNSt13tuple_elementIXT_ESt5tupleIJDpT0_EEE4typeERSD_
FN:2443,_ZSt3getILy0EJPNSt7__cxx1112basic_stringIcSt11char_traitsIcESaIcEEESt14default_deleteIS5_EEERNSt13tuple_elementIXT_ESt5tupleIJDpT0_EEE4typeERSD_
FNDA:0,_ZSt3getILy0EJPNSt7__cxx1112basic_stringIcSt11char_traitsIcESaIcEEESt14default_deleteIS5_EEERNSt13tuple_elementIXT_ESt5tupleIJDpT0_EEE4typeERSD_
FN:2443,_ZSt3getILy0EJPNSt7__cxx1118basic_stringstreamIcSt11char_traitsIcESaIcEEESt14default_deleteIS5_EEERNSt13tuple_elementIXT_ESt5tupleIJDpT0_EEE4typeERSD_
FNDA:0,_ZSt3getILy0EJPNSt7__cxx1118basic_stringstreamIcSt11char_traitsIcESaIcEEESt14default_deleteIS5_EEERNSt13tuple_elementIXT_ESt5tupleIJDpT0_EEE4typeERSD_
FN:2449,_ZSt3getILy0EJPNSt7__cxx1112basic_stringIcSt11char_traitsIcESaIcEEESt14default_deleteIS5_EEERKNSt13tuple_elementIXT_ESt5tupleIJDpT0_EEE4typeERKSD_
FNDA:0,_ZSt3getILy0EJPNSt7__cxx1112basic_stringIcSt11char_traitsIcESaIcEEESt14default_deleteIS5_EEERKNSt13tuple_elementIXT_ESt5tupleIJDpT0_EEE4typeERKSD_
FNF:20
FNH:0
DA:133,0
DA:133,0
DA:242,0
DA:242,0
DA:245,0
DA:293,0
DA:293,0
DA:296,0
DA:556,0
DA:556,0
DA:2427,0
DA:2428,0
DA:2427,0
DA:2428,0
DA:2427,0
DA:2428,0
DA:2427,0
DA:2428,0
DA:2432,0
DA:2433,0
DA:2443,0
DA:2444,0
DA:2443,0
DA:2444,0
DA:2443,0
DA:2444,0
DA:2443,0
DA:2444,0
DA:2449,0
DA:2450,0
LF:30
LH:0
end_of_record
SF:C:/Projects/GoogleTestProject/googletest/googletest/include/gtest/gtest-assertion-result.h
FN:174,_ZNK7testing15AssertionResultcvbEv
FNDA:0,_ZNK7testing15AssertionResultcvbEv
FN:183,_ZNK7testing15AssertionResult7messageEv
FNDA:0,_ZNK7testing15AssertionResult7messageEv
FN:187,_ZNK7testing15AssertionResult15failure_messageEv
FNDA:0,_ZNK7testing15AssertionResult15failure_messageEv
FNF:3
FNH:0
DA:174,0
DA:183,0
DA:184,0
DA:187,0
LF:4
LH:0
end_of_record
SF:C:/msys64/mingw64/include/c++/14.2.0/bits/stl_iterator_base_types.h
DA:240,0
LF:1
LH:0
end_of_record
SF:C:/msys64/mingw64/include/c++/14.2.0/bits/allocator.h
LF:0
LH:0
end_of_record
SF:C:/Projects/GoogleTestProject/googletest/googletest/include/gtest/internal/gtest-internal.h
FN:293,_ZN7testing8internal13FloatingPointIfEC1ERKf
FNDA:0,_ZN7testing8internal13FloatingPointIfEC1ERKf
FN:315,_ZNK7testing8internal13FloatingPointIfE13exponent_bitsEv
FNDA:0,_ZNK7testing8internal13FloatingPointIfE13exponent_bitsEv
FN:318,_ZNK7testing8internal13FloatingPointIfE13fraction_bitsEv
FNDA:0,_ZNK7testing8internal13FloatingPointIfE13fraction_bitsEv
FN:324,_ZNK7testing8internal13FloatingPointIfE6is_nanEv
FNDA:0,_ZNK7testing8internal13FloatingPointIfE6is_nanEv
FN:336,_ZNK7testing8internal13FloatingPointIfE12AlmostEqualsERKS2_
FNDA:0,_ZNK7testing8internal13FloatingPointIfE12AlmostEqualsERKS2_
FN:367,_ZN7testing8internal13FloatingPointIfE24SignAndMagnitudeToBiasedERKj
FNDA:0,_ZN7testing8internal13FloatingPointIfE24SignAndMagnitudeToBiasedERKj
FN:379,_ZN7testing8internal13FloatingPointIfE38DistanceBetweenSignAndMagnitudeNumbersERKjS4_
FNDA:0,_ZN7testing8internal13FloatingPointIfE38DistanceBetweenSignAndMagnitudeNumbersERKjS4_
FN:418,_ZN7testing8internal9GetTypeIdI12AebDecelTestEEPKvv
FNDA:120,_ZN7testing8internal9GetTypeIdI12AebDecelTestEEPKvv
FN:437,_ZN7testing8internal15TestFactoryBaseD2Ev
FNDA:0,_ZN7testing8internal15TestFactoryBaseD2Ev
FN:444,_ZN7testing8internal15TestFactoryBaseC2Ev
FNDA:0,_ZN7testing8internal15TestFactoryBaseC2Ev
FN:456,_ZN7testing8internal15TestFactoryImplI34AebDecelTest_TC_AEB_DEC_RA_08_TestE10CreateTestEv
FNDA:1,_ZN7testing8internal15TestFactoryImplI34AebDecelTest_TC_AEB_DEC_RA_08_TestE10CreateTestEv
FN:456,_ZN7testing8internal15TestFactoryImplI34AebDecelTest_TC_AEB_DEC_BV_17_TestE10CreateTestEv
FNDA:1,_ZN7testing8internal15TestFactoryImplI34AebDecelTest_TC_AEB_DEC_BV_17_TestE10CreateTestEv
FN:456,_ZN7testing8internal15TestFactoryImplI34AebDecelTest_TC_AEB_DEC_RA_07_TestE10CreateTestEv
FNDA:1,_ZN7testing8internal15TestFactoryImplI34AebDecelTest_TC_AEB_DEC_RA_07_TestE10CreateTestEv
FN:456,_ZN7testing8internal15TestFactoryImplI34AebDecelTest_TC_AEB_DEC_RA_06_TestE10CreateTestEv
FNDA:1,_ZN7testing8internal15TestFactoryImplI34AebDecelTest_TC_AEB_DEC_RA_06_TestE10CreateTestEv
FN:456,_ZN7testing8internal15TestFactoryImplI34AebDecelTest_TC_AEB_DEC_RA_05_TestE10CreateTestEv
FNDA:1,_ZN7testing8internal15TestFactoryImplI34AebDecelTest_TC_AEB_DEC_RA_05_TestE10CreateTestEv
FN:456,_ZN7testing8internal15TestFactoryImplI34AebDecelTest_TC_AEB_DEC_RA_04_TestE10CreateTestEv
FNDA:1,_ZN7testing8internal15TestFactoryImplI34AebDecelTest_TC_AEB_DEC_RA_04_TestE10CreateTestEv
FN:456,_ZN7testing8internal15TestFactoryImplI34AebDecelTest_TC_AEB_DEC_RA_03_TestE10CreateTestEv
FNDA:1,_ZN7testing8internal15TestFactoryImplI34AebDecelTest_TC_AEB_DEC_RA_03_TestE10CreateTestEv
FN:456,_ZN7testing8internal15TestFactoryImplI34AebDecelTest_TC_AEB_DEC_RA_02_TestE10CreateTestEv
FNDA:1,_ZN7testing8internal15TestFactoryImplI34AebDecelTest_TC_AEB_DEC_RA_02_TestE10CreateTestEv
FN:456,_ZN7testing8internal15TestFactoryImplI34AebDecelTest_TC_AEB_DEC_RA_01_TestE10CreateTestEv
FNDA:1,_ZN7testing8internal15TestFactoryImplI34AebDecelTest_TC_AEB_DEC_RA_01_TestE10CreateTestEv
FN:456,_ZN7testing8internal15TestFactoryImplI34AebDecelTest_TC_AEB_DEC_BV_20_TestE10CreateTestEv
FNDA:1,_ZN7testing8internal15TestFactoryImplI34AebDecelTest_TC_AEB_DEC_BV_20_TestE10CreateTestEv
FN:456,_ZN7testing8internal15TestFactoryImplI34AebDecelTest_TC_AEB_DEC_BV_19_TestE10CreateTestEv
FNDA:1,_ZN7testing8internal15TestFactoryImplI34AebDecelTest_TC_AEB_DEC_BV_19_TestE10CreateTestEv
FN:456,_ZN7testing8internal15TestFactoryImplI34AebDecelTest_TC_AEB_DEC_EQ_01_TestE10CreateTestEv
FNDA:1,_ZN7testing8internal15TestFactoryImplI34AebDecelTest_TC_AEB_DEC_EQ_01_TestE10CreateTestEv
FN:456,_ZN7testing8internal15TestFactoryImplI34AebDecelTest_TC_AEB_DEC_BV_18_TestE10CreateTestEv
FNDA:1,_ZN7testing8internal15TestFactoryImplI34AebDecelTest_TC_AEB_DEC_BV_18_TestE10CreateTestEv
FN:456,_ZN7testing8internal15TestFactoryImplI34AebDecelTest_TC_AEB_DEC_RA_09_TestE10CreateTestEv
FNDA:1,_ZN7testing8internal15TestFactoryImplI34AebDecelTest_TC_AEB_DEC_RA_09_TestE10CreateTestEv
FN:456,_ZN7testing8internal15TestFactoryImplI34AebDecelTest_TC_AEB_DEC_RA_10_TestE10CreateTestEv
FNDA:1,_ZN7testing8internal15TestFactoryImplI34AebDecelTest_TC_AEB_DEC_RA_10_TestE10CreateTestEv
FN:456,_ZN7testing8internal15TestFactoryImplI34AebDecelTest_TC_AEB_DEC_RA_11_TestE10CreateTestEv
FNDA:1,_ZN7testing8internal15TestFactoryImplI34AebDecelTest_TC_AEB_DEC_RA_11_TestE10CreateTestEv
FN:456,_ZN7testing8internal15TestFactoryImplI34AebDecelTest_TC_AEB_DEC_RA_12_TestE10CreateTestEv
FNDA:1,_ZN7testing8internal15TestFactoryImplI34AebDecelTest_TC_AEB_DEC_RA_12_TestE10CreateTestEv
FN:456,_ZN7testing8internal15TestFactoryImplI34AebDecelTest_TC_AEB_DEC_RA_13_TestE10CreateTestEv
FNDA:1,_ZN7testing8internal15TestFactoryImplI34AebDecelTest_TC_AEB_DEC_RA_13_TestE10CreateTestEv
FN:456,_ZN7testing8internal15TestFactoryImplI34AebDecelTest_TC_AEB_DEC_RA_14_TestE10CreateTestEv
FNDA:1,_ZN7testing8internal15TestFactoryImplI34AebDecelTest_TC_AEB_DEC_RA_14_TestE10CreateTestEv
FN:456,_ZN7testing8internal15TestFactoryImplI34AebDecelTest_TC_AEB_DEC_RA_15_TestE10CreateTestEv
FNDA:1,_ZN7testing8internal15TestFactoryImplI34AebDecelTest_TC_AEB_DEC_RA_15_TestE10CreateTestEv
FN:456,_ZN7testing8internal15TestFactoryImplI34AebDecelTest_TC_AEB_DEC_RA_16_TestE10CreateTestEv
FNDA:1,_ZN7testing8internal15TestFactoryImplI34AebDecelTest_TC_AEB_DEC_RA_16_TestE10CreateTestEv
FN:456,_ZN7testing8internal15TestFactoryImplI34AebDecelTest_TC_AEB_DEC_RA_17_TestE10CreateTestEv
FNDA:1,_ZN7testing8internal15TestFactoryImplI34AebDecelTest_TC_AEB_DEC_RA_17_TestE10CreateTestEv
FN:456,_ZN7testing8internal15TestFactoryImplI34AebDecelTest_TC_AEB_DEC_RA_18_TestE10CreateTestEv
FNDA:1,_ZN7testing8internal15TestFactoryImplI34AebDecelTest_TC_AEB_DEC_RA_18_TestE10CreateTestEv
FN:456,_ZN7testing8internal15TestFactoryImplI34AebDecelTest_TC_AEB_DEC_RA_19_TestE10CreateTestEv
FNDA:1,_ZN7testing8internal15TestFactoryImplI34AebDecelTest_TC_AEB_DEC_RA_19_TestE10CreateTestEv
FN:456,_ZN7testing8internal15TestFactoryImplI34AebDecelTest_TC_AEB_DEC_RA_20_TestE10CreateTestEv
FNDA:1,_ZN7testing8internal15TestFactoryImplI34AebDecelTest_TC_AEB_DEC_RA_20_TestE10CreateTestEv
FN:456,_ZN7testing8internal15TestFactoryImplI34AebDecelTest_TC_AEB_DEC_EQ_10_TestE10CreateTestEv
FNDA:1,_ZN7testing8internal15TestFactoryImplI34AebDecelTest_TC_AEB_DEC_EQ_10_TestE10CreateTestEv
FN:456,_ZN7testing8internal15TestFactoryImplI34AebDecelTest_TC_AEB_DEC_EQ_18_TestE10CreateTestEv
FNDA:1,_ZN7testing8internal15TestFactoryImplI34AebDecelTest_TC_AEB_DEC_EQ_18_TestE10CreateTestEv
FN:456,_ZN7testing8internal15TestFactoryImplI34AebDecelTest_TC_AEB_DEC_BV_16_TestE10CreateTestEv
FNDA:1,_ZN7testing8internal15TestFactoryImplI34AebDecelTest_TC_AEB_DEC_BV_16_TestE10CreateTestEv
FN:456,_ZN7testing8internal15TestFactoryImplI34AebDecelTest_TC_AEB_DEC_EQ_16_TestE10CreateTestEv
FNDA:1,_ZN7testing8internal15TestFactoryImplI34AebDecelTest_TC_AEB_DEC_EQ_16_TestE10CreateTestEv
FN:456,_ZN7testing8internal15TestFactoryImplI34AebDecelTest_TC_AEB_DEC_EQ_15_TestE10CreateTestEv
FNDA:1,_ZN7testing8internal15TestFactoryImplI34AebDecelTest_TC_AEB_DEC_EQ_15_TestE10CreateTestEv
FN:456,_ZN7testing8internal15TestFactoryImplI34AebDecelTest_TC_AEB_DEC_EQ_14_TestE10CreateTestEv
FNDA:1,_ZN7testing8internal15TestFactoryImplI34AebDecelTest_TC_AEB_DEC_EQ_14_TestE10CreateTestEv
FN:456,_ZN7testing8internal15TestFactoryImplI34AebDecelTest_TC_AEB_DEC_EQ_13_TestE10CreateTestEv
FNDA:1,_ZN7testing8internal15TestFactoryImplI34AebDecelTest_TC_AEB_DEC_EQ_13_TestE10CreateTestEv
FN:456,_ZN7testing8internal15TestFactoryImplI34AebDecelTest_TC_AEB_DEC_EQ_12_TestE10CreateTestEv
FNDA:1,_ZN7testing8internal15TestFactoryImplI34AebDecelTest_TC_AEB_DEC_EQ_12_TestE10CreateTestEv
FN:456,_ZN7testing8internal15TestFactoryImplI34AebDecelTest_TC_AEB_DEC_EQ_11_TestE10CreateTestEv
FNDA:1,_ZN7testing8internal15TestFactoryImplI34AebDecelTest_TC_AEB_DEC_EQ_11_TestE10CreateTestEv
FN:456,_ZN7testing8internal15TestFactoryImplI34AebDecelTest_TC_AEB_DEC_EQ_17_TestE10CreateTestEv
FNDA:1,_ZN7testing8internal15TestFactoryImplI34AebDecelTest_TC_AEB_DEC_EQ_17_TestE10CreateTestEv
FN:456,_ZN7testing8internal15TestFactoryImplI34AebDecelTest_TC_AEB_DEC_EQ_09_TestE10CreateTestEv
FNDA:1,_ZN7testing8internal15TestFactoryImplI34AebDecelTest_TC_AEB_DEC_EQ_09_TestE10CreateTestEv
FN:456,_ZN7testing8internal15TestFactoryImplI34AebDecelTest_TC_AEB_DEC_EQ_08_TestE10CreateTestEv
FNDA:1,_ZN7testing8internal15TestFactoryImplI34AebDecelTest_TC_AEB_DEC_EQ_08_TestE10CreateTestEv
FN:456,_ZN7testing8internal15TestFactoryImplI34AebDecelTest_TC_AEB_DEC_EQ_07_TestE10CreateTestEv
FNDA:1,_ZN7testing8internal15TestFactoryImplI34AebDecelTest_TC_AEB_DEC_EQ_07_TestE10CreateTestEv
FN:456,_ZN7testing8internal15TestFactoryImplI34AebDecelTest_TC_AEB_DEC_EQ_06_TestE10CreateTestEv
FNDA:1,_ZN7testing8internal15TestFactoryImplI34AebDecelTest_TC_AEB_DEC_EQ_06_TestE10CreateTestEv
FN:456,_ZN7testing8internal15TestFactoryImplI34AebDecelTest_TC_AEB_DEC_EQ_05_TestE10CreateTestEv
FNDA:1,_ZN7testing8internal15TestFactoryImplI34AebDecelTest_TC_AEB_DEC_EQ_05_TestE10CreateTestEv
FN:456,_ZN7testing8internal15TestFactoryImplI34AebDecelTest_TC_AEB_DEC_EQ_04_TestE10CreateTestEv
FNDA:1,_ZN7testing8internal15TestFactoryImplI34AebDecelTest_TC_AEB_DEC_EQ_04_TestE10CreateTestEv
FN:456,_ZN7testing8internal15TestFactoryImplI34AebDecelTest_TC_AEB_DEC_EQ_03_TestE10CreateTestEv
FNDA:1,_ZN7testing8internal15TestFactoryImplI34AebDecelTest_TC_AEB_DEC_EQ_03_TestE10CreateTestEv
FN:456,_ZN7testing8internal15TestFactoryImplI34AebDecelTest_TC_AEB_DEC_EQ_02_TestE10CreateTestEv
FNDA:1,_ZN7testing8internal15TestFactoryImplI34AebDecelTest_TC_AEB_DEC_EQ_02_TestE10CreateTestEv
FN:456,_ZN7testing8internal15TestFactoryImplI34AebDecelTest_TC_AEB_DEC_BV_09_TestE10CreateTestEv
FNDA:1,_ZN7testing8internal15TestFactoryImplI34AebDecelTest_TC_AEB_DEC_BV_09_TestE10CreateTestEv
FN:456,_ZN7testing8internal15TestFactoryImplI34AebDecelTest_TC_AEB_DEC_BV_15_TestE10CreateTestEv
FNDA:1,_ZN7testing8internal15TestFactoryImplI34AebDecelTest_TC_AEB_DEC_BV_15_TestE10CreateTestEv
FN:456,_ZN7testing8internal15TestFactoryImplI34AebDecelTest_TC_AEB_DEC_BV_14_TestE10CreateTestEv
FNDA:1,_ZN7testing8internal15TestFactoryImplI34AebDecelTest_TC_AEB_DEC_BV_14_TestE10CreateTestEv
FN:456,_ZN7testing8internal15TestFactoryImplI34AebDecelTest_TC_AEB_DEC_BV_13_TestE10CreateTestEv
FNDA:1,_ZN7testing8internal15TestFactoryImplI34AebDecelTest_TC_AEB_DEC_BV_13_TestE10CreateTestEv
FN:456,_ZN7testing8internal15TestFactoryImplI34AebDecelTest_TC_AEB_DEC_BV_12_TestE10CreateTestEv
FNDA:1,_ZN7testing8internal15TestFactoryImplI34AebDecelTest_TC_AEB_DEC_BV_12_TestE10CreateTestEv
FN:456,_ZN7testing8internal15TestFactoryImplI34AebDecelTest_TC_AEB_DEC_BV_11_TestE10CreateTestEv
FNDA:1,_ZN7testing8internal15TestFactoryImplI34AebDecelTest_TC_AEB_DEC_BV_11_TestE10CreateTestEv
FN:456,_ZN7testing8internal15TestFactoryImplI34AebDecelTest_TC_AEB_DEC_BV_10_TestE10CreateTestEv
FNDA:1,_ZN7testing8internal15TestFactoryImplI34AebDecelTest_TC_AEB_DEC_BV_10_TestE10CreateTestEv
FN:456,_ZN7testing8internal15TestFactoryImplI34AebDecelTest_TC_AEB_DEC_EQ_19_TestE10CreateTestEv
FNDA:1,_ZN7testing8internal15TestFactoryImplI34AebDecelTest_TC_AEB_DEC_EQ_19_TestE10CreateTestEv
FN:456,_ZN7testing8internal15TestFactoryImplI34AebDecelTest_TC_AEB_DEC_BV_08_TestE10CreateTestEv
FNDA:1,_ZN7testing8internal15TestFactoryImplI34AebDecelTest_TC_AEB_DEC_BV_08_TestE10CreateTestEv
FN:456,_ZN7testing8internal15TestFactoryImplI34AebDecelTest_TC_AEB_DEC_BV_07_TestE10CreateTestEv
FNDA:1,_ZN7testing8internal15TestFactoryImplI34AebDecelTest_TC_AEB_DEC_BV_07_TestE10CreateTestEv
FN:456,_ZN7testing8internal15TestFactoryImplI34AebDecelTest_TC_AEB_DEC_BV_06_TestE10CreateTestEv
FNDA:1,_ZN7testing8internal15TestFactoryImplI34AebDecelTest_TC_AEB_DEC_BV_06_TestE10CreateTestEv
FN:456,_ZN7testing8internal15TestFactoryImplI34AebDecelTest_TC_AEB_DEC_BV_05_TestE10CreateTestEv
FNDA:1,_ZN7testing8internal15TestFactoryImplI34AebDecelTest_TC_AEB_DEC_BV_05_TestE10CreateTestEv
FN:456,_ZN7testing8internal15TestFactoryImplI34AebDecelTest_TC_AEB_DEC_BV_04_TestE10CreateTestEv
FNDA:1,_ZN7testing8internal15TestFactoryImplI34AebDecelTest_TC_AEB_DEC_BV_04_TestE10CreateTestEv
FN:456,_ZN7testing8internal15TestFactoryImplI34AebDecelTest_TC_AEB_DEC_BV_03_TestE10CreateTestEv
FNDA:1,_ZN7testing8internal15TestFactoryImplI34AebDecelTest_TC_AEB_DEC_BV_03_TestE10CreateTestEv
FN:456,_ZN7testing8internal15TestFactoryImplI34AebDecelTest_TC_AEB_DEC_BV_02_TestE10CreateTestEv
FNDA:1,_ZN7testing8internal15TestFactoryImplI34AebDecelTest_TC_AEB_DEC_BV_02_TestE10CreateTestEv
FN:456,_ZN7testing8internal15TestFactoryImplI34AebDecelTest_TC_AEB_DEC_BV_01_TestE10CreateTestEv
FNDA:1,_ZN7testing8internal15TestFactoryImplI34AebDecelTest_TC_AEB_DEC_BV_01_TestE10CreateTestEv
FN:456,_ZN7testing8internal15TestFactoryImplI34AebDecelTest_TC_AEB_DEC_EQ_20_TestE10CreateTestEv
FNDA:1,_ZN7testing8internal15TestFactoryImplI34AebDecelTest_TC_AEB_DEC_EQ_20_TestE10CreateTestEv
FN:477,_ZN7testing8internal12CodeLocationC1ENSt7__cxx1112basic_stringIcSt11char_traitsIcESaIcEEEi
FNDA:0,_ZN7testing8internal12CodeLocationC1ENSt7__cxx1112basic_stringIcSt11char_traitsIcESaIcEEEi
FN:490,_ZN7testing8internal19GetNotDefaultOrNullEPFvvES2_
FNDA:0,_ZN7testing8internal19GetNotDefaultOrNullEPFvvES2_
FN:505,_ZN7testing8internal16SuiteApiResolverI12AebDecelTestE19GetSetUpCaseOrSuiteEPKci
FNDA:120,_ZN7testing8internal16SuiteApiResolverI12AebDecelTestE19GetSetUpCaseOrSuiteEPKci
FN:526,_ZN7testing8internal16SuiteApiResolverI12AebDecelTestE22GetTearDownCaseOrSuiteEPKci
FNDA:120,_ZN7testing8internal16SuiteApiResolverI12AebDecelTestE22GetTearDownCaseOrSuiteEPKci
FNF:74
FNH:63
DA:293,0
DA:315,0
DA:318,0
DA:324,0
DA:327,0
DA:336,0
DA:339,0
DA:341,0
DA:342,0
DA:367,0
DA:368,0
DA:370,0
DA:373,0
DA:379,0
DA:381,0
DA:382,0
DA:383,0
DA:418,120
DA:423,120
DA:437,0
DA:444,0
DA:456,1
DA:456,1
DA:456,1
DA:456,1
DA:456,1
DA:456,1
DA:456,1
DA:456,1
DA:456,1
DA:456,1
DA:456,1
DA:456,1
DA:456,1
DA:456,1
DA:456,1
DA:456,1
DA:456,1
DA:456,1
DA:456,1
DA:456,1
DA:456,1
DA:456,1
DA:456,1
DA:456,1
DA:456,1
DA:456,1
DA:456,1
DA:456,1
DA:456,1
DA:456,1
DA:456,1
DA:456,1
DA:456,1
DA:456,1
DA:456,1
DA:456,1
DA:456,1
DA:456,1
DA:456,1
DA:456,1
DA:456,1
DA:456,1
DA:456,1
DA:456,1
DA:456,1
DA:456,1
DA:456,1
DA:456,1
DA:456,1
DA:456,1
DA:456,1
DA:456,1
DA:456,1
DA:456,1
DA:456,1
DA:456,1
DA:456,1
DA:456,1
DA:456,1
DA:456,1
DA:477,0
DA:478,0
DA:490,0
DA:492,0
DA:505,120
DA:509,120
DA:511,120
DA:513,120
DA:516,0
DA:518,120
DA:526,120
DA:530,120
DA:532,120
DA:534,120
DA:537,0
DA:539,120
LF:97
LH:72
end_of_record
SF:C:/msys64/mingw64/include/c++/14.2.0/x86_64-w64-mingw32/bits/c++config.h
DA:550,0
LF:1
LH:0
end_of_record
SF:C:/msys64/mingw64/include/c++/14.2.0/bits/stl_iterator_base_funcs.h
DA:106,0
DA:151,0
DA:152,0
LF:3
LH:0
end_of_record
SF:C:/msys64/mingw64/include/c++/14.2.0/bits/move.h
FN:126,_ZSt4moveIRPNSt7__cxx1112basic_stringIcSt11char_traitsIcESaIcEEEEONSt16remove_referenceIT_E4typeEOS9_
FNDA:0,_ZSt4moveIRPNSt7__cxx1112basic_stringIcSt11char_traitsIcESaIcEEEEONSt16remove_referenceIT_E4typeEOS9_
FN:126,_ZSt4moveIRPNSt7__cxx1118basic_stringstreamIcSt11char_traitsIcESaIcEEEEONSt16remove_referenceIT_E4typeEOS9_
FNDA:0,_ZSt4moveIRPNSt7__cxx1118basic_stringstreamIcSt11char_traitsIcESaIcEEEEONSt16remove_referenceIT_E4typeEOS9_
FN:126,_ZSt4moveIRSaIcEEONSt16remove_referenceIT_E4typeEOS3_
FNDA:0,_ZSt4moveIRSaIcEEONSt16remove_referenceIT_E4typeEOS3_
FN:126,_ZSt4moveIRNSt7__cxx1112basic_stringIcSt11char_traitsIcESaIcEEEEONSt16remove_referenceIT_E4typeEOS8_
FNDA:0,_ZSt4moveIRNSt7__cxx1112basic_stringIcSt11char_traitsIcESaIcEEEEONSt16remove_referenceIT_E4typeEOS8_
FNF:4
FNH:0
DA:126,0
DA:127,0
DA:126,0
DA:127,0
DA:126,0
DA:127,0
DA:126,0
DA:127,0
LF:8
LH:0
end_of_record
SF:C:/msys64/mingw64/include/c++/14.2.0/bits/unique_ptr.h
FN:87,_ZNKSt14default_deleteINSt7__cxx1112basic_stringIcSt11char_traitsIcESaIcEEEEclEPS5_
FNDA:0,_ZNKSt14default_deleteINSt7__cxx1112basic_stringIcSt11char_traitsIcESaIcEEEEclEPS5_
FN:87,_ZNKSt14default_deleteINSt7__cxx1118basic_stringstreamIcSt11char_traitsIcESaIcEEEEclEPS5_
FNDA:0,_ZNKSt14default_deleteINSt7__cxx1118basic_stringstreamIcSt11char_traitsIcESaIcEEEEclEPS5_
FN:191,_ZNSt15__uniq_ptr_implINSt7__cxx1112basic_stringIcSt11char_traitsIcESaIcEEESt14default_deleteIS5_EE6_M_ptrEv
FNDA:0,_ZNSt15__uniq_ptr_implINSt7__cxx1112basic_stringIcSt11char_traitsIcESaIcEEESt14default_deleteIS5_EE6_M_ptrEv
FN:191,_ZNSt15__uniq_ptr_implINSt7__cxx1118basic_stringstreamIcSt11char_traitsIcESaIcEEESt14default_deleteIS5_EE6_M_ptrEv
FNDA:0,_ZNSt15__uniq_ptr_implINSt7__cxx1118basic_stringstreamIcSt11char_traitsIcESaIcEEESt14default_deleteIS5_EE6_M_ptrEv
FN:193,_ZNKSt15__uniq_ptr_implINSt7__cxx1112basic_stringIcSt11char_traitsIcESaIcEEESt14default_deleteIS5_EE6_M_ptrEv
FNDA:0,_ZNKSt15__uniq_ptr_implINSt7__cxx1112basic_stringIcSt11char_traitsIcESaIcEEESt14default_deleteIS5_EE6_M_ptrEv
FN:195,_ZNSt15__uniq_ptr_implINSt7__cxx1118basic_stringstreamIcSt11char_traitsIcESaIcEEESt14default_deleteIS5_EE10_M_deleterEv
FNDA:0,_ZNSt15__uniq_ptr_implINSt7__cxx1118basic_stringstreamIcSt11char_traitsIcESaIcEEESt14default_deleteIS5_EE10_M_deleterEv
FN:195,_ZNSt15__uniq_ptr_implINSt7__cxx1112basic_stringIcSt11char_traitsIcESaIcEEESt14default_deleteIS5_EE10_M_deleterEv
FNDA:0,_ZNSt15__uniq_ptr_implINSt7__cxx1112basic_stringIcSt11char_traitsIcESaIcEEESt14default_deleteIS5_EE10_M_deleterEv
FN:392,_ZNSt10unique_ptrINSt7__cxx1112basic_stringIcSt11char_traitsIcESaIcEEESt14default_deleteIS5_EED1Ev
FNDA:0,_ZNSt10unique_ptrINSt7__cxx1112basic_stringIcSt11char_traitsIcESaIcEEESt14default_deleteIS5_EED1Ev
FN:392,_ZNSt10unique_ptrINSt7__cxx1118basic_stringstreamIcSt11char_traitsIcESaIcEEESt14default_deleteIS5_EED1Ev
FNDA:0,_ZNSt10unique_ptrINSt7__cxx1118basic_stringstreamIcSt11char_traitsIcESaIcEEESt14default_deleteIS5_EED1Ev
FN:454,_ZNKSt10unique_ptrINSt7__cxx1112basic_stringIcSt11char_traitsIcESaIcEEESt14default_deleteIS5_EEptEv
FNDA:0,_ZNKSt10unique_ptrINSt7__cxx1112basic_stringIcSt11char_traitsIcESaIcEEESt14default_deleteIS5_EEptEv
FN:463,_ZNKSt10unique_ptrINSt7__cxx1112basic_stringIcSt11char_traitsIcESaIcEEESt14default_deleteIS5_EE3getEv
FNDA:0,_ZNKSt10unique_ptrINSt7__cxx1112basic_stringIcSt11char_traitsIcESaIcEEESt14default_deleteIS5_EE3getEv
FN:469,_ZNSt10unique_ptrINSt7__cxx1112basic_stringIcSt11char_traitsIcESaIcEEESt14default_deleteIS5_EE11get_deleterEv
FNDA:0,_ZNSt10unique_ptrINSt7__cxx1112basic_stringIcSt11char_traitsIcESaIcEEESt14default_deleteIS5_EE11get_deleterEv
FN:469,_ZNSt10unique_ptrINSt7__cxx1118basic_stringstreamIcSt11char_traitsIcESaIcEEESt14default_deleteIS5_EE11get_deleterEv
FNDA:0,_ZNSt10unique_ptrINSt7__cxx1118basic_stringstreamIcSt11char_traitsIcESaIcEEESt14default_deleteIS5_EE11get_deleterEv
FN:480,_ZNKSt10unique_ptrINSt7__cxx1112basic_stringIcSt11char_traitsIcESaIcEEESt14default_deleteIS5_EEcvbEv
FNDA:0,_ZNKSt10unique_ptrINSt7__cxx1112basic_stringIcSt11char_traitsIcESaIcEEESt14default_deleteIS5_EEcvbEv
FN:869,_ZStneINSt7__cxx1112basic_stringIcSt11char_traitsIcESaIcEEESt14default_deleteIS5_EEbRKSt10unique_ptrIT_T0_EDn
FNDA:0,_ZStneINSt7__cxx1112basic_stringIcSt11char_traitsIcESaIcEEESt14default_deleteIS5_EEbRKSt10unique_ptrIT_T0_EDn
FNF:15
FNH:0
DA:87,0
DA:93,0
DA:94,0
DA:87,0
DA:93,0
DA:94,0
DA:191,0
DA:191,0
DA:193,0
DA:195,0
DA:195,0
DA:392,0
DA:396,0
DA:397,0
DA:398,0
DA:399,0
DA:400,0
DA:392,0
DA:396,0
DA:397,0
DA:398,0
DA:399,0
DA:400,0
DA:454,0
DA:457,0
DA:463,0
DA:464,0
DA:469,0
DA:470,0
DA:469,0
DA:470,0
DA:480,0
DA:481,0
DA:869,0
DA:870,0
LF:35
LH:0
end_of_record
SF:C:/msys64/mingw64/include/c++/14.2.0/bits/ios_base.h
FN:761,_ZNSt8ios_base9precisionEx
FNDA:0,_ZNSt8ios_base9precisionEx
FNF:1
FNH:0
DA:761,0
DA:763,0
DA:764,0
DA:765,0
LF:4
LH:0
end_of_record
SF:C:/Projects/GoogleTestProject/aeb_decel_test.cpp
FN:17,_ZL7makeTtcfff
FNDA:105,_ZL7makeTtcfff
FN:31,_ZN12AebDecelTest5SetUpEv
FNDA:60,_ZN12AebDecelTest5SetUpEv
FN:36,_ZN12AebDecelTest4callE10AEB_Mode_e
FNDA:58,_ZN12AebDecelTest4callE10AEB_Mode_e
FN:45,_ZN34AebDecelTest_TC_AEB_DEC_EQ_01_TestC1Ev
FNDA:1,_ZN34AebDecelTest_TC_AEB_DEC_EQ_01_TestC1Ev
FN:45,_ZN34AebDecelTest_TC_AEB_DEC_EQ_01_Test8TestBodyEv
FNDA:1,_ZN34AebDecelTest_TC_AEB_DEC_EQ_01_Test8TestBodyEv
FN:45,_ZN34AebDecelTest_TC_AEB_DEC_EQ_01_TestD1Ev
FNDA:1,_ZN34AebDecelTest_TC_AEB_DEC_EQ_01_TestD1Ev
FN:45,_ZN34AebDecelTest_TC_AEB_DEC_EQ_01_TestD0Ev
FNDA:1,_ZN34AebDecelTest_TC_AEB_DEC_EQ_01_TestD0Ev
FN:50,_ZN34AebDecelTest_TC_AEB_DEC_EQ_02_TestC1Ev
FNDA:1,_ZN34AebDecelTest_TC_AEB_DEC_EQ_02_TestC1Ev
FN:50,_ZN34AebDecelTest_TC_AEB_DEC_EQ_02_Test8TestBodyEv
FNDA:1,_ZN34AebDecelTest_TC_AEB_DEC_EQ_02_Test8TestBodyEv
FN:50,_ZN34AebDecelTest_TC_AEB_DEC_EQ_02_TestD1Ev
FNDA:1,_ZN34AebDecelTest_TC_AEB_DEC_EQ_02_TestD1Ev
FN:50,_ZN34AebDecelTest_TC_AEB_DEC_EQ_02_TestD0Ev
FNDA:1,_ZN34AebDecelTest_TC_AEB_DEC_EQ_02_TestD0Ev
FN:55,_ZN34AebDecelTest_TC_AEB_DEC_EQ_03_TestC1Ev
FNDA:1,_ZN34AebDecelTest_TC_AEB_DEC_EQ_03_TestC1Ev
FN:55,_ZN34AebDecelTest_TC_AEB_DEC_EQ_03_Test8TestBodyEv
FNDA:1,_ZN34AebDecelTest_TC_AEB_DEC_EQ_03_Test8TestBodyEv
FN:55,_ZN34AebDecelTest_TC_AEB_DEC_EQ_03_TestD1Ev
FNDA:1,_ZN34AebDecelTest_TC_AEB_DEC_EQ_03_TestD1Ev
FN:55,_ZN34AebDecelTest_TC_AEB_DEC_EQ_03_TestD0Ev
FNDA:1,_ZN34AebDecelTest_TC_AEB_DEC_EQ_03_TestD0Ev
FN:61,_ZN34AebDecelTest_TC_AEB_DEC_EQ_04_TestC1Ev
FNDA:1,_ZN34AebDecelTest_TC_AEB_DEC_EQ_04_TestC1Ev
FN:61,_ZN34AebDecelTest_TC_AEB_DEC_EQ_04_TestD1Ev
FNDA:1,_ZN34AebDecelTest_TC_AEB_DEC_EQ_04_TestD1Ev
FN:61,_ZN34AebDecelTest_TC_AEB_DEC_EQ_04_TestD0Ev
FNDA:1,_ZN34AebDecelTest_TC_AEB_DEC_EQ_04_TestD0Ev
FN:61,_ZN34AebDecelTest_TC_AEB_DEC_EQ_04_Test8TestBodyEv
FNDA:1,_ZN34AebDecelTest_TC_AEB_DEC_EQ_04_Test8TestBodyEv
FN:67,_ZN34AebDecelTest_TC_AEB_DEC_EQ_05_TestD0Ev
FNDA:1,_ZN34AebDecelTest_TC_AEB_DEC_EQ_05_TestD0Ev
FN:67,_ZN34AebDecelTest_TC_AEB_DEC_EQ_05_TestC1Ev
FNDA:1,_ZN34AebDecelTest_TC_AEB_DEC_EQ_05_TestC1Ev
FN:67,_ZN34AebDecelTest_TC_AEB_DEC_EQ_05_Test8TestBodyEv
FNDA:1,_ZN34AebDecelTest_TC_AEB_DEC_EQ_05_Test8TestBodyEv
FN:67,_ZN34AebDecelTest_TC_AEB_DEC_EQ_05_TestD1Ev
FNDA:1,_ZN34AebDecelTest_TC_AEB_DEC_EQ_05_TestD1Ev
FN:73,_ZN34AebDecelTest_TC_AEB_DEC_EQ_06_TestD0Ev
FNDA:1,_ZN34AebDecelTest_TC_AEB_DEC_EQ_06_TestD0Ev
FN:73,_ZN34AebDecelTest_TC_AEB_DEC_EQ_06_TestD1Ev
FNDA:1,_ZN34AebDecelTest_TC_AEB_DEC_EQ_06_TestD1Ev
FN:73,_ZN34AebDecelTest_TC_AEB_DEC_EQ_06_Test8TestBodyEv
FNDA:1,_ZN34AebDecelTest_TC_AEB_DEC_EQ_06_Test8TestBodyEv
FN:73,_ZN34AebDecelTest_TC_AEB_DEC_EQ_06_TestC1Ev
FNDA:1,_ZN34AebDecelTest_TC_AEB_DEC_EQ_06_TestC1Ev
FN:79,_ZN34AebDecelTest_TC_AEB_DEC_EQ_07_TestD0Ev
FNDA:1,_ZN34AebDecelTest_TC_AEB_DEC_EQ_07_TestD0Ev
FN:79,_ZN34AebDecelTest_TC_AEB_DEC_EQ_07_TestD1Ev
FNDA:1,_ZN34AebDecelTest_TC_AEB_DEC_EQ_07_TestD1Ev
FN:79,_ZN34AebDecelTest_TC_AEB_DEC_EQ_07_Test8TestBodyEv
FNDA:1,_ZN34AebDecelTest_TC_AEB_DEC_EQ_07_Test8TestBodyEv
FN:79,_ZN34AebDecelTest_TC_AEB_DEC_EQ_07_TestC1Ev
FNDA:1,_ZN34AebDecelTest_TC_AEB_DEC_EQ_07_TestC1Ev
FN:85,_ZN34AebDecelTest_TC_AEB_DEC_EQ_08_TestD0Ev
FNDA:1,_ZN34AebDecelTest_TC_AEB_DEC_EQ_08_TestD0Ev
FN:85,_ZN34AebDecelTest_TC_AEB_DEC_EQ_08_TestD1Ev
FNDA:1,_ZN34AebDecelTest_TC_AEB_DEC_EQ_08_TestD1Ev
FN:85,_ZN34AebDecelTest_TC_AEB_DEC_EQ_08_TestC1Ev
FNDA:1,_ZN34AebDecelTest_TC_AEB_DEC_EQ_08_TestC1Ev
FN:85,_ZN34AebDecelTest_TC_AEB_DEC_EQ_08_Test8TestBodyEv
FNDA:1,_ZN34AebDecelTest_TC_AEB_DEC_EQ_08_Test8TestBodyEv
FN:91,_ZN34AebDecelTest_TC_AEB_DEC_EQ_09_TestD1Ev
FNDA:1,_ZN34AebDecelTest_TC_AEB_DEC_EQ_09_TestD1Ev
FN:91,_ZN34AebDecelTest_TC_AEB_DEC_EQ_09_TestD0Ev
FNDA:1,_ZN34AebDecelTest_TC_AEB_DEC_EQ_09_TestD0Ev
FN:91,_ZN34AebDecelTest_TC_AEB_DEC_EQ_09_TestC1Ev
FNDA:1,_ZN34AebDecelTest_TC_AEB_DEC_EQ_09_TestC1Ev
FN:91,_ZN34AebDecelTest_TC_AEB_DEC_EQ_09_Test8TestBodyEv
FNDA:1,_ZN34AebDecelTest_TC_AEB_DEC_EQ_09_Test8TestBodyEv
FN:97,_ZN34AebDecelTest_TC_AEB_DEC_EQ_10_TestD1Ev
FNDA:1,_ZN34AebDecelTest_TC_AEB_DEC_EQ_10_TestD1Ev
FN:97,_ZN34AebDecelTest_TC_AEB_DEC_EQ_10_TestD0Ev
FNDA:1,_ZN34AebDecelTest_TC_AEB_DEC_EQ_10_TestD0Ev
FN:97,_ZN34AebDecelTest_TC_AEB_DEC_EQ_10_TestC1Ev
FNDA:1,_ZN34AebDecelTest_TC_AEB_DEC_EQ_10_TestC1Ev
FN:97,_ZN34AebDecelTest_TC_AEB_DEC_EQ_10_Test8TestBodyEv
FNDA:1,_ZN34AebDecelTest_TC_AEB_DEC_EQ_10_Test8TestBodyEv
FN:103,_ZN34AebDecelTest_TC_AEB_DEC_EQ_11_TestD1Ev
FNDA:1,_ZN34AebDecelTest_TC_AEB_DEC_EQ_11_TestD1Ev
FN:103,_ZN34AebDecelTest_TC_AEB_DEC_EQ_11_TestC1Ev
FNDA:1,_ZN34AebDecelTest_TC_AEB_DEC_EQ_11_TestC1Ev
FN:103,_ZN34AebDecelTest_TC_AEB_DEC_EQ_11_TestD0Ev
FNDA:1,_ZN34AebDecelTest_TC_AEB_DEC_EQ_11_TestD0Ev
FN:103,_ZN34AebDecelTest_TC_AEB_DEC_EQ_11_Test8TestBodyEv
FNDA:1,_ZN34AebDecelTest_TC_AEB_DEC_EQ_11_Test8TestBodyEv
FN:109,_ZN34AebDecelTest_TC_AEB_DEC_EQ_12_TestD0Ev
FNDA:1,_ZN34AebDecelTest_TC_AEB_DEC_EQ_12_TestD0Ev
FN:109,_ZN34AebDecelTest_TC_AEB_DEC_EQ_12_TestD1Ev
FNDA:1,_ZN34AebDecelTest_TC_AEB_DEC_EQ_12_TestD1Ev
FN:109,_ZN34AebDecelTest_TC_AEB_DEC_EQ_12_Test8TestBodyEv
FNDA:1,_ZN34AebDecelTest_TC_AEB_DEC_EQ_12_Test8TestBodyEv
FN:109,_ZN34AebDecelTest_TC_AEB_DEC_EQ_12_TestC1Ev
FNDA:1,_ZN34AebDecelTest_TC_AEB_DEC_EQ_12_TestC1Ev
FN:115,_ZN34AebDecelTest_TC_AEB_DEC_EQ_13_TestC1Ev
FNDA:1,_ZN34AebDecelTest_TC_AEB_DEC_EQ_13_TestC1Ev
FN:115,_ZN34AebDecelTest_TC_AEB_DEC_EQ_13_TestD0Ev
FNDA:1,_ZN34AebDecelTest_TC_AEB_DEC_EQ_13_TestD0Ev
FN:115,_ZN34AebDecelTest_TC_AEB_DEC_EQ_13_TestD1Ev
FNDA:1,_ZN34AebDecelTest_TC_AEB_DEC_EQ_13_TestD1Ev
FN:115,_ZN34AebDecelTest_TC_AEB_DEC_EQ_13_Test8TestBodyEv
FNDA:1,_ZN34AebDecelTest_TC_AEB_DEC_EQ_13_Test8TestBodyEv
FN:121,_ZN34AebDecelTest_TC_AEB_DEC_EQ_14_TestC1Ev
FNDA:1,_ZN34AebDecelTest_TC_AEB_DEC_EQ_14_TestC1Ev
FN:121,_ZN34AebDecelTest_TC_AEB_DEC_EQ_14_Test8TestBodyEv
FNDA:1,_ZN34AebDecelTest_TC_AEB_DEC_EQ_14_Test8TestBodyEv
FN:121,_ZN34AebDecelTest_TC_AEB_DEC_EQ_14_TestD1Ev
FNDA:1,_ZN34AebDecelTest_TC_AEB_DEC_EQ_14_TestD1Ev
FN:121,_ZN34AebDecelTest_TC_AEB_DEC_EQ_14_TestD0Ev
FNDA:1,_ZN34AebDecelTest_TC_AEB_DEC_EQ_14_TestD0Ev
FN:127,_ZN34AebDecelTest_TC_AEB_DEC_EQ_15_TestD0Ev
FNDA:1,_ZN34AebDecelTest_TC_AEB_DEC_EQ_15_TestD0Ev
FN:127,_ZN34AebDecelTest_TC_AEB_DEC_EQ_15_Test8TestBodyEv
FNDA:1,_ZN34AebDecelTest_TC_AEB_DEC_EQ_15_Test8TestBodyEv
FN:127,_ZN34AebDecelTest_TC_AEB_DEC_EQ_15_TestD1Ev
FNDA:1,_ZN34AebDecelTest_TC_AEB_DEC_EQ_15_TestD1Ev
FN:127,_ZN34AebDecelTest_TC_AEB_DEC_EQ_15_TestC1Ev
FNDA:1,_ZN34AebDecelTest_TC_AEB_DEC_EQ_15_TestC1Ev
FN:132,_ZN34AebDecelTest_TC_AEB_DEC_EQ_16_Test8TestBodyEv
FNDA:1,_ZN34AebDecelTest_TC_AEB_DEC_EQ_16_Test8TestBodyEv
FN:132,_ZN34AebDecelTest_TC_AEB_DEC_EQ_16_TestC1Ev
FNDA:1,_ZN34AebDecelTest_TC_AEB_DEC_EQ_16_TestC1Ev
FN:132,_ZN34AebDecelTest_TC_AEB_DEC_EQ_16_TestD0Ev
FNDA:1,_ZN34AebDecelTest_TC_AEB_DEC_EQ_16_TestD0Ev
FN:132,_ZN34AebDecelTest_TC_AEB_DEC_EQ_16_TestD1Ev
FNDA:1,_ZN34AebDecelTest_TC_AEB_DEC_EQ_16_TestD1Ev
FN:138,_ZN34AebDecelTest_TC_AEB_DEC_EQ_17_TestD1Ev
FNDA:1,_ZN34AebDecelTest_TC_AEB_DEC_EQ_17_TestD1Ev
FN:138,_ZN34AebDecelTest_TC_AEB_DEC_EQ_17_Test8TestBodyEv
FNDA:1,_ZN34AebDecelTest_TC_AEB_DEC_EQ_17_Test8TestBodyEv
FN:138,_ZN34AebDecelTest_TC_AEB_DEC_EQ_17_TestC1Ev
FNDA:1,_ZN34AebDecelTest_TC_AEB_DEC_EQ_17_TestC1Ev
FN:138,_ZN34AebDecelTest_TC_AEB_DEC_EQ_17_TestD0Ev
FNDA:1,_ZN34AebDecelTest_TC_AEB_DEC_EQ_17_TestD0Ev
FN:144,_ZN34AebDecelTest_TC_AEB_DEC_EQ_18_TestD1Ev
FNDA:1,_ZN34AebDecelTest_TC_AEB_DEC_EQ_18_TestD1Ev
FN:144,_ZN34AebDecelTest_TC_AEB_DEC_EQ_18_TestD0Ev
FNDA:1,_ZN34AebDecelTest_TC_AEB_DEC_EQ_18_TestD0Ev
FN:144,_ZN34AebDecelTest_TC_AEB_DEC_EQ_18_TestC1Ev
FNDA:1,_ZN34AebDecelTest_TC_AEB_DEC_EQ_18_TestC1Ev
FN:144,_ZN34AebDecelTest_TC_AEB_DEC_EQ_18_Test8TestBodyEv
FNDA:1,_ZN34AebDecelTest_TC_AEB_DEC_EQ_18_Test8TestBodyEv
FN:150,_ZN34AebDecelTest_TC_AEB_DEC_EQ_19_TestD0Ev
FNDA:1,_ZN34AebDecelTest_TC_AEB_DEC_EQ_19_TestD0Ev
FN:150,_ZN34AebDecelTest_TC_AEB_DEC_EQ_19_TestD1Ev
FNDA:1,_ZN34AebDecelTest_TC_AEB_DEC_EQ_19_TestD1Ev
FN:150,_ZN34AebDecelTest_TC_AEB_DEC_EQ_19_TestC1Ev
FNDA:1,_ZN34AebDecelTest_TC_AEB_DEC_EQ_19_TestC1Ev
FN:150,_ZN34AebDecelTest_TC_AEB_DEC_EQ_19_Test8TestBodyEv
FNDA:1,_ZN34AebDecelTest_TC_AEB_DEC_EQ_19_Test8TestBodyEv
FN:156,_ZN34AebDecelTest_TC_AEB_DEC_EQ_20_TestD0Ev
FNDA:1,_ZN34AebDecelTest_TC_AEB_DEC_EQ_20_TestD0Ev
FN:156,_ZN34AebDecelTest_TC_AEB_DEC_EQ_20_TestD1Ev
FNDA:1,_ZN34AebDecelTest_TC_AEB_DEC_EQ_20_TestD1Ev
FN:156,_ZN34AebDecelTest_TC_AEB_DEC_EQ_20_Test8TestBodyEv
FNDA:1,_ZN34AebDecelTest_TC_AEB_DEC_EQ_20_Test8TestBodyEv
FN:156,_ZN34AebDecelTest_TC_AEB_DEC_EQ_20_TestC1Ev
FNDA:1,_ZN34AebDecelTest_TC_AEB_DEC_EQ_20_TestC1Ev
FN:165,_ZN34AebDecelTest_TC_AEB_DEC_BV_01_TestC1Ev
FNDA:1,_ZN34AebDecelTest_TC_AEB_DEC_BV_01_TestC1Ev
FN:165,_ZN34AebDecelTest_TC_AEB_DEC_BV_01_TestD0Ev
FNDA:1,_ZN34AebDecelTest_TC_AEB_DEC_BV_01_TestD0Ev
FN:165,_ZN34AebDecelTest_TC_AEB_DEC_BV_01_TestD1Ev
FNDA:1,_ZN34AebDecelTest_TC_AEB_DEC_BV_01_TestD1Ev
FN:165,_ZN34AebDecelTest_TC_AEB_DEC_BV_01_Test8TestBodyEv
FNDA:1,_ZN34AebDecelTest_TC_AEB_DEC_BV_01_Test8TestBodyEv
FN:171,_ZN34AebDecelTest_TC_AEB_DEC_BV_02_Test8TestBodyEv
FNDA:1,_ZN34AebDecelTest_TC_AEB_DEC_BV_02_Test8TestBodyEv
FN:171,_ZN34AebDecelTest_TC_AEB_DEC_BV_02_TestC1Ev
FNDA:1,_ZN34AebDecelTest_TC_AEB_DEC_BV_02_TestC1Ev
FN:171,_ZN34AebDecelTest_TC_AEB_DEC_BV_02_TestD1Ev
FNDA:1,_ZN34AebDecelTest_TC_AEB_DEC_BV_02_TestD1Ev
FN:171,_ZN34AebDecelTest_TC_AEB_DEC_BV_02_TestD0Ev
FNDA:1,_ZN34AebDecelTest_TC_AEB_DEC_BV_02_TestD0Ev
FN:177,_ZN34AebDecelTest_TC_AEB_DEC_BV_03_TestC1Ev
FNDA:1,_ZN34AebDecelTest_TC_AEB_DEC_BV_03_TestC1Ev
FN:177,_ZN34AebDecelTest_TC_AEB_DEC_BV_03_Test8TestBodyEv
FNDA:1,_ZN34AebDecelTest_TC_AEB_DEC_BV_03_Test8TestBodyEv
FN:177,_ZN34AebDecelTest_TC_AEB_DEC_BV_03_TestD0Ev
FNDA:1,_ZN34AebDecelTest_TC_AEB_DEC_BV_03_TestD0Ev
FN:177,_ZN34AebDecelTest_TC_AEB_DEC_BV_03_TestD1Ev
FNDA:1,_ZN34AebDecelTest_TC_AEB_DEC_BV_03_TestD1Ev
FN:183,_ZN34AebDecelTest_TC_AEB_DEC_BV_04_TestD1Ev
FNDA:1,_ZN34AebDecelTest_TC_AEB_DEC_BV_04_TestD1Ev
FN:183,_ZN34AebDecelTest_TC_AEB_DEC_BV_04_TestD0Ev
FNDA:1,_ZN34AebDecelTest_TC_AEB_DEC_BV_04_TestD0Ev
FN:183,_ZN34AebDecelTest_TC_AEB_DEC_BV_04_TestC1Ev
FNDA:1,_ZN34AebDecelTest_TC_AEB_DEC_BV_04_TestC1Ev
FN:183,_ZN34AebDecelTest_TC_AEB_DEC_BV_04_Test8TestBodyEv
FNDA:1,_ZN34AebDecelTest_TC_AEB_DEC_BV_04_Test8TestBodyEv
FN:189,_ZN34AebDecelTest_TC_AEB_DEC_BV_05_Test8TestBodyEv
FNDA:1,_ZN34AebDecelTest_TC_AEB_DEC_BV_05_Test8TestBodyEv
FN:189,_ZN34AebDecelTest_TC_AEB_DEC_BV_05_TestD1Ev
FNDA:1,_ZN34AebDecelTest_TC_AEB_DEC_BV_05_TestD1Ev
FN:189,_ZN34AebDecelTest_TC_AEB_DEC_BV_05_TestD0Ev
FNDA:1,_ZN34AebDecelTest_TC_AEB_DEC_BV_05_TestD0Ev
FN:189,_ZN34AebDecelTest_TC_AEB_DEC_BV_05_TestC1Ev
FNDA:1,_ZN34AebDecelTest_TC_AEB_DEC_BV_05_TestC1Ev
FN:195,_ZN34AebDecelTest_TC_AEB_DEC_BV_06_Test8TestBodyEv
FNDA:1,_ZN34AebDecelTest_TC_AEB_DEC_BV_06_Test8TestBodyEv
FN:195,_ZN34AebDecelTest_TC_AEB_DEC_BV_06_TestD1Ev
FNDA:1,_ZN34AebDecelTest_TC_AEB_DEC_BV_06_TestD1Ev
FN:195,_ZN34AebDecelTest_TC_AEB_DEC_BV_06_TestD0Ev
FNDA:1,_ZN34AebDecelTest_TC_AEB_DEC_BV_06_TestD0Ev
FN:195,_ZN34AebDecelTest_TC_AEB_DEC_BV_06_TestC1Ev
FNDA:1,_ZN34AebDecelTest_TC_AEB_DEC_BV_06_TestC1Ev
FN:201,_ZN34AebDecelTest_TC_AEB_DEC_BV_07_TestC1Ev
FNDA:1,_ZN34AebDecelTest_TC_AEB_DEC_BV_07_TestC1Ev
FN:201,_ZN34AebDecelTest_TC_AEB_DEC_BV_07_TestD0Ev
FNDA:1,_ZN34AebDecelTest_TC_AEB_DEC_BV_07_TestD0Ev
FN:201,_ZN34AebDecelTest_TC_AEB_DEC_BV_07_TestD1Ev
FNDA:1,_ZN34AebDecelTest_TC_AEB_DEC_BV_07_TestD1Ev
FN:201,_ZN34AebDecelTest_TC_AEB_DEC_BV_07_Test8TestBodyEv
FNDA:1,_ZN34AebDecelTest_TC_AEB_DEC_BV_07_Test8TestBodyEv
FN:207,_ZN34AebDecelTest_TC_AEB_DEC_BV_08_TestC1Ev
FNDA:1,_ZN34AebDecelTest_TC_AEB_DEC_BV_08_TestC1Ev
FN:207,_ZN34AebDecelTest_TC_AEB_DEC_BV_08_Test8TestBodyEv
FNDA:1,_ZN34AebDecelTest_TC_AEB_DEC_BV_08_Test8TestBodyEv
FN:207,_ZN34AebDecelTest_TC_AEB_DEC_BV_08_TestD0Ev
FNDA:1,_ZN34AebDecelTest_TC_AEB_DEC_BV_08_TestD0Ev
FN:207,_ZN34AebDecelTest_TC_AEB_DEC_BV_08_TestD1Ev
FNDA:1,_ZN34AebDecelTest_TC_AEB_DEC_BV_08_TestD1Ev
FN:213,_ZN34AebDecelTest_TC_AEB_DEC_BV_09_Test8TestBodyEv
FNDA:1,_ZN34AebDecelTest_TC_AEB_DEC_BV_09_Test8TestBodyEv
FN:213,_ZN34AebDecelTest_TC_AEB_DEC_BV_09_TestD0Ev
FNDA:1,_ZN34AebDecelTest_TC_AEB_DEC_BV_09_TestD0Ev
FN:213,_ZN34AebDecelTest_TC_AEB_DEC_BV_09_TestD1Ev
FNDA:1,_ZN34AebDecelTest_TC_AEB_DEC_BV_09_TestD1Ev
FN:213,_ZN34AebDecelTest_TC_AEB_DEC_BV_09_TestC1Ev
FNDA:1,_ZN34AebDecelTest_TC_AEB_DEC_BV_09_TestC1Ev
FN:219,_ZN34AebDecelTest_TC_AEB_DEC_BV_10_Test8TestBodyEv
FNDA:1,_ZN34AebDecelTest_TC_AEB_DEC_BV_10_Test8TestBodyEv
FN:219,_ZN34AebDecelTest_TC_AEB_DEC_BV_10_TestD0Ev
FNDA:1,_ZN34AebDecelTest_TC_AEB_DEC_BV_10_TestD0Ev
FN:219,_ZN34AebDecelTest_TC_AEB_DEC_BV_10_TestC1Ev
FNDA:1,_ZN34AebDecelTest_TC_AEB_DEC_BV_10_TestC1Ev
FN:219,_ZN34AebDecelTest_TC_AEB_DEC_BV_10_TestD1Ev
FNDA:1,_ZN34AebDecelTest_TC_AEB_DEC_BV_10_TestD1Ev
FN:225,_ZN34AebDecelTest_TC_AEB_DEC_BV_11_TestD1Ev
FNDA:1,_ZN34AebDecelTest_TC_AEB_DEC_BV_11_TestD1Ev
FN:225,_ZN34AebDecelTest_TC_AEB_DEC_BV_11_Test8TestBodyEv
FNDA:1,_ZN34AebDecelTest_TC_AEB_DEC_BV_11_Test8TestBodyEv
FN:225,_ZN34AebDecelTest_TC_AEB_DEC_BV_11_TestC1Ev
FNDA:1,_ZN34AebDecelTest_TC_AEB_DEC_BV_11_TestC1Ev
FN:225,_ZN34AebDecelTest_TC_AEB_DEC_BV_11_TestD0Ev
FNDA:1,_ZN34AebDecelTest_TC_AEB_DEC_BV_11_TestD0Ev
FN:231,_ZN34AebDecelTest_TC_AEB_DEC_BV_12_TestD0Ev
FNDA:1,_ZN34AebDecelTest_TC_AEB_DEC_BV_12_TestD0Ev
FN:231,_ZN34AebDecelTest_TC_AEB_DEC_BV_12_Test8TestBodyEv
FNDA:1,_ZN34AebDecelTest_TC_AEB_DEC_BV_12_Test8TestBodyEv
FN:231,_ZN34AebDecelTest_TC_AEB_DEC_BV_12_TestC1Ev
FNDA:1,_ZN34AebDecelTest_TC_AEB_DEC_BV_12_TestC1Ev
FN:231,_ZN34AebDecelTest_TC_AEB_DEC_BV_12_TestD1Ev
FNDA:1,_ZN34AebDecelTest_TC_AEB_DEC_BV_12_TestD1Ev
FN:237,_ZN34AebDecelTest_TC_AEB_DEC_BV_13_Test8TestBodyEv
FNDA:1,_ZN34AebDecelTest_TC_AEB_DEC_BV_13_Test8TestBodyEv
FN:237,_ZN34AebDecelTest_TC_AEB_DEC_BV_13_TestD0Ev
FNDA:1,_ZN34AebDecelTest_TC_AEB_DEC_BV_13_TestD0Ev
FN:237,_ZN34AebDecelTest_TC_AEB_DEC_BV_13_TestC1Ev
FNDA:1,_ZN34AebDecelTest_TC_AEB_DEC_BV_13_TestC1Ev
FN:237,_ZN34AebDecelTest_TC_AEB_DEC_BV_13_TestD1Ev
FNDA:1,_ZN34AebDecelTest_TC_AEB_DEC_BV_13_TestD1Ev
FN:243,_ZN34AebDecelTest_TC_AEB_DEC_BV_14_Test8TestBodyEv
FNDA:1,_ZN34AebDecelTest_TC_AEB_DEC_BV_14_Test8TestBodyEv
FN:243,_ZN34AebDecelTest_TC_AEB_DEC_BV_14_TestC1Ev
FNDA:1,_ZN34AebDecelTest_TC_AEB_DEC_BV_14_TestC1Ev
FN:243,_ZN34AebDecelTest_TC_AEB_DEC_BV_14_TestD0Ev
FNDA:1,_ZN34AebDecelTest_TC_AEB_DEC_BV_14_TestD0Ev
FN:243,_ZN34AebDecelTest_TC_AEB_DEC_BV_14_TestD1Ev
FNDA:1,_ZN34AebDecelTest_TC_AEB_DEC_BV_14_TestD1Ev
FN:249,_ZN34AebDecelTest_TC_AEB_DEC_BV_15_Test8TestBodyEv
FNDA:1,_ZN34AebDecelTest_TC_AEB_DEC_BV_15_Test8TestBodyEv
FN:249,_ZN34AebDecelTest_TC_AEB_DEC_BV_15_TestC1Ev
FNDA:1,_ZN34AebDecelTest_TC_AEB_DEC_BV_15_TestC1Ev
FN:249,_ZN34AebDecelTest_TC_AEB_DEC_BV_15_TestD0Ev
FNDA:1,_ZN34AebDecelTest_TC_AEB_DEC_BV_15_TestD0Ev
FN:249,_ZN34AebDecelTest_TC_AEB_DEC_BV_15_TestD1Ev
FNDA:1,_ZN34AebDecelTest_TC_AEB_DEC_BV_15_TestD1Ev
FN:255,_ZN34AebDecelTest_TC_AEB_DEC_BV_16_TestD1Ev
FNDA:1,_ZN34AebDecelTest_TC_AEB_DEC_BV_16_TestD1Ev
FN:255,_ZN34AebDecelTest_TC_AEB_DEC_BV_16_Test8TestBodyEv
FNDA:1,_ZN34AebDecelTest_TC_AEB_DEC_BV_16_Test8TestBodyEv
FN:255,_ZN34AebDecelTest_TC_AEB_DEC_BV_16_TestC1Ev
FNDA:1,_ZN34AebDecelTest_TC_AEB_DEC_BV_16_TestC1Ev
FN:255,_ZN34AebDecelTest_TC_AEB_DEC_BV_16_TestD0Ev
FNDA:1,_ZN34AebDecelTest_TC_AEB_DEC_BV_16_TestD0Ev
FN:261,_ZN34AebDecelTest_TC_AEB_DEC_BV_17_Test8TestBodyEv
FNDA:1,_ZN34AebDecelTest_TC_AEB_DEC_BV_17_Test8TestBodyEv
FN:261,_ZN34AebDecelTest_TC_AEB_DEC_BV_17_TestD0Ev
FNDA:1,_ZN34AebDecelTest_TC_AEB_DEC_BV_17_TestD0Ev
FN:261,_ZN34AebDecelTest_TC_AEB_DEC_BV_17_TestD1Ev
FNDA:1,_ZN34AebDecelTest_TC_AEB_DEC_BV_17_TestD1Ev
FN:261,_ZN34AebDecelTest_TC_AEB_DEC_BV_17_TestC1Ev
FNDA:1,_ZN34AebDecelTest_TC_AEB_DEC_BV_17_TestC1Ev
FN:267,_ZN34AebDecelTest_TC_AEB_DEC_BV_18_Test8TestBodyEv
FNDA:1,_ZN34AebDecelTest_TC_AEB_DEC_BV_18_Test8TestBodyEv
FN:267,_ZN34AebDecelTest_TC_AEB_DEC_BV_18_TestD0Ev
FNDA:1,_ZN34AebDecelTest_TC_AEB_DEC_BV_18_TestD0Ev
FN:267,_ZN34AebDecelTest_TC_AEB_DEC_BV_18_TestD1Ev
FNDA:1,_ZN34AebDecelTest_TC_AEB_DEC_BV_18_TestD1Ev
FN:267,_ZN34AebDecelTest_TC_AEB_DEC_BV_18_TestC1Ev
FNDA:1,_ZN34AebDecelTest_TC_AEB_DEC_BV_18_TestC1Ev
FN:273,_ZN34AebDecelTest_TC_AEB_DEC_BV_19_TestD0Ev
FNDA:1,_ZN34AebDecelTest_TC_AEB_DEC_BV_19_TestD0Ev
FN:273,_ZN34AebDecelTest_TC_AEB_DEC_BV_19_Test8TestBodyEv
FNDA:1,_ZN34AebDecelTest_TC_AEB_DEC_BV_19_Test8TestBodyEv
FN:273,_ZN34AebDecelTest_TC_AEB_DEC_BV_19_TestD1Ev
FNDA:1,_ZN34AebDecelTest_TC_AEB_DEC_BV_19_TestD1Ev
FN:273,_ZN34AebDecelTest_TC_AEB_DEC_BV_19_TestC1Ev
FNDA:1,_ZN34AebDecelTest_TC_AEB_DEC_BV_19_TestC1Ev
FN:279,_ZN34AebDecelTest_TC_AEB_DEC_BV_20_TestD1Ev
FNDA:1,_ZN34AebDecelTest_TC_AEB_DEC_BV_20_TestD1Ev
FN:279,_ZN34AebDecelTest_TC_AEB_DEC_BV_20_TestC1Ev
FNDA:1,_ZN34AebDecelTest_TC_AEB_DEC_BV_20_TestC1Ev
FN:279,_ZN34AebDecelTest_TC_AEB_DEC_BV_20_TestD0Ev
FNDA:1,_ZN34AebDecelTest_TC_AEB_DEC_BV_20_TestD0Ev
FN:279,_ZN34AebDecelTest_TC_AEB_DEC_BV_20_Test8TestBodyEv
FNDA:1,_ZN34AebDecelTest_TC_AEB_DEC_BV_20_Test8TestBodyEv
FN:288,_ZN34AebDecelTest_TC_AEB_DEC_RA_01_Test8TestBodyEv
FNDA:1,_ZN34AebDecelTest_TC_AEB_DEC_RA_01_Test8TestBodyEv
FN:288,_ZN34AebDecelTest_TC_AEB_DEC_RA_01_TestC1Ev
FNDA:1,_ZN34AebDecelTest_TC_AEB_DEC_RA_01_TestC1Ev
FN:288,_ZN34AebDecelTest_TC_AEB_DEC_RA_01_TestD0Ev
FNDA:1,_ZN34AebDecelTest_TC_AEB_DEC_RA_01_TestD0Ev
FN:288,_ZN34AebDecelTest_TC_AEB_DEC_RA_01_TestD1Ev
FNDA:1,_ZN34AebDecelTest_TC_AEB_DEC_RA_01_TestD1Ev
FN:289,_ZN34AebDecelTest_TC_AEB_DEC_RA_02_Test8TestBodyEv
FNDA:1,_ZN34AebDecelTest_TC_AEB_DEC_RA_02_Test8TestBodyEv
FN:289,_ZN34AebDecelTest_TC_AEB_DEC_RA_02_TestC1Ev
FNDA:1,_ZN34AebDecelTest_TC_AEB_DEC_RA_02_TestC1Ev
FN:289,_ZN34AebDecelTest_TC_AEB_DEC_RA_02_TestD0Ev
FNDA:1,_ZN34AebDecelTest_TC_AEB_DEC_RA_02_TestD0Ev
FN:289,_ZN34AebDecelTest_TC_AEB_DEC_RA_02_TestD1Ev
FNDA:1,_ZN34AebDecelTest_TC_AEB_DEC_RA_02_TestD1Ev
FN:291,_ZN34AebDecelTest_TC_AEB_DEC_RA_03_TestC1Ev
FNDA:1,_ZN34AebDecelTest_TC_AEB_DEC_RA_03_TestC1Ev
FN:291,_ZN34AebDecelTest_TC_AEB_DEC_RA_03_Test8TestBodyEv
FNDA:1,_ZN34AebDecelTest_TC_AEB_DEC_RA_03_Test8TestBodyEv
FN:291,_ZN34AebDecelTest_TC_AEB_DEC_RA_03_TestD0Ev
FNDA:1,_ZN34AebDecelTest_TC_AEB_DEC_RA_03_TestD0Ev
FN:291,_ZN34AebDecelTest_TC_AEB_DEC_RA_03_TestD1Ev
FNDA:1,_ZN34AebDecelTest_TC_AEB_DEC_RA_03_TestD1Ev
FN:297,_ZN34AebDecelTest_TC_AEB_DEC_RA_04_Test8TestBodyEv
FNDA:1,_ZN34AebDecelTest_TC_AEB_DEC_RA_04_Test8TestBodyEv
FN:297,_ZN34AebDecelTest_TC_AEB_DEC_RA_04_TestD1Ev
FNDA:1,_ZN34AebDecelTest_TC_AEB_DEC_RA_04_TestD1Ev
FN:297,_ZN34AebDecelTest_TC_AEB_DEC_RA_04_TestC1Ev
FNDA:1,_ZN34AebDecelTest_TC_AEB_DEC_RA_04_TestC1Ev
FN:297,_ZN34AebDecelTest_TC_AEB_DEC_RA_04_TestD0Ev
FNDA:1,_ZN34AebDecelTest_TC_AEB_DEC_RA_04_TestD0Ev
FN:303,_ZN34AebDecelTest_TC_AEB_DEC_RA_05_TestD1Ev
FNDA:1,_ZN34AebDecelTest_TC_AEB_DEC_RA_05_TestD1Ev
FN:303,_ZN34AebDecelTest_TC_AEB_DEC_RA_05_Test8TestBodyEv
FNDA:1,_ZN34AebDecelTest_TC_AEB_DEC_RA_05_Test8TestBodyEv
FN:303,_ZN34AebDecelTest_TC_AEB_DEC_RA_05_TestD0Ev
FNDA:1,_ZN34AebDecelTest_TC_AEB_DEC_RA_05_TestD0Ev
FN:303,_ZN34AebDecelTest_TC_AEB_DEC_RA_05_TestC1Ev
FNDA:1,_ZN34AebDecelTest_TC_AEB_DEC_RA_05_TestC1Ev
FN:309,_ZN34AebDecelTest_TC_AEB_DEC_RA_06_TestD0Ev
FNDA:1,_ZN34AebDecelTest_TC_AEB_DEC_RA_06_TestD0Ev
FN:309,_ZN34AebDecelTest_TC_AEB_DEC_RA_06_TestD1Ev
FNDA:1,_ZN34AebDecelTest_TC_AEB_DEC_RA_06_TestD1Ev
FN:309,_ZN34AebDecelTest_TC_AEB_DEC_RA_06_TestC1Ev
FNDA:1,_ZN34AebDecelTest_TC_AEB_DEC_RA_06_TestC1Ev
FN:309,_ZN34AebDecelTest_TC_AEB_DEC_RA_06_Test8TestBodyEv
FNDA:1,_ZN34AebDecelTest_TC_AEB_DEC_RA_06_Test8TestBodyEv
FN:315,_ZN34AebDecelTest_TC_AEB_DEC_RA_07_TestD1Ev
FNDA:1,_ZN34AebDecelTest_TC_AEB_DEC_RA_07_TestD1Ev
FN:315,_ZN34AebDecelTest_TC_AEB_DEC_RA_07_TestD0Ev
FNDA:1,_ZN34AebDecelTest_TC_AEB_DEC_RA_07_TestD0Ev
FN:315,_ZN34AebDecelTest_TC_AEB_DEC_RA_07_TestC1Ev
FNDA:1,_ZN34AebDecelTest_TC_AEB_DEC_RA_07_TestC1Ev
FN:315,_ZN34AebDecelTest_TC_AEB_DEC_RA_07_Test8TestBodyEv
FNDA:1,_ZN34AebDecelTest_TC_AEB_DEC_RA_07_Test8TestBodyEv
FN:321,_ZN34AebDecelTest_TC_AEB_DEC_RA_08_TestC1Ev
FNDA:1,_ZN34AebDecelTest_TC_AEB_DEC_RA_08_TestC1Ev
FN:321,_ZN34AebDecelTest_TC_AEB_DEC_RA_08_TestD1Ev
FNDA:1,_ZN34AebDecelTest_TC_AEB_DEC_RA_08_TestD1Ev
FN:321,_ZN34AebDecelTest_TC_AEB_DEC_RA_08_TestD0Ev
FNDA:1,_ZN34AebDecelTest_TC_AEB_DEC_RA_08_TestD0Ev
FN:321,_ZN34AebDecelTest_TC_AEB_DEC_RA_08_Test8TestBodyEv
FNDA:1,_ZN34AebDecelTest_TC_AEB_DEC_RA_08_Test8TestBodyEv
FN:327,_ZN34AebDecelTest_TC_AEB_DEC_RA_09_TestC1Ev
FNDA:1,_ZN34AebDecelTest_TC_AEB_DEC_RA_09_TestC1Ev
FN:327,_ZN34AebDecelTest_TC_AEB_DEC_RA_09_TestD0Ev
FNDA:1,_ZN34AebDecelTest_TC_AEB_DEC_RA_09_TestD0Ev
FN:327,_ZN34AebDecelTest_TC_AEB_DEC_RA_09_Test8TestBodyEv
FNDA:1,_ZN34AebDecelTest_TC_AEB_DEC_RA_09_Test8TestBodyEv
FN:327,_ZN34AebDecelTest_TC_AEB_DEC_RA_09_TestD1Ev
FNDA:1,_ZN34AebDecelTest_TC_AEB_DEC_RA_09_TestD1Ev
FN:333,_ZN34AebDecelTest_TC_AEB_DEC_RA_10_TestC1Ev
FNDA:1,_ZN34AebDecelTest_TC_AEB_DEC_RA_10_TestC1Ev
FN:333,_ZN34AebDecelTest_TC_AEB_DEC_RA_10_Test8TestBodyEv
FNDA:1,_ZN34AebDecelTest_TC_AEB_DEC_RA_10_Test8TestBodyEv
FN:333,_ZN34AebDecelTest_TC_AEB_DEC_RA_10_TestD1Ev
FNDA:1,_ZN34AebDecelTest_TC_AEB_DEC_RA_10_TestD1Ev
FN:333,_ZN34AebDecelTest_TC_AEB_DEC_RA_10_TestD0Ev
FNDA:1,_ZN34AebDecelTest_TC_AEB_DEC_RA_10_TestD0Ev
FN:339,_ZN34AebDecelTest_TC_AEB_DEC_RA_11_Test8TestBodyEv
FNDA:1,_ZN34AebDecelTest_TC_AEB_DEC_RA_11_Test8TestBodyEv
FN:339,_ZN34AebDecelTest_TC_AEB_DEC_RA_11_TestD1Ev
FNDA:1,_ZN34AebDecelTest_TC_AEB_DEC_RA_11_TestD1Ev
FN:339,_ZN34AebDecelTest_TC_AEB_DEC_RA_11_TestD0Ev
FNDA:1,_ZN34AebDecelTest_TC_AEB_DEC_RA_11_TestD0Ev
FN:339,_ZN34AebDecelTest_TC_AEB_DEC_RA_11_TestC1Ev
FNDA:1,_ZN34AebDecelTest_TC_AEB_DEC_RA_11_TestC1Ev
FN:345,_ZN34AebDecelTest_TC_AEB_DEC_RA_12_Test8TestBodyEv
FNDA:1,_ZN34AebDecelTest_TC_AEB_DEC_RA_12_Test8TestBodyEv
FN:345,_ZN34AebDecelTest_TC_AEB_DEC_RA_12_TestC1Ev
FNDA:1,_ZN34AebDecelTest_TC_AEB_DEC_RA_12_TestC1Ev
FN:345,_ZN34AebDecelTest_TC_AEB_DEC_RA_12_TestD0Ev
FNDA:1,_ZN34AebDecelTest_TC_AEB_DEC_RA_12_TestD0Ev
FN:345,_ZN34AebDecelTest_TC_AEB_DEC_RA_12_TestD1Ev
FNDA:1,_ZN34AebDecelTest_TC_AEB_DEC_RA_12_TestD1Ev
FN:351,_ZN34AebDecelTest_TC_AEB_DEC_RA_13_TestC1Ev
FNDA:1,_ZN34AebDecelTest_TC_AEB_DEC_RA_13_TestC1Ev
FN:351,_ZN34AebDecelTest_TC_AEB_DEC_RA_13_TestD0Ev
FNDA:1,_ZN34AebDecelTest_TC_AEB_DEC_RA_13_TestD0Ev
FN:351,_ZN34AebDecelTest_TC_AEB_DEC_RA_13_TestD1Ev
FNDA:1,_ZN34AebDecelTest_TC_AEB_DEC_RA_13_TestD1Ev
FN:351,_ZN34AebDecelTest_TC_AEB_DEC_RA_13_Test8TestBodyEv
FNDA:1,_ZN34AebDecelTest_TC_AEB_DEC_RA_13_Test8TestBodyEv
FN:357,_ZN34AebDecelTest_TC_AEB_DEC_RA_14_TestD0Ev
FNDA:1,_ZN34AebDecelTest_TC_AEB_DEC_RA_14_TestD0Ev
FN:357,_ZN34AebDecelTest_TC_AEB_DEC_RA_14_TestD1Ev
FNDA:1,_ZN34AebDecelTest_TC_AEB_DEC_RA_14_TestD1Ev
FN:357,_ZN34AebDecelTest_TC_AEB_DEC_RA_14_TestC1Ev
FNDA:1,_ZN34AebDecelTest_TC_AEB_DEC_RA_14_TestC1Ev
FN:357,_ZN34AebDecelTest_TC_AEB_DEC_RA_14_Test8TestBodyEv
FNDA:1,_ZN34AebDecelTest_TC_AEB_DEC_RA_14_Test8TestBodyEv
FN:363,_ZN34AebDecelTest_TC_AEB_DEC_RA_15_TestC1Ev
FNDA:1,_ZN34AebDecelTest_TC_AEB_DEC_RA_15_TestC1Ev
FN:363,_ZN34AebDecelTest_TC_AEB_DEC_RA_15_TestD0Ev
FNDA:1,_ZN34AebDecelTest_TC_AEB_DEC_RA_15_TestD0Ev
FN:363,_ZN34AebDecelTest_TC_AEB_DEC_RA_15_TestD1Ev
FNDA:1,_ZN34AebDecelTest_TC_AEB_DEC_RA_15_TestD1Ev
FN:363,_ZN34AebDecelTest_TC_AEB_DEC_RA_15_Test8TestBodyEv
FNDA:1,_ZN34AebDecelTest_TC_AEB_DEC_RA_15_Test8TestBodyEv
FN:368,_ZN34AebDecelTest_TC_AEB_DEC_RA_16_TestD0Ev
FNDA:1,_ZN34AebDecelTest_TC_AEB_DEC_RA_16_TestD0Ev
FN:368,_ZN34AebDecelTest_TC_AEB_DEC_RA_16_TestD1Ev
FNDA:1,_ZN34AebDecelTest_TC_AEB_DEC_RA_16_TestD1Ev
FN:368,_ZN34AebDecelTest_TC_AEB_DEC_RA_16_Test8TestBodyEv
FNDA:1,_ZN34AebDecelTest_TC_AEB_DEC_RA_16_Test8TestBodyEv
FN:368,_ZN34AebDecelTest_TC_AEB_DEC_RA_16_TestC1Ev
FNDA:1,_ZN34AebDecelTest_TC_AEB_DEC_RA_16_TestC1Ev
FN:374,_ZN34AebDecelTest_TC_AEB_DEC_RA_17_TestC1Ev
FNDA:1,_ZN34AebDecelTest_TC_AEB_DEC_RA_17_TestC1Ev
FN:374,_ZN34AebDecelTest_TC_AEB_DEC_RA_17_TestD0Ev
FNDA:1,_ZN34AebDecelTest_TC_AEB_DEC_RA_17_TestD0Ev
FN:374,_ZN34AebDecelTest_TC_AEB_DEC_RA_17_TestD1Ev
FNDA:1,_ZN34AebDecelTest_TC_AEB_DEC_RA_17_TestD1Ev
FN:374,_ZN34AebDecelTest_TC_AEB_DEC_RA_17_Test8TestBodyEv
FNDA:1,_ZN34AebDecelTest_TC_AEB_DEC_RA_17_Test8TestBodyEv
FN:380,_ZN34AebDecelTest_TC_AEB_DEC_RA_18_TestD0Ev
FNDA:1,_ZN34AebDecelTest_TC_AEB_DEC_RA_18_TestD0Ev
FN:380,_ZN34AebDecelTest_TC_AEB_DEC_RA_18_TestD1Ev
FNDA:1,_ZN34AebDecelTest_TC_AEB_DEC_RA_18_TestD1Ev
FN:380,_ZN34AebDecelTest_TC_AEB_DEC_RA_18_Test8TestBodyEv
FNDA:1,_ZN34AebDecelTest_TC_AEB_DEC_RA_18_Test8TestBodyEv
FN:380,_ZN34AebDecelTest_TC_AEB_DEC_RA_18_TestC1Ev
FNDA:1,_ZN34AebDecelTest_TC_AEB_DEC_RA_18_TestC1Ev
FN:386,_ZN34AebDecelTest_TC_AEB_DEC_RA_19_TestD0Ev
FNDA:1,_ZN34AebDecelTest_TC_AEB_DEC_RA_19_TestD0Ev
FN:386,_ZN34AebDecelTest_TC_AEB_DEC_RA_19_TestD1Ev
FNDA:1,_ZN34AebDecelTest_TC_AEB_DEC_RA_19_TestD1Ev
FN:386,_ZN34AebDecelTest_TC_AEB_DEC_RA_19_TestC1Ev
FNDA:1,_ZN34AebDecelTest_TC_AEB_DEC_RA_19_TestC1Ev
FN:386,_ZN34AebDecelTest_TC_AEB_DEC_RA_19_Test8TestBodyEv
FNDA:1,_ZN34AebDecelTest_TC_AEB_DEC_RA_19_Test8TestBodyEv
FN:392,_ZN34AebDecelTest_TC_AEB_DEC_RA_20_TestD0Ev
FNDA:1,_ZN34AebDecelTest_TC_AEB_DEC_RA_20_TestD0Ev
FN:392,_ZN34AebDecelTest_TC_AEB_DEC_RA_20_TestD1Ev
FNDA:1,_ZN34AebDecelTest_TC_AEB_DEC_RA_20_TestD1Ev
FN:392,_ZN34AebDecelTest_TC_AEB_DEC_RA_20_Test8TestBodyEv
FNDA:1,_ZN34AebDecelTest_TC_AEB_DEC_RA_20_Test8TestBodyEv
FN:392,_ZN34AebDecelTest_TC_AEB_DEC_RA_20_TestC1Ev
FNDA:1,_ZN34AebDecelTest_TC_AEB_DEC_RA_20_TestC1Ev
FNF:243
FNH:243
DA:17,105
DA:19,105
DA:20,105
DA:21,105
DA:22,105
DA:23,105
DA:31,60
DA:34,60
DA:35,60
DA:36,58
DA:38,58
DA:45,1
DA:45,1
DA:45,1
DA:45,1
DA:47,1
DA:48,1
DA:50,1
DA:50,1
DA:50,1
DA:50,1
DA:52,1
DA:53,1
DA:55,1
DA:55,1
DA:55,1
DA:55,1
DA:57,1
DA:58,1
DA:59,1
DA:61,1
DA:61,1
DA:61,1
DA:61,1
DA:63,1
DA:64,1
DA:65,1
DA:67,1
DA:67,1
DA:67,1
DA:67,1
DA:69,1
DA:70,1
DA:71,1
DA:73,1
DA:73,1
DA:73,1
DA:73,1
DA:75,1
DA:76,1
DA:77,1
DA:79,1
DA:79,1
DA:79,1
DA:79,1
DA:81,1
DA:82,1
DA:83,1
DA:85,1
DA:85,1
DA:85,1
DA:85,1
DA:87,1
DA:88,1
DA:89,1
DA:91,1
DA:91,1
DA:91,1
DA:91,1
DA:93,1
DA:94,1
DA:95,1
DA:97,1
DA:97,1
DA:97,1
DA:97,1
DA:99,1
DA:100,1
DA:101,1
DA:103,1
DA:103,1
DA:103,1
DA:103,1
DA:105,1
DA:106,1
DA:107,1
DA:109,1
DA:109,1
DA:109,1
DA:109,1
DA:111,1
DA:112,1
DA:113,1
DA:115,1
DA:115,1
DA:115,1
DA:115,1
DA:117,1
DA:118,1
DA:119,1
DA:121,1
DA:121,1
DA:121,1
DA:121,1
DA:123,1
DA:124,1
DA:125,1
DA:127,1
DA:127,1
DA:127,1
DA:127,1
DA:129,1
DA:130,1
DA:132,1
DA:132,1
DA:132,1
DA:132,1
DA:134,1
DA:135,1
DA:136,1
DA:138,1
DA:138,1
DA:138,1
DA:138,1
DA:140,1
DA:141,1
DA:142,1
DA:144,1
DA:144,1
DA:144,1
DA:144,1
DA:146,1
DA:147,1
DA:148,1
DA:150,1
DA:150,1
DA:150,1
DA:150,1
DA:152,1
DA:153,1
DA:154,1
DA:156,1
DA:156,1
DA:156,1
DA:156,1
DA:158,1
DA:159,1
DA:160,1
DA:165,1
DA:165,1
DA:165,1
DA:165,1
DA:167,1
DA:168,1
DA:169,1
DA:171,1
DA:171,1
DA:171,1
DA:171,1
DA:173,1
DA:174,1
DA:175,1
DA:177,1
DA:177,1
DA:177,1
DA:177,1
DA:179,1
DA:180,1
DA:181,1
DA:183,1
DA:183,1
DA:183,1
DA:183,1
DA:185,1
DA:186,1
DA:187,1
DA:189,1
DA:189,1
DA:189,1
DA:189,1
DA:191,1
DA:192,1
DA:193,1
DA:195,1
DA:195,1
DA:195,1
DA:195,1
DA:197,1
DA:198,1
DA:199,1
DA:201,1
DA:201,1
DA:201,1
DA:201,1
DA:203,1
DA:204,1
DA:205,1
DA:207,1
DA:207,1
DA:207,1
DA:207,1
DA:209,1
DA:210,1
DA:211,1
DA:213,1
DA:213,1
DA:213,1
DA:213,1
DA:215,1
DA:216,1
DA:217,1
DA:219,1
DA:219,1
DA:219,1
DA:219,1
DA:221,1
DA:222,1
DA:223,1
DA:225,1
DA:225,1
DA:225,1
DA:225,1
DA:227,1
DA:228,1
DA:229,1
DA:231,1
DA:231,1
DA:231,1
DA:231,1
DA:233,1
DA:234,1
DA:235,1
DA:237,1
DA:237,1
DA:237,1
DA:237,1
DA:239,1
DA:240,1
DA:241,1
DA:243,1
DA:243,1
DA:243,1
DA:243,1
DA:245,1
DA:246,1
DA:247,1
DA:249,1
DA:249,1
DA:249,1
DA:249,1
DA:251,1
DA:252,1
DA:253,1
DA:255,1
DA:255,1
DA:255,1
DA:255,1
DA:257,1
DA:258,1
DA:259,1
DA:261,1
DA:261,1
DA:261,1
DA:261,1
DA:263,1
DA:264,1
DA:265,1
DA:267,1
DA:267,1
DA:267,1
DA:267,1
DA:269,1
DA:270,1
DA:271,1
DA:273,1
DA:273,1
DA:273,1
DA:273,1
DA:275,1
DA:276,1
DA:277,1
DA:279,1
DA:279,1
DA:279,1
DA:279,1
DA:281,1
DA:282,1
DA:283,1
DA:288,1
DA:288,1
DA:288,1
DA:288,1
DA:289,1
DA:289,1
DA:289,1
DA:289,1
DA:291,1
DA:291,1
DA:291,1
DA:291,1
DA:293,1
DA:294,1
DA:295,1
DA:297,1
DA:297,1
DA:297,1
DA:297,1
DA:299,1
DA:300,1
DA:301,1
DA:303,1
DA:303,1
DA:303,1
DA:303,1
DA:305,1
DA:306,1
DA:307,1
DA:309,1
DA:309,1
DA:309,1
DA:309,1
DA:311,1
DA:312,1
DA:313,1
DA:315,1
DA:315,1
DA:315,1
DA:315,1
DA:317,1
DA:318,1
DA:319,1
DA:321,1
DA:321,1
DA:321,1
DA:321,1
DA:323,1
DA:324,1
DA:325,1
DA:327,1
DA:327,1
DA:327,1
DA:327,1
DA:329,1
DA:330,1
DA:331,1
DA:333,1
DA:333,1
DA:333,1
DA:333,1
DA:335,1
DA:336,1
DA:337,1
DA:339,1
DA:339,1
DA:339,1
DA:339,1
DA:341,1
DA:342,1
DA:343,1
DA:345,1
DA:345,1
DA:345,1
DA:345,1
DA:347,1
DA:348,1
DA:349,1
DA:351,1
DA:351,1
DA:351,1
DA:351,1
DA:353,1
DA:354,1
DA:355,1
DA:357,1
DA:357,1
DA:357,1
DA:357,1
DA:359,1
DA:360,1
DA:361,1
DA:363,1
DA:363,1
DA:363,1
DA:363,1
DA:365,1
DA:366,1
DA:368,1
DA:368,1
DA:368,1
DA:368,1
DA:370,1
DA:371,1
DA:372,1
DA:374,1
DA:374,1
DA:374,1
DA:374,1
DA:376,1
DA:377,1
DA:378,1
DA:380,1
DA:380,1
DA:380,1
DA:380,1
DA:382,1
DA:383,1
DA:384,1
DA:386,1
DA:386,1
DA:386,1
DA:386,1
DA:388,1
DA:389,1
DA:390,1
DA:392,1
DA:392,1
DA:392,1
DA:392,1
DA:394,1
DA:395,1
DA:396,1
LF:421
LH:421
end_of_record
SF:C:/Projects/GoogleTestProject/googletest/googletest/include/gtest/internal/gtest-port.h
FN:1082,_ZN7testing8internal8GTestLog9GetStreamEv
FNDA:0,_ZN7testing8internal8GTestLog9GetStreamEv
FNF:1
FNH:0
DA:1082,0
LF:1
LH:0
end_of_record
SF:C:/msys64/mingw64/include/c++/14.2.0/bits/basic_string.tcc
FN:221,_ZNSt7__cxx1112basic_stringIcSt11char_traitsIcESaIcEE12_M_constructIPKcEEvT_S8_St20forward_iterator_tag
FNDA:0,_ZNSt7__cxx1112basic_stringIcSt11char_traitsIcESaIcEE12_M_constructIPKcEEvT_S8_St20forward_iterator_tag
FN:239,_ZZNSt7__cxx1112basic_stringIcSt11char_traitsIcESaIcEE12_M_constructIPKcEEvT_S8_St20forward_iterator_tagEN6_GuardC1EPS4_
FNDA:0,_ZZNSt7__cxx1112basic_stringIcSt11char_traitsIcESaIcEE12_M_constructIPKcEEvT_S8_St20forward_iterator_tagEN6_GuardC1EPS4_
FN:242,_ZZNSt7__cxx1112basic_stringIcSt11char_traitsIcESaIcEE12_M_constructIPKcEEvT_S8_St20forward_iterator_tagEN6_GuardD1Ev
FNDA:0,_ZZNSt7__cxx1112basic_stringIcSt11char_traitsIcESaIcEE12_M_constructIPKcEEvT_S8_St20forward_iterator_tagEN6_GuardD1Ev
FNF:3
FNH:0
DA:221,0
DA:225,0
DA:227,0
DA:229,0
DA:230,0
DA:239,0
DA:242,0
DA:245,0
DA:247,0
DA:249,0
DA:251,0
DA:252,0
LF:12
LH:0
end_of_record
SF:C:/msys64/mingw64/include/c++/14.2.0/bits/char_traits.h
FN:136,_ZN9__gnu_cxx11char_traitsIcE2eqERKcS3_
FNDA:0,_ZN9__gnu_cxx11char_traitsIcE2eqERKcS3_
FN:199,_ZN9__gnu_cxx11char_traitsIcE6lengthEPKc
FNDA:0,_ZN9__gnu_cxx11char_traitsIcE6lengthEPKc
FN:385,_ZNSt11char_traitsIcE6lengthEPKc
FNDA:0,_ZNSt11char_traitsIcE6lengthEPKc
FN:419,_ZNSt11char_traitsIcE4copyEPcPKcy
FNDA:0,_ZNSt11char_traitsIcE4copyEPcPKcy
FNF:4
FNH:0
DA:136,0
DA:137,0
DA:199,0
DA:202,0
DA:203,0
DA:204,0
DA:205,0
DA:385,0
DA:388,0
DA:389,0
DA:391,0
DA:419,0
DA:421,0
DA:422,0
DA:427,0
LF:15
LH:0
end_of_record
SF:C:/Projects/GoogleTestProject/googletest/googletest/include/gtest/gtest-message.h
LF:0
LH:0
end_of_record
TN:
SF:C:/msys64/mingw64/include/c++/14.2.0/bits/unique_ptr.h
FN:87,_ZNKSt14default_deleteINSt7__cxx1112basic_stringIcSt11char_traitsIcESaIcEEEEclEPS5_
FNDA:0,_ZNKSt14default_deleteINSt7__cxx1112basic_stringIcSt11char_traitsIcESaIcEEEEclEPS5_
FN:87,_ZNKSt14default_deleteINSt7__cxx1118basic_stringstreamIcSt11char_traitsIcESaIcEEEEclEPS5_
FNDA:0,_ZNKSt14default_deleteINSt7__cxx1118basic_stringstreamIcSt11char_traitsIcESaIcEEEEclEPS5_
FN:168,_ZNSt15__uniq_ptr_implINSt7__cxx1112basic_stringIcSt11char_traitsIcESaIcEEESt14default_deleteIS5_EEC2Ev
FNDA:0,_ZNSt15__uniq_ptr_implINSt7__cxx1112basic_stringIcSt11char_traitsIcESaIcEEESt14default_deleteIS5_EEC2Ev
FN:191,_ZNSt15__uniq_ptr_implINSt7__cxx1112basic_stringIcSt11char_traitsIcESaIcEEESt14default_deleteIS5_EE6_M_ptrEv
FNDA:0,_ZNSt15__uniq_ptr_implINSt7__cxx1112basic_stringIcSt11char_traitsIcESaIcEEESt14default_deleteIS5_EE6_M_ptrEv
FN:191,_ZNSt15__uniq_ptr_implINSt7__cxx1118basic_stringstreamIcSt11char_traitsIcESaIcEEESt14default_deleteIS5_EE6_M_ptrEv
FNDA:0,_ZNSt15__uniq_ptr_implINSt7__cxx1118basic_stringstreamIcSt11char_traitsIcESaIcEEESt14default_deleteIS5_EE6_M_ptrEv
FN:193,_ZNKSt15__uniq_ptr_implINSt7__cxx1112basic_stringIcSt11char_traitsIcESaIcEEESt14default_deleteIS5_EE6_M_ptrEv
FNDA:0,_ZNKSt15__uniq_ptr_implINSt7__cxx1112basic_stringIcSt11char_traitsIcESaIcEEESt14default_deleteIS5_EE6_M_ptrEv
FN:195,_ZNSt15__uniq_ptr_implINSt7__cxx1118basic_stringstreamIcSt11char_traitsIcESaIcEEESt14default_deleteIS5_EE10_M_deleterEv
FNDA:0,_ZNSt15__uniq_ptr_implINSt7__cxx1118basic_stringstreamIcSt11char_traitsIcESaIcEEESt14default_deleteIS5_EE10_M_deleterEv
FN:195,_ZNSt15__uniq_ptr_implINSt7__cxx1112basic_stringIcSt11char_traitsIcESaIcEEESt14default_deleteIS5_EE10_M_deleterEv
FNDA:0,_ZNSt15__uniq_ptr_implINSt7__cxx1112basic_stringIcSt11char_traitsIcESaIcEEESt14default_deleteIS5_EE10_M_deleterEv
FN:298,_ZNSt10unique_ptrINSt7__cxx1112basic_stringIcSt11char_traitsIcESaIcEEESt14default_deleteIS5_EEC1IS7_vEEv
FNDA:0,_ZNSt10unique_ptrINSt7__cxx1112basic_stringIcSt11char_traitsIcESaIcEEESt14default_deleteIS5_EEC1IS7_vEEv
FN:392,_ZNSt10unique_ptrINSt7__cxx1118basic_stringstreamIcSt11char_traitsIcESaIcEEESt14default_deleteIS5_EED1Ev
FNDA:0,_ZNSt10unique_ptrINSt7__cxx1118basic_stringstreamIcSt11char_traitsIcESaIcEEESt14default_deleteIS5_EED1Ev
FN:392,_ZNSt10unique_ptrINSt7__cxx1112basic_stringIcSt11char_traitsIcESaIcEEESt14default_deleteIS5_EED1Ev
FNDA:0,_ZNSt10unique_ptrINSt7__cxx1112basic_stringIcSt11char_traitsIcESaIcEEESt14default_deleteIS5_EED1Ev
FN:454,_ZNKSt10unique_ptrINSt7__cxx1112basic_stringIcSt11char_traitsIcESaIcEEESt14default_deleteIS5_EEptEv
FNDA:0,_ZNKSt10unique_ptrINSt7__cxx1112basic_stringIcSt11char_traitsIcESaIcEEESt14default_deleteIS5_EEptEv
FN:463,_ZNKSt10unique_ptrINSt7__cxx1112basic_stringIcSt11char_traitsIcESaIcEEESt14default_deleteIS5_EE3getEv
FNDA:0,_ZNKSt10unique_ptrINSt7__cxx1112basic_stringIcSt11char_traitsIcESaIcEEESt14default_deleteIS5_EE3getEv
FN:469,_ZNSt10unique_ptrINSt7__cxx1118basic_stringstreamIcSt11char_traitsIcESaIcEEESt14default_deleteIS5_EE11get_deleterEv
FNDA:0,_ZNSt10unique_ptrINSt7__cxx1118basic_stringstreamIcSt11char_traitsIcESaIcEEESt14default_deleteIS5_EE11get_deleterEv
FN:469,_ZNSt10unique_ptrINSt7__cxx1112basic_stringIcSt11char_traitsIcESaIcEEESt14default_deleteIS5_EE11get_deleterEv
FNDA:0,_ZNSt10unique_ptrINSt7__cxx1112basic_stringIcSt11char_traitsIcESaIcEEESt14default_deleteIS5_EE11get_deleterEv
FN:480,_ZNKSt10unique_ptrINSt7__cxx1112basic_stringIcSt11char_traitsIcESaIcEEESt14default_deleteIS5_EEcvbEv
FNDA:0,_ZNKSt10unique_ptrINSt7__cxx1112basic_stringIcSt11char_traitsIcESaIcEEESt14default_deleteIS5_EEcvbEv
FN:869,_ZStneINSt7__cxx1112basic_stringIcSt11char_traitsIcESaIcEEESt14default_deleteIS5_EEbRKSt10unique_ptrIT_T0_EDn
FNDA:0,_ZStneINSt7__cxx1112basic_stringIcSt11char_traitsIcESaIcEEESt14default_deleteIS5_EEbRKSt10unique_ptrIT_T0_EDn
FNF:17
FNH:0
DA:87,0
DA:93,0
DA:94,0
DA:87,0
DA:93,0
DA:94,0
DA:168,0
DA:191,0
DA:191,0
DA:193,0
DA:195,0
DA:195,0
DA:298,0
DA:299,0
DA:300,0
DA:392,0
DA:396,0
DA:397,0
DA:398,0
DA:399,0
DA:400,0
DA:392,0
DA:396,0
DA:397,0
DA:398,0
DA:399,0
DA:400,0
DA:454,0
DA:457,0
DA:463,0
DA:464,0
DA:469,0
DA:470,0
DA:469,0
DA:470,0
DA:480,0
DA:481,0
DA:869,0
DA:870,0
LF:39
LH:0
end_of_record
SF:C:/Projects/GoogleTestProject/googletest/googletest/include/gtest/internal/gtest-port.h
FN:1082,_ZN7testing8internal8GTestLog9GetStreamEv
FNDA:0,_ZN7testing8internal8GTestLog9GetStreamEv
FNF:1
FNH:0
DA:1082,0
LF:1
LH:0
end_of_record
SF:C:/msys64/mingw64/include/c++/14.2.0/bits/basic_string.tcc
FN:221,_ZNSt7__cxx1112basic_stringIcSt11char_traitsIcESaIcEE12_M_constructIPKcEEvT_S8_St20forward_iterator_tag
FNDA:0,_ZNSt7__cxx1112basic_stringIcSt11char_traitsIcESaIcEE12_M_constructIPKcEEvT_S8_St20forward_iterator_tag
FN:239,_ZZNSt7__cxx1112basic_stringIcSt11char_traitsIcESaIcEE12_M_constructIPKcEEvT_S8_St20forward_iterator_tagEN6_GuardC1EPS4_
FNDA:0,_ZZNSt7__cxx1112basic_stringIcSt11char_traitsIcESaIcEE12_M_constructIPKcEEvT_S8_St20forward_iterator_tagEN6_GuardC1EPS4_
FN:242,_ZZNSt7__cxx1112basic_stringIcSt11char_traitsIcESaIcEE12_M_constructIPKcEEvT_S8_St20forward_iterator_tagEN6_GuardD1Ev
FNDA:0,_ZZNSt7__cxx1112basic_stringIcSt11char_traitsIcESaIcEE12_M_constructIPKcEEvT_S8_St20forward_iterator_tagEN6_GuardD1Ev
FNF:3
FNH:0
DA:221,0
DA:225,0
DA:227,0
DA:229,0
DA:230,0
DA:239,0
DA:242,0
DA:245,0
DA:247,0
DA:249,0
DA:251,0
DA:252,0
LF:12
LH:0
end_of_record
SF:C:/msys64/mingw64/include/c++/14.2.0/bits/char_traits.h
FN:136,_ZN9__gnu_cxx11char_traitsIcE2eqERKcS3_
FNDA:0,_ZN9__gnu_cxx11char_traitsIcE2eqERKcS3_
FN:199,_ZN9__gnu_cxx11char_traitsIcE6lengthEPKc
FNDA:0,_ZN9__gnu_cxx11char_traitsIcE6lengthEPKc
FN:385,_ZNSt11char_traitsIcE6lengthEPKc
FNDA:0,_ZNSt11char_traitsIcE6lengthEPKc
FN:419,_ZNSt11char_traitsIcE4copyEPcPKcy
FNDA:0,_ZNSt11char_traitsIcE4copyEPcPKcy
FNF:4
FNH:0
DA:136,0
DA:137,0
DA:199,0
DA:202,0
DA:203,0
DA:204,0
DA:205,0
DA:385,0
DA:388,0
DA:389,0
DA:391,0
DA:419,0
DA:421,0
DA:422,0
DA:427,0
LF:15
LH:0
end_of_record
SF:C:/Projects/GoogleTestProject/googletest/googletest/include/gtest/gtest-message.h
LF:0
LH:0
end_of_record
SF:C:/Projects/GoogleTestProject/googletest/googletest/include/gtest/gtest-printers.h
FN:248,_ZN7testing8internal52internal_stream_operator_without_lexical_name_lookup13StreamPrinter10PrintValueI10AEB_Mode_evEEDTcvvlsdefp0_fp_ERKT_PSo
FNDA:0,_ZN7testing8internal52internal_stream_operator_without_lexical_name_lookup13StreamPrinter10PrintValueI10AEB_Mode_evEEDTcvvlsdefp0_fp_ERKT_PSo
FN:352,_ZN7testing8internal17PrintWithFallbackI10AEB_Mode_eEEvRKT_PSo
FNDA:0,_ZN7testing8internal17PrintWithFallbackI10AEB_Mode_eEEvRKT_PSo
FN:383,_ZN7testing8internal19FormatForComparisonI10AEB_Mode_eS2_E6FormatB5cxx11ERKS2_
FNDA:0,_ZN7testing8internal19FormatForComparisonI10AEB_Mode_eS2_E6FormatB5cxx11ERKS2_
FN:463,_ZN7testing8internal33FormatForComparisonFailureMessageI10AEB_Mode_eS2_EENSt7__cxx1112basic_stringIcSt11char_traitsIcESaIcEEERKT_RKT0_
FNDA:0,_ZN7testing8internal33FormatForComparisonFailureMessageI10AEB_Mode_eS2_EENSt7__cxx1112basic_stringIcSt11char_traitsIcESaIcEEERKT_RKT0_
FN:490,_ZN7testing8internal7PrintToI10AEB_Mode_eEEvRKT_PSo
FNDA:0,_ZN7testing8internal7PrintToI10AEB_Mode_eEEvRKT_PSo
FN:874,_ZN7testing8internal16UniversalPrinterI10AEB_Mode_eE5PrintERKS2_PSo
FNDA:0,_ZN7testing8internal16UniversalPrinterI10AEB_Mode_eE5PrintERKS2_PSo
FN:1064,_ZN7testing8internal21UniversalTersePrinterI10AEB_Mode_eE5PrintERKS2_PSo
FNDA:0,_ZN7testing8internal21UniversalTersePrinterI10AEB_Mode_eE5PrintERKS2_PSo
FN:1183,_ZN7testing8internal14UniversalPrintI10AEB_Mode_eEEvRKT_PSo
FNDA:0,_ZN7testing8internal14UniversalPrintI10AEB_Mode_eEEvRKT_PSo
FN:1223,_ZN7testing13PrintToStringI10AEB_Mode_eEENSt7__cxx1112basic_stringIcSt11char_traitsIcESaIcEEERKT_
FNDA:0,_ZN7testing13PrintToStringI10AEB_Mode_eEENSt7__cxx1112basic_stringIcSt11char_traitsIcESaIcEEERKT_
FNF:9
FNH:0
DA:248,0
DA:252,0
DA:253,0
DA:352,0
DA:362,0
DA:363,0
DA:383,0
DA:384,0
DA:463,0
DA:465,0
DA:490,0
DA:491,0
DA:492,0
DA:874,0
DA:883,0
DA:884,0
DA:1064,0
DA:1065,0
DA:1066,0
DA:1183,0
DA:1187,0
DA:1188,0
DA:1223,0
DA:1224,0
DA:1225,0
DA:1226,0
DA:1227,0
LF:27
LH:0
end_of_record
SF:C:/Projects/GoogleTestProject/googletest/googletest/include/gtest/gtest.h
FN:255,_ZN7testing4Test14SetUpTestSuiteEv
FNDA:0,_ZN7testing4Test14SetUpTestSuiteEv
FN:263,_ZN7testing4Test17TearDownTestSuiteEv
FNDA:0,_ZN7testing4Test17TearDownTestSuiteEv
FN:268,_ZN7testing4Test16TearDownTestCaseEv
FNDA:0,_ZN7testing4Test16TearDownTestCaseEv
FN:269,_ZN7testing4Test13SetUpTestCaseEv
FNDA:0,_ZN7testing4Test13SetUpTestCaseEv
FN:356,_ZN7testing4Test5SetupEv
FNDA:0,_ZN7testing4Test5SetupEv
FN:1374,_ZN7testing8internal18CmpHelperEQFailureI10AEB_Mode_eS2_EENS_15AssertionResultEPKcS5_RKT_RKT0_
FNDA:0,_ZN7testing8internal18CmpHelperEQFailureI10AEB_Mode_eS2_EENS_15AssertionResultEPKcS5_RKT_RKT0_
FN:1391,_ZN7testing8internal11CmpHelperEQI10AEB_Mode_eS2_EENS_15AssertionResultEPKcS5_RKT_RKT0_
FNDA:61,_ZN7testing8internal11CmpHelperEQI10AEB_Mode_eS2_EENS_15AssertionResultEPKcS5_RKT_RKT0_
FN:1410,_ZN7testing8internal8EqHelper7CompareI10AEB_Mode_eS3_LPv0EEENS_15AssertionResultEPKcS7_RKT_RKT0_
FNDA:61,_ZN7testing8internal8EqHelper7CompareI10AEB_Mode_eS3_LPv0EEENS_15AssertionResultEPKcS7_RKT_RKT0_
FNF:8
FNH:2
DA:255,0
DA:263,0
DA:268,0
DA:269,0
DA:356,0
DA:1374,0
DA:1378,0
DA:1379,0
DA:1391,61
DA:1394,61
DA:1395,61
DA:1398,0
DA:1410,61
DA:1413,61
LF:14
LH:5
end_of_record
SF:C:/msys64/mingw64/include/c++/14.2.0/bits/new_allocator.h
FN:104,_ZNSt15__new_allocatorIcED2Ev
FNDA:0,_ZNSt15__new_allocatorIcED2Ev
FNF:1
FNH:0
DA:104,0
LF:1
LH:0
end_of_record
SF:C:/msys64/mingw64/include/c++/14.2.0/tuple
FN:89,_ZNSt10_Head_baseILy1ESt14default_deleteINSt7__cxx1112basic_stringIcSt11char_traitsIcESaIcEEEELb1EEC2Ev
FNDA:0,_ZNSt10_Head_baseILy1ESt14default_deleteINSt7__cxx1112basic_stringIcSt11char_traitsIcESaIcEEEELb1EEC2Ev
FN:133,_ZNSt10_Head_baseILy1ESt14default_deleteINSt7__cxx1118basic_stringstreamIcSt11char_traitsIcESaIcEEEELb1EE7_M_headERS8_
FNDA:0,_ZNSt10_Head_baseILy1ESt14default_deleteINSt7__cxx1118basic_stringstreamIcSt11char_traitsIcESaIcEEEELb1EE7_M_headERS8_
FN:133,_ZNSt10_Head_baseILy1ESt14default_deleteINSt7__cxx1112basic_stringIcSt11char_traitsIcESaIcEEEELb1EE7_M_headERS8_
FNDA:0,_ZNSt10_Head_baseILy1ESt14default_deleteINSt7__cxx1112basic_stringIcSt11char_traitsIcESaIcEEEELb1EE7_M_headERS8_
FN:198,_ZNSt10_Head_baseILy0EPNSt7__cxx1112basic_stringIcSt11char_traitsIcESaIcEEELb0EEC2Ev
FNDA:0,_ZNSt10_Head_baseILy0EPNSt7__cxx1112basic_stringIcSt11char_traitsIcESaIcEEELb0EEC2Ev
FN:242,_ZNSt10_Head_baseILy0EPNSt7__cxx1112basic_stringIcSt11char_traitsIcESaIcEEELb0EE7_M_headERS7_
FNDA:0,_ZNSt10_Head_baseILy0EPNSt7__cxx1112basic_stringIcSt11char_traitsIcESaIcEEELb0EE7_M_headERS7_
FN:242,_ZNSt10_Head_baseILy0EPNSt7__cxx1118basic_stringstreamIcSt11char_traitsIcESaIcEEELb0EE7_M_headERS7_
FNDA:0,_ZNSt10_Head_baseILy0EPNSt7__cxx1118basic_stringstreamIcSt11char_traitsIcESaIcEEELb0EE7_M_headERS7_
FN:245,_ZNSt10_Head_baseILy0EPNSt7__cxx1112basic_stringIcSt11char_traitsIcESaIcEEELb0EE7_M_headERKS7_
FNDA:0,_ZNSt10_Head_baseILy0EPNSt7__cxx1112basic_stringIcSt11char_traitsIcESaIcEEELb0EE7_M_headERKS7_
FN:293,_ZNSt11_Tuple_implILy0EJPNSt7__cxx1112basic_stringIcSt11char_traitsIcESaIcEEESt14default_deleteIS5_EEE7_M_headERS9_
FNDA:0,_ZNSt11_Tuple_implILy0EJPNSt7__cxx1112basic_stringIcSt11char_traitsIcESaIcEEESt14default_deleteIS5_EEE7_M_headERS9_
FN:293,_ZNSt11_Tuple_implILy0EJPNSt7__cxx1118basic_stringstreamIcSt11char_traitsIcESaIcEEESt14default_deleteIS5_EEE7_M_headERS9_
FNDA:0,_ZNSt11_Tuple_implILy0EJPNSt7__cxx1118basic_stringstreamIcSt11char_traitsIcESaIcEEESt14default_deleteIS5_EEE7_M_headERS9_
FN:296,_ZNSt11_Tuple_implILy0EJPNSt7__cxx1112basic_stringIcSt11char_traitsIcESaIcEEESt14default_deleteIS5_EEE7_M_headERKS9_
FNDA:0,_ZNSt11_Tuple_implILy0EJPNSt7__cxx1112basic_stringIcSt11char_traitsIcESaIcEEESt14default_deleteIS5_EEE7_M_headERKS9_
FN:304,_ZNSt11_Tuple_implILy0EJPNSt7__cxx1112basic_stringIcSt11char_traitsIcESaIcEEESt14default_deleteIS5_EEEC2Ev
FNDA:0,_ZNSt11_Tuple_implILy0EJPNSt7__cxx1112basic_stringIcSt11char_traitsIcESaIcEEESt14default_deleteIS5_EEEC2Ev
FN:556,_ZNSt11_Tuple_implILy1EJSt14default_deleteINSt7__cxx1118basic_stringstreamIcSt11char_traitsIcESaIcEEEEEE7_M_headERS8_
FNDA:0,_ZNSt11_Tuple_implILy1EJSt14default_deleteINSt7__cxx1118basic_stringstreamIcSt11char_traitsIcESaIcEEEEEE7_M_headERS8_
FN:556,_ZNSt11_Tuple_implILy1EJSt14default_deleteINSt7__cxx1112basic_stringIcSt11char_traitsIcESaIcEEEEEE7_M_headERS8_
FNDA:0,_ZNSt11_Tuple_implILy1EJSt14default_deleteINSt7__cxx1112basic_stringIcSt11char_traitsIcESaIcEEEEEE7_M_headERS8_
FN:562,_ZNSt11_Tuple_implILy1EJSt14default_deleteINSt7__cxx1112basic_stringIcSt11char_traitsIcESaIcEEEEEEC2Ev
FNDA:0,_ZNSt11_Tuple_implILy1EJSt14default_deleteINSt7__cxx1112basic_stringIcSt11char_traitsIcESaIcEEEEEEC2Ev
FN:2089,_ZNSt5tupleIJPNSt7__cxx1112basic_stringIcSt11char_traitsIcESaIcEEESt14default_deleteIS5_EEEC1ILb1ELb1EEEv
FNDA:0,_ZNSt5tupleIJPNSt7__cxx1112basic_stringIcSt11char_traitsIcESaIcEEESt14default_deleteIS5_EEEC1ILb1ELb1EEEv
FN:2427,_ZSt12__get_helperILy0EPNSt7__cxx1118basic_stringstreamIcSt11char_traitsIcESaIcEEEJSt14default_deleteIS5_EEERT0_RSt11_Tuple_implIXT_EJS9_DpT1_EE
FNDA:0,_ZSt12__get_helperILy0EPNSt7__cxx1118basic_stringstreamIcSt11char_traitsIcESaIcEEEJSt14default_deleteIS5_EEERT0_RSt11_Tuple_implIXT_EJS9_DpT1_EE
FN:2427,_ZSt12__get_helperILy0EPNSt7__cxx1112basic_stringIcSt11char_traitsIcESaIcEEEJSt14default_deleteIS5_EEERT0_RSt11_Tuple_implIXT_EJS9_DpT1_EE
FNDA:0,_ZSt12__get_helperILy0EPNSt7__cxx1112basic_stringIcSt11char_traitsIcESaIcEEEJSt14default_deleteIS5_EEERT0_RSt11_Tuple_implIXT_EJS9_DpT1_EE
FN:2427,_ZSt12__get_helperILy1ESt14default_deleteINSt7__cxx1112basic_stringIcSt11char_traitsIcESaIcEEEEJEERT0_RSt11_Tuple_implIXT_EJS8_DpT1_EE
FNDA:0,_ZSt12__get_helperILy1ESt14default_deleteINSt7__cxx1112basic_stringIcSt11char_traitsIcESaIcEEEEJEERT0_RSt11_Tuple_implIXT_EJS8_DpT1_EE
FN:2427,_ZSt12__get_helperILy1ESt14default_deleteINSt7__cxx1118basic_stringstreamIcSt11char_traitsIcESaIcEEEEJEERT0_RSt11_Tuple_implIXT_EJS8_DpT1_EE
FNDA:0,_ZSt12__get_helperILy1ESt14default_deleteINSt7__cxx1118basic_stringstreamIcSt11char_traitsIcESaIcEEEEJEERT0_RSt11_Tuple_implIXT_EJS8_DpT1_EE
FN:2432,_ZSt12__get_helperILy0EPNSt7__cxx1112basic_stringIcSt11char_traitsIcESaIcEEEJSt14default_deleteIS5_EEERKT0_RKSt11_Tuple_implIXT_EJS9_DpT1_EE
FNDA:0,_ZSt12__get_helperILy0EPNSt7__cxx1112basic_stringIcSt11char_traitsIcESaIcEEEJSt14default_deleteIS5_EEERKT0_RKSt11_Tuple_implIXT_EJS9_DpT1_EE
FN:2443,_ZSt3getILy1EJPNSt7__cxx1118basic_stringstreamIcSt11char_traitsIcESaIcEEESt14default_deleteIS5_EEERNSt13tuple_elementIXT_ESt5tupleIJDpT0_EEE4typeERSD_
FNDA:0,_ZSt3getILy1EJPNSt7__cxx1118basic_stringstreamIcSt11char_traitsIcESaIcEEESt14default_deleteIS5_EEERNSt13tuple_elementIXT_ESt5tupleIJDpT0_EEE4typeERSD_
FN:2443,_ZSt3getILy1EJPNSt7__cxx1112basic_stringIcSt11char_traitsIcESaIcEEESt14default_deleteIS5_EEERNSt13tuple_elementIXT_ESt5tupleIJDpT0_EEE4typeERSD_
FNDA:0,_ZSt3getILy1EJPNSt7__cxx1112basic_stringIcSt11char_traitsIcESaIcEEESt14default_deleteIS5_EEERNSt13tuple_elementIXT_ESt5tupleIJDpT0_EEE4typeERSD_
FN:2443,_ZSt3getILy0EJPNSt7__cxx1112basic_stringIcSt11char_traitsIcESaIcEEESt14default_deleteIS5_EEERNSt13tuple_elementIXT_ESt5tupleIJDpT0_EEE4typeERSD_
FNDA:0,_ZSt3getILy0EJPNSt7__cxx1112basic_stringIcSt11char_traitsIcESaIcEEESt14default_deleteIS5_EEERNSt13tuple_elementIXT_ESt5tupleIJDpT0_EEE4typeERSD_
FN:2443,_ZSt3getILy0EJPNSt7__cxx1118basic_stringstreamIcSt11char_traitsIcESaIcEEESt14default_deleteIS5_EEERNSt13tuple_elementIXT_ESt5tupleIJDpT0_EEE4typeERSD_
FNDA:0,_ZSt3getILy0EJPNSt7__cxx1118basic_stringstreamIcSt11char_traitsIcESaIcEEESt14default_deleteIS5_EEERNSt13tuple_elementIXT_ESt5tupleIJDpT0_EEE4typeERSD_
FN:2449,_ZSt3getILy0EJPNSt7__cxx1112basic_stringIcSt11char_traitsIcESaIcEEESt14default_deleteIS5_EEERKNSt13tuple_elementIXT_ESt5tupleIJDpT0_EEE4typeERKSD_
FNDA:0,_ZSt3getILy0EJPNSt7__cxx1112basic_stringIcSt11char_traitsIcESaIcEEESt14default_deleteIS5_EEERKNSt13tuple_elementIXT_ESt5tupleIJDpT0_EEE4typeERKSD_
FNF:25
FNH:0
DA:89,0
DA:90,0
DA:133,0
DA:133,0
DA:198,0
DA:199,0
DA:242,0
DA:242,0
DA:245,0
DA:293,0
DA:293,0
DA:296,0
DA:304,0
DA:305,0
DA:556,0
DA:556,0
DA:562,0
DA:563,0
DA:2089,0
DA:2091,0
DA:2427,0
DA:2428,0
DA:2427,0
DA:2428,0
DA:2427,0
DA:2428,0
DA:2427,0
DA:2428,0
DA:2432,0
DA:2433,0
DA:2443,0
DA:2444,0
DA:2443,0
DA:2444,0
DA:2443,0
DA:2444,0
DA:2443,0
DA:2444,0
DA:2449,0
DA:2450,0
LF:40
LH:0
end_of_record
SF:C:/msys64/mingw64/include/c++/14.2.0/bits/basic_string.h
FN:646,_ZNSt7__cxx1112basic_stringIcSt11char_traitsIcESaIcEEC1IS3_EEPKcRKS3_
FNDA:0,_ZNSt7__cxx1112basic_stringIcSt11char_traitsIcESaIcEEC1IS3_EEPKcRKS3_
FNF:1
FNH:0
DA:360,0
DA:646,0
DA:647,0
DA:650,0
DA:651,0
DA:653,0
DA:654,0
DA:655,0
LF:8
LH:0
end_of_record
SF:C:/Projects/GoogleTestProject/googletest/googletest/include/gtest/gtest-assertion-result.h
FN:155,_ZN7testing15AssertionResultC1IbEERKT_PNSt9enable_ifIXntsrSt14is_convertibleIS2_S0_E5valueEvE4typeE
FNDA:0,_ZN7testing15AssertionResultC1IbEERKT_PNSt9enable_ifIXntsrSt14is_convertibleIS2_S0_E5valueEvE4typeE
FN:174,_ZNK7testing15AssertionResultcvbEv
FNDA:0,_ZNK7testing15AssertionResultcvbEv
FN:183,_ZNK7testing15AssertionResult7messageEv
FNDA:0,_ZNK7testing15AssertionResult7messageEv
FN:187,_ZNK7testing15AssertionResult15failure_messageEv
FNDA:0,_ZNK7testing15AssertionResult15failure_messageEv
FNF:4
FNH:0
DA:155,0
DA:161,0
DA:174,0
DA:183,0
DA:184,0
DA:187,0
LF:6
LH:0
end_of_record
SF:C:/msys64/mingw64/include/c++/14.2.0/bits/stl_iterator_base_types.h
DA:240,0
LF:1
LH:0
end_of_record
SF:C:/msys64/mingw64/include/c++/14.2.0/bits/allocator.h
LF:0
LH:0
end_of_record
SF:C:/Projects/GoogleTestProject/aeb_mode_test.cpp
FN:18,_ZL10makeTargeti22AEB_Target_Situation_eff
FNDA:60,_ZL10makeTargeti22AEB_Target_Situation_eff
FN:30,_ZL7makeEgof
FNDA:72,_ZL7makeEgof
FN:44,_ZN14AebModeSelTest5SetUpEv
FNDA:60,_ZN14AebModeSelTest5SetUpEv
FN:51,_ZNK14AebModeSelTest4callEv
FNDA:60,_ZNK14AebModeSelTest4callEv
FN:60,_ZN35AebModeSelTest_TC_AEB_MS_EQ_01_TestC1Ev
FNDA:1,_ZN35AebModeSelTest_TC_AEB_MS_EQ_01_TestC1Ev
FN:60,_ZN35AebModeSelTest_TC_AEB_MS_EQ_01_Test8TestBodyEv
FNDA:1,_ZN35AebModeSelTest_TC_AEB_MS_EQ_01_Test8TestBodyEv
FN:60,_ZN35AebModeSelTest_TC_AEB_MS_EQ_01_TestD1Ev
FNDA:1,_ZN35AebModeSelTest_TC_AEB_MS_EQ_01_TestD1Ev
FN:60,_ZN35AebModeSelTest_TC_AEB_MS_EQ_01_TestD0Ev
FNDA:1,_ZN35AebModeSelTest_TC_AEB_MS_EQ_01_TestD0Ev
FN:66,_ZN35AebModeSelTest_TC_AEB_MS_EQ_02_TestC1Ev
FNDA:1,_ZN35AebModeSelTest_TC_AEB_MS_EQ_02_TestC1Ev
FN:66,_ZN35AebModeSelTest_TC_AEB_MS_EQ_02_Test8TestBodyEv
FNDA:1,_ZN35AebModeSelTest_TC_AEB_MS_EQ_02_Test8TestBodyEv
FN:66,_ZN35AebModeSelTest_TC_AEB_MS_EQ_02_TestD1Ev
FNDA:1,_ZN35AebModeSelTest_TC_AEB_MS_EQ_02_TestD1Ev
FN:66,_ZN35AebModeSelTest_TC_AEB_MS_EQ_02_TestD0Ev
FNDA:1,_ZN35AebModeSelTest_TC_AEB_MS_EQ_02_TestD0Ev
FN:74,_ZN35AebModeSelTest_TC_AEB_MS_EQ_03_TestD0Ev
FNDA:1,_ZN35AebModeSelTest_TC_AEB_MS_EQ_03_TestD0Ev
FN:74,_ZN35AebModeSelTest_TC_AEB_MS_EQ_03_TestC1Ev
FNDA:1,_ZN35AebModeSelTest_TC_AEB_MS_EQ_03_TestC1Ev
FN:74,_ZN35AebModeSelTest_TC_AEB_MS_EQ_03_TestD1Ev
FNDA:1,_ZN35AebModeSelTest_TC_AEB_MS_EQ_03_TestD1Ev
FN:74,_ZN35AebModeSelTest_TC_AEB_MS_EQ_03_Test8TestBodyEv
FNDA:1,_ZN35AebModeSelTest_TC_AEB_MS_EQ_03_Test8TestBodyEv
FN:82,_ZN35AebModeSelTest_TC_AEB_MS_EQ_04_TestC1Ev
FNDA:1,_ZN35AebModeSelTest_TC_AEB_MS_EQ_04_TestC1Ev
FN:82,_ZN35AebModeSelTest_TC_AEB_MS_EQ_04_TestD0Ev
FNDA:1,_ZN35AebModeSelTest_TC_AEB_MS_EQ_04_TestD0Ev
FN:82,_ZN35AebModeSelTest_TC_AEB_MS_EQ_04_TestD1Ev
FNDA:1,_ZN35AebModeSelTest_TC_AEB_MS_EQ_04_TestD1Ev
FN:82,_ZN35AebModeSelTest_TC_AEB_MS_EQ_04_Test8TestBodyEv
FNDA:1,_ZN35AebModeSelTest_TC_AEB_MS_EQ_04_Test8TestBodyEv
FN:89,_ZN35AebModeSelTest_TC_AEB_MS_EQ_05_Test8TestBodyEv
FNDA:1,_ZN35AebModeSelTest_TC_AEB_MS_EQ_05_Test8TestBodyEv
FN:89,_ZN35AebModeSelTest_TC_AEB_MS_EQ_05_TestD0Ev
FNDA:1,_ZN35AebModeSelTest_TC_AEB_MS_EQ_05_TestD0Ev
FN:89,_ZN35AebModeSelTest_TC_AEB_MS_EQ_05_TestD1Ev
FNDA:1,_ZN35AebModeSelTest_TC_AEB_MS_EQ_05_TestD1Ev
FN:89,_ZN35AebModeSelTest_TC_AEB_MS_EQ_05_TestC1Ev
FNDA:1,_ZN35AebModeSelTest_TC_AEB_MS_EQ_05_TestC1Ev
FN:98,_ZN35AebModeSelTest_TC_AEB_MS_EQ_06_Test8TestBodyEv
FNDA:1,_ZN35AebModeSelTest_TC_AEB_MS_EQ_06_Test8TestBodyEv
FN:98,_ZN35AebModeSelTest_TC_AEB_MS_EQ_06_TestD1Ev
FNDA:1,_ZN35AebModeSelTest_TC_AEB_MS_EQ_06_TestD1Ev
FN:98,_ZN35AebModeSelTest_TC_AEB_MS_EQ_06_TestC1Ev
FNDA:1,_ZN35AebModeSelTest_TC_AEB_MS_EQ_06_TestC1Ev
FN:98,_ZN35AebModeSelTest_TC_AEB_MS_EQ_06_TestD0Ev
FNDA:1,_ZN35AebModeSelTest_TC_AEB_MS_EQ_06_TestD0Ev
FN:105,_ZN35AebModeSelTest_TC_AEB_MS_EQ_07_Test8TestBodyEv
FNDA:1,_ZN35AebModeSelTest_TC_AEB_MS_EQ_07_Test8TestBodyEv
FN:105,_ZN35AebModeSelTest_TC_AEB_MS_EQ_07_TestD0Ev
FNDA:1,_ZN35AebModeSelTest_TC_AEB_MS_EQ_07_TestD0Ev
FN:105,_ZN35AebModeSelTest_TC_AEB_MS_EQ_07_TestD1Ev
FNDA:1,_ZN35AebModeSelTest_TC_AEB_MS_EQ_07_TestD1Ev
FN:105,_ZN35AebModeSelTest_TC_AEB_MS_EQ_07_TestC1Ev
FNDA:1,_ZN35AebModeSelTest_TC_AEB_MS_EQ_07_TestC1Ev
FN:112,_ZN35AebModeSelTest_TC_AEB_MS_EQ_08_Test8TestBodyEv
FNDA:1,_ZN35AebModeSelTest_TC_AEB_MS_EQ_08_Test8TestBodyEv
FN:112,_ZN35AebModeSelTest_TC_AEB_MS_EQ_08_TestD1Ev
FNDA:1,_ZN35AebModeSelTest_TC_AEB_MS_EQ_08_TestD1Ev
FN:112,_ZN35AebModeSelTest_TC_AEB_MS_EQ_08_TestD0Ev
FNDA:1,_ZN35AebModeSelTest_TC_AEB_MS_EQ_08_TestD0Ev
FN:112,_ZN35AebModeSelTest_TC_AEB_MS_EQ_08_TestC1Ev
FNDA:1,_ZN35AebModeSelTest_TC_AEB_MS_EQ_08_TestC1Ev
FN:119,_ZN35AebModeSelTest_TC_AEB_MS_EQ_09_TestD0Ev
FNDA:1,_ZN35AebModeSelTest_TC_AEB_MS_EQ_09_TestD0Ev
FN:119,_ZN35AebModeSelTest_TC_AEB_MS_EQ_09_TestC1Ev
FNDA:1,_ZN35AebModeSelTest_TC_AEB_MS_EQ_09_TestC1Ev
FN:119,_ZN35AebModeSelTest_TC_AEB_MS_EQ_09_TestD1Ev
FNDA:1,_ZN35AebModeSelTest_TC_AEB_MS_EQ_09_TestD1Ev
FN:119,_ZN35AebModeSelTest_TC_AEB_MS_EQ_09_Test8TestBodyEv
FNDA:1,_ZN35AebModeSelTest_TC_AEB_MS_EQ_09_Test8TestBodyEv
FN:126,_ZN35AebModeSelTest_TC_AEB_MS_EQ_10_TestD1Ev
FNDA:1,_ZN35AebModeSelTest_TC_AEB_MS_EQ_10_TestD1Ev
FN:126,_ZN35AebModeSelTest_TC_AEB_MS_EQ_10_TestD0Ev
FNDA:1,_ZN35AebModeSelTest_TC_AEB_MS_EQ_10_TestD0Ev
FN:126,_ZN35AebModeSelTest_TC_AEB_MS_EQ_10_TestC1Ev
FNDA:1,_ZN35AebModeSelTest_TC_AEB_MS_EQ_10_TestC1Ev
FN:126,_ZN35AebModeSelTest_TC_AEB_MS_EQ_10_Test8TestBodyEv
FNDA:1,_ZN35AebModeSelTest_TC_AEB_MS_EQ_10_Test8TestBodyEv
FN:134,_ZN35AebModeSelTest_TC_AEB_MS_EQ_11_TestD0Ev
FNDA:1,_ZN35AebModeSelTest_TC_AEB_MS_EQ_11_TestD0Ev
FN:134,_ZN35AebModeSelTest_TC_AEB_MS_EQ_11_TestD1Ev
FNDA:1,_ZN35AebModeSelTest_TC_AEB_MS_EQ_11_TestD1Ev
FN:134,_ZN35AebModeSelTest_TC_AEB_MS_EQ_11_TestC1Ev
FNDA:1,_ZN35AebModeSelTest_TC_AEB_MS_EQ_11_TestC1Ev
FN:134,_ZN35AebModeSelTest_TC_AEB_MS_EQ_11_Test8TestBodyEv
FNDA:1,_ZN35AebModeSelTest_TC_AEB_MS_EQ_11_Test8TestBodyEv
FN:141,_ZN35AebModeSelTest_TC_AEB_MS_EQ_12_TestD1Ev
FNDA:1,_ZN35AebModeSelTest_TC_AEB_MS_EQ_12_TestD1Ev
FN:141,_ZN35AebModeSelTest_TC_AEB_MS_EQ_12_TestC1Ev
FNDA:1,_ZN35AebModeSelTest_TC_AEB_MS_EQ_12_TestC1Ev
FN:141,_ZN35AebModeSelTest_TC_AEB_MS_EQ_12_TestD0Ev
FNDA:1,_ZN35AebModeSelTest_TC_AEB_MS_EQ_12_TestD0Ev
FN:141,_ZN35AebModeSelTest_TC_AEB_MS_EQ_12_Test8TestBodyEv
FNDA:1,_ZN35AebModeSelTest_TC_AEB_MS_EQ_12_Test8TestBodyEv
FN:149,_ZN35AebModeSelTest_TC_AEB_MS_EQ_13_TestD0Ev
